
bin\Debug\Portaalkraan_Finale.elf:     file format elf32-avr

Sections:
Idx Name          Size      VMA       LMA       File off  Algn
  0 .data         0000000e  00800200  00004256  0000430a  2**0
                  CONTENTS, ALLOC, LOAD, DATA
  1 .text         00004256  00000000  00000000  000000b4  2**1
                  CONTENTS, ALLOC, LOAD, READONLY, CODE
  2 .bss          00000012  0080020e  0080020e  00004318  2**0
                  ALLOC
  3 .fuse         00000003  00820000  00820000  00004318  2**0
                  CONTENTS, ALLOC, LOAD, DATA
  4 .comment      00000012  00000000  00000000  0000431b  2**0
                  CONTENTS, READONLY
  5 .note.gnu.avr.deviceinfo 00000040  00000000  00000000  00004330  2**2
                  CONTENTS, READONLY, OCTETS
  6 .debug_aranges 00000118  00000000  00000000  00004370  2**3
                  CONTENTS, READONLY, DEBUGGING, OCTETS
  7 .debug_info   00001988  00000000  00000000  00004488  2**0
                  CONTENTS, READONLY, DEBUGGING, OCTETS
  8 .debug_abbrev 00000e32  00000000  00000000  00005e10  2**0
                  CONTENTS, READONLY, DEBUGGING, OCTETS
  9 .debug_line   00001ff2  00000000  00000000  00006c42  2**0
                  CONTENTS, READONLY, DEBUGGING, OCTETS
 10 .debug_frame  00000234  00000000  00000000  00008c34  2**2
                  CONTENTS, READONLY, DEBUGGING, OCTETS
 11 .debug_str    00000652  00000000  00000000  00008e68  2**0
                  CONTENTS, READONLY, DEBUGGING, OCTETS
 12 .debug_line_str 00000175  00000000  00000000  000094ba  2**0
                  CONTENTS, READONLY, DEBUGGING, OCTETS

Disassembly of section .text:

00000000 <__vectors>:
       0:	0c 94 8c 00 	jmp	0x118	; 0x118 <__ctors_end>
       4:	0c 94 ad 00 	jmp	0x15a	; 0x15a <__bad_interrupt>
       8:	0c 94 ad 00 	jmp	0x15a	; 0x15a <__bad_interrupt>
       c:	0c 94 ad 00 	jmp	0x15a	; 0x15a <__bad_interrupt>
      10:	0c 94 ad 00 	jmp	0x15a	; 0x15a <__bad_interrupt>
      14:	0c 94 ad 00 	jmp	0x15a	; 0x15a <__bad_interrupt>
      18:	0c 94 ad 00 	jmp	0x15a	; 0x15a <__bad_interrupt>
      1c:	0c 94 ad 00 	jmp	0x15a	; 0x15a <__bad_interrupt>
      20:	0c 94 ad 00 	jmp	0x15a	; 0x15a <__bad_interrupt>
      24:	0c 94 ad 00 	jmp	0x15a	; 0x15a <__bad_interrupt>
      28:	0c 94 ad 00 	jmp	0x15a	; 0x15a <__bad_interrupt>
      2c:	0c 94 ad 00 	jmp	0x15a	; 0x15a <__bad_interrupt>
      30:	0c 94 ad 00 	jmp	0x15a	; 0x15a <__bad_interrupt>
      34:	0c 94 ad 00 	jmp	0x15a	; 0x15a <__bad_interrupt>
      38:	0c 94 ad 00 	jmp	0x15a	; 0x15a <__bad_interrupt>
      3c:	0c 94 ad 00 	jmp	0x15a	; 0x15a <__bad_interrupt>
      40:	0c 94 ad 00 	jmp	0x15a	; 0x15a <__bad_interrupt>
      44:	0c 94 ad 00 	jmp	0x15a	; 0x15a <__bad_interrupt>
      48:	0c 94 ad 00 	jmp	0x15a	; 0x15a <__bad_interrupt>
      4c:	0c 94 ad 00 	jmp	0x15a	; 0x15a <__bad_interrupt>
      50:	0c 94 ad 00 	jmp	0x15a	; 0x15a <__bad_interrupt>
      54:	0c 94 1e 01 	jmp	0x23c	; 0x23c <__vector_21>
      58:	0c 94 4c 01 	jmp	0x298	; 0x298 <__vector_22>
      5c:	0c 94 af 00 	jmp	0x15e	; 0x15e <__vector_23>
      60:	0c 94 ad 00 	jmp	0x15a	; 0x15a <__bad_interrupt>
      64:	0c 94 ad 00 	jmp	0x15a	; 0x15a <__bad_interrupt>
      68:	0c 94 ad 00 	jmp	0x15a	; 0x15a <__bad_interrupt>
      6c:	0c 94 ad 00 	jmp	0x15a	; 0x15a <__bad_interrupt>
      70:	0c 94 ad 00 	jmp	0x15a	; 0x15a <__bad_interrupt>
      74:	0c 94 ad 00 	jmp	0x15a	; 0x15a <__bad_interrupt>
      78:	0c 94 ad 00 	jmp	0x15a	; 0x15a <__bad_interrupt>
      7c:	0c 94 ad 00 	jmp	0x15a	; 0x15a <__bad_interrupt>
      80:	0c 94 ad 00 	jmp	0x15a	; 0x15a <__bad_interrupt>
      84:	0c 94 ad 00 	jmp	0x15a	; 0x15a <__bad_interrupt>
      88:	0c 94 ad 00 	jmp	0x15a	; 0x15a <__bad_interrupt>
      8c:	0c 94 ad 00 	jmp	0x15a	; 0x15a <__bad_interrupt>
      90:	0c 94 ad 00 	jmp	0x15a	; 0x15a <__bad_interrupt>
      94:	0c 94 ad 00 	jmp	0x15a	; 0x15a <__bad_interrupt>
      98:	0c 94 ad 00 	jmp	0x15a	; 0x15a <__bad_interrupt>
      9c:	0c 94 ad 00 	jmp	0x15a	; 0x15a <__bad_interrupt>
      a0:	0c 94 ad 00 	jmp	0x15a	; 0x15a <__bad_interrupt>
      a4:	0c 94 ad 00 	jmp	0x15a	; 0x15a <__bad_interrupt>
      a8:	0c 94 64 1f 	jmp	0x3ec8	; 0x3ec8 <__vector_42>
      ac:	0c 94 ad 00 	jmp	0x15a	; 0x15a <__bad_interrupt>
      b0:	0c 94 ad 00 	jmp	0x15a	; 0x15a <__bad_interrupt>
      b4:	0c 94 ad 00 	jmp	0x15a	; 0x15a <__bad_interrupt>
      b8:	0c 94 ad 00 	jmp	0x15a	; 0x15a <__bad_interrupt>
      bc:	0c 94 ad 00 	jmp	0x15a	; 0x15a <__bad_interrupt>
      c0:	0c 94 ad 00 	jmp	0x15a	; 0x15a <__bad_interrupt>
      c4:	0c 94 ad 00 	jmp	0x15a	; 0x15a <__bad_interrupt>
      c8:	0c 94 ad 00 	jmp	0x15a	; 0x15a <__bad_interrupt>
      cc:	0c 94 ad 00 	jmp	0x15a	; 0x15a <__bad_interrupt>
      d0:	0c 94 ad 00 	jmp	0x15a	; 0x15a <__bad_interrupt>
      d4:	0c 94 ad 00 	jmp	0x15a	; 0x15a <__bad_interrupt>
      d8:	0c 94 ad 00 	jmp	0x15a	; 0x15a <__bad_interrupt>
      dc:	0c 94 ad 00 	jmp	0x15a	; 0x15a <__bad_interrupt>
      e0:	0c 94 ad 00 	jmp	0x15a	; 0x15a <__bad_interrupt>

000000e4 <__trampolines_start>:
      e4:	0c 94 dd 1d 	jmp	0x3bba	; 0x3bba <.L48>
      e8:	0c 94 ab 18 	jmp	0x3156	; 0x3156 <.L50>
      ec:	0c 94 52 1f 	jmp	0x3ea4	; 0x3ea4 <.L44>
      f0:	0c 94 06 05 	jmp	0xa0c	; 0xa0c <.L56>
      f4:	0c 94 37 17 	jmp	0x2e6e	; 0x2e6e <.L52>
      f8:	0c 94 ab 04 	jmp	0x956	; 0x956 <.L57>
      fc:	0c 94 80 18 	jmp	0x3100	; 0x3100 <.L51>
     100:	0c 94 4b 1f 	jmp	0x3e96	; 0x3e96 <.L45>
     104:	0c 94 4e 05 	jmp	0xa9c	; 0xa9c <.L55>
     108:	0c 94 15 1f 	jmp	0x3e2a	; 0x3e2a <.L47>
     10c:	0c 94 46 1b 	jmp	0x368c	; 0x368c <.L49>
     110:	0c 94 98 05 	jmp	0xb30	; 0xb30 <.L54>
     114:	0c 94 df 0d 	jmp	0x1bbe	; 0x1bbe <.L53>

00000118 <__ctors_end>:
     118:	11 24       	eor	r1, r1
     11a:	1f be       	out	0x3f, r1	; 63
     11c:	cf ef       	ldi	r28, 0xFF	; 255
     11e:	d1 e2       	ldi	r29, 0x21	; 33
     120:	de bf       	out	0x3e, r29	; 62
     122:	cd bf       	out	0x3d, r28	; 61
     124:	00 e0       	ldi	r16, 0x00	; 0
     126:	0c bf       	out	0x3c, r16	; 60

00000128 <__do_copy_data>:
     128:	12 e0       	ldi	r17, 0x02	; 2

0000012a <.Loc.1>:
     12a:	a0 e0       	ldi	r26, 0x00	; 0

0000012c <.Loc.2>:
     12c:	b2 e0       	ldi	r27, 0x02	; 2

0000012e <.Loc.3>:
     12e:	e6 e5       	ldi	r30, 0x56	; 86

00000130 <.Loc.4>:
     130:	f2 e4       	ldi	r31, 0x42	; 66

00000132 <.Loc.5>:
     132:	00 e0       	ldi	r16, 0x00	; 0

00000134 <.Loc.6>:
     134:	0b bf       	out	0x3b, r16	; 59

00000136 <.Loc.7>:
     136:	02 c0       	rjmp	.+4      	; 0x13c <.L__do_copy_data_start>

00000138 <.L__do_copy_data_loop>:
     138:	07 90       	elpm	r0, Z+

0000013a <.Loc.9>:
     13a:	0d 92       	st	X+, r0

0000013c <.L__do_copy_data_start>:
     13c:	ae 30       	cpi	r26, 0x0E	; 14

0000013e <.Loc.11>:
     13e:	b1 07       	cpc	r27, r17

00000140 <.Loc.12>:
     140:	d9 f7       	brne	.-10     	; 0x138 <.L__do_copy_data_loop>

00000142 <__do_clear_bss>:
     142:	22 e0       	ldi	r18, 0x02	; 2

00000144 <.Loc.1>:
     144:	ae e0       	ldi	r26, 0x0E	; 14

00000146 <.Loc.2>:
     146:	b2 e0       	ldi	r27, 0x02	; 2

00000148 <.Loc.3>:
     148:	01 c0       	rjmp	.+2      	; 0x14c <.Loc.5>

0000014a <.Loc.4>:
     14a:	1d 92       	st	X+, r1

0000014c <.Loc.5>:
     14c:	a0 32       	cpi	r26, 0x20	; 32

0000014e <.Loc.6>:
     14e:	b2 07       	cpc	r27, r18

00000150 <.Loc.7>:
     150:	e1 f7       	brne	.-8      	; 0x14a <.Loc.4>

00000152 <L0^A>:
     152:	0e 94 ae 03 	call	0x75c	; 0x75c <main>
     156:	0c 94 ec 20 	jmp	0x41d8	; 0x41d8 <_exit>

0000015a <__bad_interrupt>:
     15a:	0c 94 00 00 	jmp	0	; 0x0 <__vectors>

0000015e <__vector_23>:
#include <avr/io.h>
#include <avr/interrupt.h>
#include "h_bridge.h"

ISR(TIMER0_OVF_vect)
{
     15e:	1f 92       	push	r1
     160:	0f 92       	push	r0
     162:	0f b6       	in	r0, 0x3f	; 63
     164:	0f 92       	push	r0
     166:	11 24       	eor	r1, r1
     168:	0b b6       	in	r0, 0x3b	; 59
     16a:	0f 92       	push	r0
     16c:	2f 93       	push	r18
     16e:	8f 93       	push	r24
     170:	9f 93       	push	r25
     172:	ef 93       	push	r30
     174:	ff 93       	push	r31
     176:	cf 93       	push	r28
     178:	df 93       	push	r29
     17a:	cd b7       	in	r28, 0x3d	; 61
     17c:	de b7       	in	r29, 0x3e	; 62

0000017e <.Loc.1>:
	if (OCR0A == 0 && OCR0B == 0)
     17e:	87 e4       	ldi	r24, 0x47	; 71
     180:	90 e0       	ldi	r25, 0x00	; 0
     182:	fc 01       	movw	r30, r24
     184:	80 81       	ld	r24, Z

00000186 <.Loc.2>:
     186:	88 23       	and	r24, r24
     188:	c9 f4       	brne	.+50     	; 0x1bc <.L2>

0000018a <.Loc.3>:
     18a:	88 e4       	ldi	r24, 0x48	; 72
     18c:	90 e0       	ldi	r25, 0x00	; 0
     18e:	fc 01       	movw	r30, r24
     190:	80 81       	ld	r24, Z

00000192 <.Loc.4>:
     192:	88 23       	and	r24, r24
     194:	99 f4       	brne	.+38     	; 0x1bc <.L2>

00000196 <.Loc.5>:
	{
		PORT_RPWM &= ~(1<<PIN_RPWM);
     196:	82 e0       	ldi	r24, 0x02	; 2
     198:	91 e0       	ldi	r25, 0x01	; 1
     19a:	fc 01       	movw	r30, r24
     19c:	20 81       	ld	r18, Z

0000019e <.Loc.6>:
     19e:	82 e0       	ldi	r24, 0x02	; 2
     1a0:	91 e0       	ldi	r25, 0x01	; 1

000001a2 <.Loc.7>:
     1a2:	2f 7b       	andi	r18, 0xBF	; 191
     1a4:	fc 01       	movw	r30, r24
     1a6:	20 83       	st	Z, r18

000001a8 <.Loc.8>:
		PORT_LPWM &= ~(1<<PIN_LPWM);
     1a8:	81 e3       	ldi	r24, 0x31	; 49
     1aa:	90 e0       	ldi	r25, 0x00	; 0
     1ac:	fc 01       	movw	r30, r24
     1ae:	20 81       	ld	r18, Z

000001b0 <.Loc.9>:
     1b0:	81 e3       	ldi	r24, 0x31	; 49
     1b2:	90 e0       	ldi	r25, 0x00	; 0

000001b4 <.Loc.10>:
     1b4:	2f 7d       	andi	r18, 0xDF	; 223
     1b6:	fc 01       	movw	r30, r24
     1b8:	20 83       	st	Z, r18

000001ba <.Loc.11>:
	else if (OCR0B != 0)
	{
		PORT_RPWM &= ~(1<<PIN_RPWM);
		PORT_LPWM |= (1<<PIN_LPWM);
	}
}
     1ba:	31 c0       	rjmp	.+98     	; 0x21e <.L5>

000001bc <.L2>:
	else if (OCR0A != 0)
     1bc:	87 e4       	ldi	r24, 0x47	; 71
     1be:	90 e0       	ldi	r25, 0x00	; 0
     1c0:	fc 01       	movw	r30, r24
     1c2:	80 81       	ld	r24, Z

000001c4 <.Loc.13>:
     1c4:	88 23       	and	r24, r24
     1c6:	99 f0       	breq	.+38     	; 0x1ee <.L4>

000001c8 <.Loc.14>:
		PORT_LPWM &= ~(1<<PIN_LPWM);
     1c8:	81 e3       	ldi	r24, 0x31	; 49
     1ca:	90 e0       	ldi	r25, 0x00	; 0
     1cc:	fc 01       	movw	r30, r24
     1ce:	20 81       	ld	r18, Z

000001d0 <.Loc.15>:
     1d0:	81 e3       	ldi	r24, 0x31	; 49
     1d2:	90 e0       	ldi	r25, 0x00	; 0

000001d4 <.Loc.16>:
     1d4:	2f 7d       	andi	r18, 0xDF	; 223
     1d6:	fc 01       	movw	r30, r24
     1d8:	20 83       	st	Z, r18

000001da <.Loc.17>:
		PORT_RPWM |= (1<<PIN_RPWM);
     1da:	82 e0       	ldi	r24, 0x02	; 2
     1dc:	91 e0       	ldi	r25, 0x01	; 1
     1de:	fc 01       	movw	r30, r24
     1e0:	20 81       	ld	r18, Z
     1e2:	82 e0       	ldi	r24, 0x02	; 2
     1e4:	91 e0       	ldi	r25, 0x01	; 1

000001e6 <.Loc.18>:
     1e6:	20 64       	ori	r18, 0x40	; 64
     1e8:	fc 01       	movw	r30, r24
     1ea:	20 83       	st	Z, r18

000001ec <.Loc.19>:
}
     1ec:	18 c0       	rjmp	.+48     	; 0x21e <.L5>

000001ee <.L4>:
	else if (OCR0B != 0)
     1ee:	88 e4       	ldi	r24, 0x48	; 72
     1f0:	90 e0       	ldi	r25, 0x00	; 0
     1f2:	fc 01       	movw	r30, r24
     1f4:	80 81       	ld	r24, Z

000001f6 <.Loc.21>:
     1f6:	88 23       	and	r24, r24
     1f8:	91 f0       	breq	.+36     	; 0x21e <.L5>

000001fa <.Loc.22>:
		PORT_RPWM &= ~(1<<PIN_RPWM);
     1fa:	82 e0       	ldi	r24, 0x02	; 2
     1fc:	91 e0       	ldi	r25, 0x01	; 1
     1fe:	fc 01       	movw	r30, r24
     200:	20 81       	ld	r18, Z

00000202 <.Loc.23>:
     202:	82 e0       	ldi	r24, 0x02	; 2
     204:	91 e0       	ldi	r25, 0x01	; 1

00000206 <.Loc.24>:
     206:	2f 7b       	andi	r18, 0xBF	; 191
     208:	fc 01       	movw	r30, r24
     20a:	20 83       	st	Z, r18

0000020c <.Loc.25>:
		PORT_LPWM |= (1<<PIN_LPWM);
     20c:	81 e3       	ldi	r24, 0x31	; 49
     20e:	90 e0       	ldi	r25, 0x00	; 0
     210:	fc 01       	movw	r30, r24
     212:	20 81       	ld	r18, Z
     214:	81 e3       	ldi	r24, 0x31	; 49
     216:	90 e0       	ldi	r25, 0x00	; 0

00000218 <.Loc.26>:
     218:	20 62       	ori	r18, 0x20	; 32
     21a:	fc 01       	movw	r30, r24
     21c:	20 83       	st	Z, r18

0000021e <.L5>:
}
     21e:	00 00       	nop
     220:	df 91       	pop	r29
     222:	cf 91       	pop	r28
     224:	ff 91       	pop	r31
     226:	ef 91       	pop	r30
     228:	9f 91       	pop	r25
     22a:	8f 91       	pop	r24
     22c:	2f 91       	pop	r18
     22e:	0f 90       	pop	r0
     230:	0b be       	out	0x3b, r0	; 59
     232:	0f 90       	pop	r0
     234:	0f be       	out	0x3f, r0	; 63
     236:	0f 90       	pop	r0
     238:	1f 90       	pop	r1
     23a:	18 95       	reti

0000023c <__vector_21>:

ISR(TIMER0_COMPA_vect)
{
     23c:	1f 92       	push	r1
     23e:	0f 92       	push	r0
     240:	0f b6       	in	r0, 0x3f	; 63
     242:	0f 92       	push	r0
     244:	11 24       	eor	r1, r1
     246:	0b b6       	in	r0, 0x3b	; 59
     248:	0f 92       	push	r0
     24a:	2f 93       	push	r18
     24c:	8f 93       	push	r24
     24e:	9f 93       	push	r25
     250:	ef 93       	push	r30
     252:	ff 93       	push	r31
     254:	cf 93       	push	r28
     256:	df 93       	push	r29
     258:	cd b7       	in	r28, 0x3d	; 61
     25a:	de b7       	in	r29, 0x3e	; 62

0000025c <.Loc.29>:
	if (OCR0A != 255)
     25c:	87 e4       	ldi	r24, 0x47	; 71
     25e:	90 e0       	ldi	r25, 0x00	; 0
     260:	fc 01       	movw	r30, r24
     262:	80 81       	ld	r24, Z

00000264 <.Loc.30>:
     264:	8f 3f       	cpi	r24, 0xFF	; 255
     266:	49 f0       	breq	.+18     	; 0x27a <.L8>

00000268 <.Loc.31>:
	{
		PORT_RPWM &= ~(1<<PIN_RPWM);
     268:	82 e0       	ldi	r24, 0x02	; 2
     26a:	91 e0       	ldi	r25, 0x01	; 1
     26c:	fc 01       	movw	r30, r24
     26e:	20 81       	ld	r18, Z

00000270 <.Loc.32>:
     270:	82 e0       	ldi	r24, 0x02	; 2
     272:	91 e0       	ldi	r25, 0x01	; 1

00000274 <.Loc.33>:
     274:	2f 7b       	andi	r18, 0xBF	; 191
     276:	fc 01       	movw	r30, r24
     278:	20 83       	st	Z, r18

0000027a <.L8>:
	}
}
     27a:	00 00       	nop
     27c:	df 91       	pop	r29
     27e:	cf 91       	pop	r28
     280:	ff 91       	pop	r31
     282:	ef 91       	pop	r30
     284:	9f 91       	pop	r25
     286:	8f 91       	pop	r24
     288:	2f 91       	pop	r18
     28a:	0f 90       	pop	r0
     28c:	0b be       	out	0x3b, r0	; 59
     28e:	0f 90       	pop	r0
     290:	0f be       	out	0x3f, r0	; 63
     292:	0f 90       	pop	r0
     294:	1f 90       	pop	r1
     296:	18 95       	reti

00000298 <__vector_22>:

ISR(TIMER0_COMPB_vect)
{
     298:	1f 92       	push	r1
     29a:	0f 92       	push	r0
     29c:	0f b6       	in	r0, 0x3f	; 63
     29e:	0f 92       	push	r0
     2a0:	11 24       	eor	r1, r1
     2a2:	0b b6       	in	r0, 0x3b	; 59
     2a4:	0f 92       	push	r0
     2a6:	2f 93       	push	r18
     2a8:	8f 93       	push	r24
     2aa:	9f 93       	push	r25
     2ac:	ef 93       	push	r30
     2ae:	ff 93       	push	r31
     2b0:	cf 93       	push	r28
     2b2:	df 93       	push	r29
     2b4:	cd b7       	in	r28, 0x3d	; 61
     2b6:	de b7       	in	r29, 0x3e	; 62

000002b8 <.Loc.36>:
	if (OCR0B != 255)
     2b8:	88 e4       	ldi	r24, 0x48	; 72
     2ba:	90 e0       	ldi	r25, 0x00	; 0
     2bc:	fc 01       	movw	r30, r24
     2be:	80 81       	ld	r24, Z

000002c0 <.Loc.37>:
     2c0:	8f 3f       	cpi	r24, 0xFF	; 255
     2c2:	49 f0       	breq	.+18     	; 0x2d6 <.L11>

000002c4 <.Loc.38>:
	{
		PORT_LPWM &= ~(1<<PIN_LPWM);
     2c4:	81 e3       	ldi	r24, 0x31	; 49
     2c6:	90 e0       	ldi	r25, 0x00	; 0
     2c8:	fc 01       	movw	r30, r24
     2ca:	20 81       	ld	r18, Z

000002cc <.Loc.39>:
     2cc:	81 e3       	ldi	r24, 0x31	; 49
     2ce:	90 e0       	ldi	r25, 0x00	; 0

000002d0 <.Loc.40>:
     2d0:	2f 7d       	andi	r18, 0xDF	; 223
     2d2:	fc 01       	movw	r30, r24
     2d4:	20 83       	st	Z, r18

000002d6 <.L11>:
	}
}
     2d6:	00 00       	nop
     2d8:	df 91       	pop	r29
     2da:	cf 91       	pop	r28
     2dc:	ff 91       	pop	r31
     2de:	ef 91       	pop	r30
     2e0:	9f 91       	pop	r25
     2e2:	8f 91       	pop	r24
     2e4:	2f 91       	pop	r18
     2e6:	0f 90       	pop	r0
     2e8:	0b be       	out	0x3b, r0	; 59
     2ea:	0f 90       	pop	r0
     2ec:	0f be       	out	0x3f, r0	; 63
     2ee:	0f 90       	pop	r0
     2f0:	1f 90       	pop	r1
     2f2:	18 95       	reti

000002f4 <init_h_bridge>:

void init_h_bridge(void)
{
     2f4:	cf 93       	push	r28
     2f6:	df 93       	push	r29
     2f8:	cd b7       	in	r28, 0x3d	; 61
     2fa:	de b7       	in	r29, 0x3e	; 62

000002fc <.Loc.43>:
	// Config pins as output
	DDR_RPWM |= (1<<PIN_RPWM);
     2fc:	81 e0       	ldi	r24, 0x01	; 1
     2fe:	91 e0       	ldi	r25, 0x01	; 1
     300:	fc 01       	movw	r30, r24
     302:	20 81       	ld	r18, Z
     304:	81 e0       	ldi	r24, 0x01	; 1
     306:	91 e0       	ldi	r25, 0x01	; 1

00000308 <.Loc.44>:
     308:	20 64       	ori	r18, 0x40	; 64
     30a:	fc 01       	movw	r30, r24
     30c:	20 83       	st	Z, r18

0000030e <.Loc.45>:
	DDR_LPWM |= (1<<PIN_LPWM);
     30e:	80 e3       	ldi	r24, 0x30	; 48
     310:	90 e0       	ldi	r25, 0x00	; 0
     312:	fc 01       	movw	r30, r24
     314:	20 81       	ld	r18, Z
     316:	80 e3       	ldi	r24, 0x30	; 48
     318:	90 e0       	ldi	r25, 0x00	; 0

0000031a <.Loc.46>:
     31a:	20 62       	ori	r18, 0x20	; 32
     31c:	fc 01       	movw	r30, r24
     31e:	20 83       	st	Z, r18

00000320 <.Loc.47>:

	// Output low
	PORT_RPWM &= ~(1<<PIN_RPWM);
     320:	82 e0       	ldi	r24, 0x02	; 2
     322:	91 e0       	ldi	r25, 0x01	; 1
     324:	fc 01       	movw	r30, r24
     326:	20 81       	ld	r18, Z

00000328 <.Loc.48>:
     328:	82 e0       	ldi	r24, 0x02	; 2
     32a:	91 e0       	ldi	r25, 0x01	; 1

0000032c <.Loc.49>:
     32c:	2f 7b       	andi	r18, 0xBF	; 191
     32e:	fc 01       	movw	r30, r24
     330:	20 83       	st	Z, r18

00000332 <.Loc.50>:
	PORT_LPWM &= ~(1<<PIN_LPWM);
     332:	81 e3       	ldi	r24, 0x31	; 49
     334:	90 e0       	ldi	r25, 0x00	; 0
     336:	fc 01       	movw	r30, r24
     338:	20 81       	ld	r18, Z

0000033a <.Loc.51>:
     33a:	81 e3       	ldi	r24, 0x31	; 49
     33c:	90 e0       	ldi	r25, 0x00	; 0

0000033e <.Loc.52>:
     33e:	2f 7d       	andi	r18, 0xDF	; 223
     340:	fc 01       	movw	r30, r24
     342:	20 83       	st	Z, r18

00000344 <.Loc.53>:

	// Use mode 0, clkdiv = 64
	TCCR0A = 0;
     344:	84 e4       	ldi	r24, 0x44	; 68
     346:	90 e0       	ldi	r25, 0x00	; 0

00000348 <.Loc.54>:
     348:	fc 01       	movw	r30, r24
     34a:	10 82       	st	Z, r1

0000034c <.Loc.55>:
	TCCR0B = (0<<CS02) | (1<<CS01) | (1<<CS00);
     34c:	85 e4       	ldi	r24, 0x45	; 69
     34e:	90 e0       	ldi	r25, 0x00	; 0

00000350 <.Loc.56>:
     350:	23 e0       	ldi	r18, 0x03	; 3
     352:	fc 01       	movw	r30, r24
     354:	20 83       	st	Z, r18

00000356 <.Loc.57>:

	// Disable PWM output
	OCR0A = 0;
     356:	87 e4       	ldi	r24, 0x47	; 71
     358:	90 e0       	ldi	r25, 0x00	; 0

0000035a <.Loc.58>:
     35a:	fc 01       	movw	r30, r24
     35c:	10 82       	st	Z, r1

0000035e <.Loc.59>:
	OCR0B = 0;
     35e:	88 e4       	ldi	r24, 0x48	; 72
     360:	90 e0       	ldi	r25, 0x00	; 0

00000362 <.Loc.60>:
     362:	fc 01       	movw	r30, r24
     364:	10 82       	st	Z, r1

00000366 <.Loc.61>:

	// Interrupts on OCA, OCB and OVF
	TIMSK0 = (1<<OCIE0B) | (1<<OCIE0A) | (1<<TOIE0);
     366:	8e e6       	ldi	r24, 0x6E	; 110
     368:	90 e0       	ldi	r25, 0x00	; 0

0000036a <.Loc.62>:
     36a:	27 e0       	ldi	r18, 0x07	; 7
     36c:	fc 01       	movw	r30, r24
     36e:	20 83       	st	Z, r18

00000370 <.Loc.63>:

	sei();
     370:	78 94       	sei

00000372 <.Loc.64>:
}
     372:	00 00       	nop
     374:	df 91       	pop	r29
     376:	cf 91       	pop	r28
     378:	08 95       	ret

0000037a <h_bridge_set_percentage>:

void h_bridge_set_percentage(signed char percentage)
{
     37a:	cf 93       	push	r28
     37c:	df 93       	push	r29
     37e:	0f 92       	push	r0
     380:	cd b7       	in	r28, 0x3d	; 61
     382:	de b7       	in	r29, 0x3e	; 62
     384:	89 83       	std	Y+1, r24	; 0x01

00000386 <.Loc.66>:
	if (percentage >= -100 && percentage <= 100)
     386:	89 81       	ldd	r24, Y+1	; 0x01
     388:	8c 39       	cpi	r24, 0x9C	; 156
     38a:	e4 f1       	brlt	.+120    	; 0x404 <.L16>

0000038c <.Loc.67>:
     38c:	89 81       	ldd	r24, Y+1	; 0x01
     38e:	84 36       	cpi	r24, 0x64	; 100
     390:	09 f0       	breq	.+2      	; 0x394 <.Loc.68>

00000392 <L0^A>:
     392:	c4 f5       	brge	.+112    	; 0x404 <.L16>

00000394 <.Loc.68>:
	{
		if (percentage >= 0)
     394:	89 81       	ldd	r24, Y+1	; 0x01
     396:	88 23       	and	r24, r24
     398:	dc f0       	brlt	.+54     	; 0x3d0 <.L15>

0000039a <.Loc.69>:
		{
			// Disable LPWM, calculate RPWM
			OCR0B = 0;
     39a:	88 e4       	ldi	r24, 0x48	; 72
     39c:	90 e0       	ldi	r25, 0x00	; 0

0000039e <.Loc.70>:
     39e:	fc 01       	movw	r30, r24
     3a0:	10 82       	st	Z, r1

000003a2 <.Loc.71>:
			OCR0A = (255*percentage)/100;
     3a2:	89 81       	ldd	r24, Y+1	; 0x01
     3a4:	08 2e       	mov	r0, r24
     3a6:	00 0c       	add	r0, r0
     3a8:	99 0b       	sbc	r25, r25
     3aa:	2f ef       	ldi	r18, 0xFF	; 255
     3ac:	28 9f       	mul	r18, r24
     3ae:	a0 01       	movw	r20, r0
     3b0:	29 9f       	mul	r18, r25
     3b2:	50 0d       	add	r21, r0
     3b4:	11 24       	eor	r1, r1

000003b6 <.Loc.72>:
     3b6:	24 e6       	ldi	r18, 0x64	; 100
     3b8:	30 e0       	ldi	r19, 0x00	; 0
     3ba:	ca 01       	movw	r24, r20
     3bc:	b9 01       	movw	r22, r18
     3be:	0e 94 92 1f 	call	0x3f24	; 0x3f24 <__divmodhi4>
     3c2:	cb 01       	movw	r24, r22
     3c4:	9c 01       	movw	r18, r24

000003c6 <.Loc.73>:
     3c6:	87 e4       	ldi	r24, 0x47	; 71
     3c8:	90 e0       	ldi	r25, 0x00	; 0

000003ca <.Loc.74>:
     3ca:	fc 01       	movw	r30, r24
     3cc:	20 83       	st	Z, r18

000003ce <.Loc.75>:
			// Disable RPWM, calculate LPWM
			OCR0A = 0;
			OCR0B = (255*percentage)/-100;
		}
	}
}
     3ce:	1a c0       	rjmp	.+52     	; 0x404 <.L16>

000003d0 <.L15>:
			OCR0A = 0;
     3d0:	87 e4       	ldi	r24, 0x47	; 71
     3d2:	90 e0       	ldi	r25, 0x00	; 0

000003d4 <.Loc.77>:
     3d4:	fc 01       	movw	r30, r24
     3d6:	10 82       	st	Z, r1

000003d8 <.Loc.78>:
			OCR0B = (255*percentage)/-100;
     3d8:	89 81       	ldd	r24, Y+1	; 0x01
     3da:	08 2e       	mov	r0, r24
     3dc:	00 0c       	add	r0, r0
     3de:	99 0b       	sbc	r25, r25
     3e0:	2f ef       	ldi	r18, 0xFF	; 255
     3e2:	28 9f       	mul	r18, r24
     3e4:	a0 01       	movw	r20, r0
     3e6:	29 9f       	mul	r18, r25
     3e8:	50 0d       	add	r21, r0
     3ea:	11 24       	eor	r1, r1

000003ec <.Loc.79>:
     3ec:	2c e9       	ldi	r18, 0x9C	; 156
     3ee:	3f ef       	ldi	r19, 0xFF	; 255
     3f0:	ca 01       	movw	r24, r20
     3f2:	b9 01       	movw	r22, r18
     3f4:	0e 94 92 1f 	call	0x3f24	; 0x3f24 <__divmodhi4>
     3f8:	cb 01       	movw	r24, r22
     3fa:	9c 01       	movw	r18, r24

000003fc <.Loc.80>:
     3fc:	88 e4       	ldi	r24, 0x48	; 72
     3fe:	90 e0       	ldi	r25, 0x00	; 0

00000400 <.Loc.81>:
     400:	fc 01       	movw	r30, r24
     402:	20 83       	st	Z, r18

00000404 <.L16>:
}
     404:	00 00       	nop
     406:	0f 90       	pop	r0
     408:	df 91       	pop	r29
     40a:	cf 91       	pop	r28
     40c:	08 95       	ret

0000040e <init>:

char DisplayState = 'None';


void init (void)
{
     40e:	cf 93       	push	r28
     410:	df 93       	push	r29
     412:	cd b7       	in	r28, 0x3d	; 61
     414:	de b7       	in	r29, 0x3e	; 62

00000416 <.Loc.84>:
    init_h_bridge();                        //MAMMA MIA I MAKE-A DA MOTORS WORKE
     416:	0e 94 7a 01 	call	0x2f4	; 0x2f4 <init_h_bridge>

0000041a <.Loc.85>:
    DDRB &=  ~(1<<PB7)&~(1<<PB6)&~(1<<PB5)&~(1<<PB4); // Config the 4 LEDs
     41a:	84 e2       	ldi	r24, 0x24	; 36
     41c:	90 e0       	ldi	r25, 0x00	; 0
     41e:	fc 01       	movw	r30, r24
     420:	20 81       	ld	r18, Z

00000422 <.Loc.86>:
     422:	84 e2       	ldi	r24, 0x24	; 36
     424:	90 e0       	ldi	r25, 0x00	; 0

00000426 <.Loc.87>:
     426:	2f 70       	andi	r18, 0x0F	; 15
     428:	fc 01       	movw	r30, r24
     42a:	20 83       	st	Z, r18

0000042c <.Loc.88>:
    PORTB |=  (1<<PB7)|(1<<PB6)|(1<<PB5)|(1<<PB4);//turn em off
     42c:	85 e2       	ldi	r24, 0x25	; 37
     42e:	90 e0       	ldi	r25, 0x00	; 0
     430:	fc 01       	movw	r30, r24
     432:	20 81       	ld	r18, Z
     434:	85 e2       	ldi	r24, 0x25	; 37
     436:	90 e0       	ldi	r25, 0x00	; 0

00000438 <.Loc.89>:
     438:	20 6f       	ori	r18, 0xF0	; 240
     43a:	fc 01       	movw	r30, r24
     43c:	20 83       	st	Z, r18

0000043e <.Loc.90>:

    DDRA |= (1<< RelaisX) | (1<<RelaisY) | (1<<RelaisZ) | (1<<RelaisMagnet);    // Config the Relais ports (X,Y,Z, Magnet.)
     43e:	81 e2       	ldi	r24, 0x21	; 33
     440:	90 e0       	ldi	r25, 0x00	; 0
     442:	fc 01       	movw	r30, r24
     444:	20 81       	ld	r18, Z
     446:	81 e2       	ldi	r24, 0x21	; 33
     448:	90 e0       	ldi	r25, 0x00	; 0

0000044a <.Loc.91>:
     44a:	27 61       	ori	r18, 0x17	; 23
     44c:	fc 01       	movw	r30, r24
     44e:	20 83       	st	Z, r18

00000450 <.Loc.92>:
    PORTA |= (1<< RelaisX) | (1<<RelaisY) | (1<<RelaisZ) | (1<<RelaisMagnet);   //Zet ze standaard uit?
     450:	82 e2       	ldi	r24, 0x22	; 34
     452:	90 e0       	ldi	r25, 0x00	; 0
     454:	fc 01       	movw	r30, r24
     456:	20 81       	ld	r18, Z
     458:	82 e2       	ldi	r24, 0x22	; 34
     45a:	90 e0       	ldi	r25, 0x00	; 0

0000045c <.Loc.93>:
     45c:	27 61       	ori	r18, 0x17	; 23
     45e:	fc 01       	movw	r30, r24
     460:	20 83       	st	Z, r18

00000462 <.Loc.94>:


    DDRL |= ~(1<< (min | plus | swatch | confirm) ); //Config CUSTOM buttons
     462:	8a e0       	ldi	r24, 0x0A	; 10
     464:	91 e0       	ldi	r25, 0x01	; 1
     466:	fc 01       	movw	r30, r24
     468:	80 81       	ld	r24, Z

0000046a <.Loc.95>:
     46a:	28 2f       	mov	r18, r24
     46c:	2f 67       	ori	r18, 0x7F	; 127

0000046e <.Loc.96>:
     46e:	8a e0       	ldi	r24, 0x0A	; 10
     470:	91 e0       	ldi	r25, 0x01	; 1

00000472 <.Loc.97>:
     472:	fc 01       	movw	r30, r24
     474:	20 83       	st	Z, r18

00000476 <.Loc.98>:
    DDRD |= (1<< (ReSwitch) ); //Noodstop Reset Ding (Damn You Z-As!)
     476:	8a e2       	ldi	r24, 0x2A	; 42
     478:	90 e0       	ldi	r25, 0x00	; 0
     47a:	fc 01       	movw	r30, r24
     47c:	20 81       	ld	r18, Z
     47e:	8a e2       	ldi	r24, 0x2A	; 42
     480:	90 e0       	ldi	r25, 0x00	; 0

00000482 <.Loc.99>:
     482:	21 60       	ori	r18, 0x01	; 1
     484:	fc 01       	movw	r30, r24
     486:	20 83       	st	Z, r18

00000488 <.Loc.100>:
    DDRC |= ~(1<< (Xdetect | Ydetect | Xend | Yend | Zend) ); //Declare de pins voor de microswitches
     488:	87 e2       	ldi	r24, 0x27	; 39
     48a:	90 e0       	ldi	r25, 0x00	; 0
     48c:	fc 01       	movw	r30, r24
     48e:	80 81       	ld	r24, Z

00000490 <.Loc.101>:
     490:	28 2f       	mov	r18, r24
     492:	2f 67       	ori	r18, 0x7F	; 127

00000494 <.Loc.102>:
     494:	87 e2       	ldi	r24, 0x27	; 39
     496:	90 e0       	ldi	r25, 0x00	; 0

00000498 <.Loc.103>:
     498:	fc 01       	movw	r30, r24
     49a:	20 83       	st	Z, r18

0000049c <.Loc.104>:




	// Initialiseer de pinnen voor datain (D8=PH5), shiftclk (D7=PH4) en latchclk (D4=PG5) als output
	DDRH |= (1 << PH5) | (1 << PH4);
     49c:	81 e0       	ldi	r24, 0x01	; 1
     49e:	91 e0       	ldi	r25, 0x01	; 1
     4a0:	fc 01       	movw	r30, r24
     4a2:	20 81       	ld	r18, Z
     4a4:	81 e0       	ldi	r24, 0x01	; 1
     4a6:	91 e0       	ldi	r25, 0x01	; 1

000004a8 <.Loc.105>:
     4a8:	20 63       	ori	r18, 0x30	; 48
     4aa:	fc 01       	movw	r30, r24
     4ac:	20 83       	st	Z, r18

000004ae <.Loc.106>:
	DDRG |= (1 << PG5);
     4ae:	83 e3       	ldi	r24, 0x33	; 51
     4b0:	90 e0       	ldi	r25, 0x00	; 0
     4b2:	fc 01       	movw	r30, r24
     4b4:	20 81       	ld	r18, Z
     4b6:	83 e3       	ldi	r24, 0x33	; 51
     4b8:	90 e0       	ldi	r25, 0x00	; 0

000004ba <.Loc.107>:
     4ba:	20 62       	ori	r18, 0x20	; 32
     4bc:	fc 01       	movw	r30, r24
     4be:	20 83       	st	Z, r18

000004c0 <.Loc.108>:

	// Maak shiftclk en latchclk laag
	PORTH &= ~(1 << PH4);
     4c0:	82 e0       	ldi	r24, 0x02	; 2
     4c2:	91 e0       	ldi	r25, 0x01	; 1
     4c4:	fc 01       	movw	r30, r24
     4c6:	20 81       	ld	r18, Z

000004c8 <.Loc.109>:
     4c8:	82 e0       	ldi	r24, 0x02	; 2
     4ca:	91 e0       	ldi	r25, 0x01	; 1

000004cc <.Loc.110>:
     4cc:	2f 7e       	andi	r18, 0xEF	; 239
     4ce:	fc 01       	movw	r30, r24
     4d0:	20 83       	st	Z, r18

000004d2 <.Loc.111>:
	PORTG &= ~(1 << PG5);
     4d2:	84 e3       	ldi	r24, 0x34	; 52
     4d4:	90 e0       	ldi	r25, 0x00	; 0
     4d6:	fc 01       	movw	r30, r24
     4d8:	20 81       	ld	r18, Z

000004da <.Loc.112>:
     4da:	84 e3       	ldi	r24, 0x34	; 52
     4dc:	90 e0       	ldi	r25, 0x00	; 0

000004de <.Loc.113>:
     4de:	2f 7d       	andi	r18, 0xDF	; 223
     4e0:	fc 01       	movw	r30, r24
     4e2:	20 83       	st	Z, r18

000004e4 <.Loc.114>:

	TCCR4A = 0;								// set entire TCCR1A register to 0
     4e4:	80 ea       	ldi	r24, 0xA0	; 160
     4e6:	90 e0       	ldi	r25, 0x00	; 0

000004e8 <.Loc.115>:
     4e8:	fc 01       	movw	r30, r24
     4ea:	10 82       	st	Z, r1

000004ec <.Loc.116>:
	TCCR4B = 0;								// same for TCCR1B
     4ec:	81 ea       	ldi	r24, 0xA1	; 161
     4ee:	90 e0       	ldi	r25, 0x00	; 0

000004f0 <.Loc.117>:
     4f0:	fc 01       	movw	r30, r24
     4f2:	10 82       	st	Z, r1

000004f4 <.Loc.118>:
	TCNT4 = 0;								// initialize counter value to 0
     4f4:	84 ea       	ldi	r24, 0xA4	; 164
     4f6:	90 e0       	ldi	r25, 0x00	; 0

000004f8 <.Loc.119>:
     4f8:	fc 01       	movw	r30, r24
     4fa:	11 82       	std	Z+1, r1	; 0x01
     4fc:	10 82       	st	Z, r1

000004fe <.Loc.120>:

	OCR4A = 1500;							// = (16*10^6) / (1*1024) - 1 / 2 (must be <65536) set compare match register for 2hz increments
     4fe:	88 ea       	ldi	r24, 0xA8	; 168
     500:	90 e0       	ldi	r25, 0x00	; 0

00000502 <.Loc.121>:
     502:	2c ed       	ldi	r18, 0xDC	; 220
     504:	35 e0       	ldi	r19, 0x05	; 5
     506:	fc 01       	movw	r30, r24
     508:	31 83       	std	Z+1, r19	; 0x01
     50a:	20 83       	st	Z, r18

0000050c <.Loc.122>:
	TCCR4B |= (1 << WGM12);					// turn on CTC mode
     50c:	81 ea       	ldi	r24, 0xA1	; 161
     50e:	90 e0       	ldi	r25, 0x00	; 0
     510:	fc 01       	movw	r30, r24
     512:	20 81       	ld	r18, Z
     514:	81 ea       	ldi	r24, 0xA1	; 161
     516:	90 e0       	ldi	r25, 0x00	; 0

00000518 <.Loc.123>:
     518:	28 60       	ori	r18, 0x08	; 8
     51a:	fc 01       	movw	r30, r24
     51c:	20 83       	st	Z, r18

0000051e <.Loc.124>:
	TCCR4B |= (1 << CS12) | (1 << CS10);	// Set CS12 and CS10 bits for 1024 prescaler
     51e:	81 ea       	ldi	r24, 0xA1	; 161
     520:	90 e0       	ldi	r25, 0x00	; 0
     522:	fc 01       	movw	r30, r24
     524:	20 81       	ld	r18, Z
     526:	81 ea       	ldi	r24, 0xA1	; 161
     528:	90 e0       	ldi	r25, 0x00	; 0

0000052a <.Loc.125>:
     52a:	25 60       	ori	r18, 0x05	; 5
     52c:	fc 01       	movw	r30, r24
     52e:	20 83       	st	Z, r18

00000530 <.Loc.126>:
	TIMSK4 |= (1 << OCIE4A);				// enable timer compare interrupt
     530:	82 e7       	ldi	r24, 0x72	; 114
     532:	90 e0       	ldi	r25, 0x00	; 0
     534:	fc 01       	movw	r30, r24
     536:	20 81       	ld	r18, Z
     538:	82 e7       	ldi	r24, 0x72	; 114
     53a:	90 e0       	ldi	r25, 0x00	; 0

0000053c <.Loc.127>:
     53c:	22 60       	ori	r18, 0x02	; 2
     53e:	fc 01       	movw	r30, r24
     540:	20 83       	st	Z, r18

00000542 <.Loc.128>:

	sei();      // allow interrupts
     542:	78 94       	sei

00000544 <.Loc.129>:
}
     544:	00 00       	nop
     546:	df 91       	pop	r29
     548:	cf 91       	pop	r28
     54a:	08 95       	ret

0000054c <send_data>:

void send_data(char data)
{
     54c:	cf 93       	push	r28
     54e:	df 93       	push	r29
     550:	00 d0       	rcall	.+0      	; 0x552 <L0^A>

00000552 <L0^A>:
     552:	0f 92       	push	r0
     554:	cd b7       	in	r28, 0x3d	; 61
     556:	de b7       	in	r29, 0x3e	; 62
     558:	8c 83       	std	Y+4, r24	; 0x04

0000055a <.Loc.131>:
	char data_new = data;
     55a:	8c 81       	ldd	r24, Y+4	; 0x04
     55c:	89 83       	std	Y+1, r24	; 0x01

0000055e <.LBB144>:
	// Herhaal voor alle bits in een char
	for (char i = 0; i < 8; i++)
     55e:	1a 82       	std	Y+2, r1	; 0x02

00000560 <.Loc.133>:
     560:	32 c0       	rjmp	.+100    	; 0x5c6 <.L19>

00000562 <.L22>:
	{
		// Bepaal de waarde van de bit die je naar het schuifregister
		// wil sturen
		char mask = data_new & 1;
     562:	89 81       	ldd	r24, Y+1	; 0x01
     564:	81 70       	andi	r24, 0x01	; 1
     566:	8b 83       	std	Y+3, r24	; 0x03

00000568 <.Loc.135>:

		// Maak de juiste pin hoog of laag op basis van de bepaalde waarde
		// van het bit
		if (mask > 0) {
     568:	8b 81       	ldd	r24, Y+3	; 0x03
     56a:	88 23       	and	r24, r24
     56c:	59 f0       	breq	.+22     	; 0x584 <.L20>
     56e:	54 f0       	brlt	.+20     	; 0x584 <.L20>

00000570 <.Loc.136>:
			//send 1
			PORTH |= (1 << PH5);
     570:	82 e0       	ldi	r24, 0x02	; 2
     572:	91 e0       	ldi	r25, 0x01	; 1
     574:	fc 01       	movw	r30, r24
     576:	20 81       	ld	r18, Z
     578:	82 e0       	ldi	r24, 0x02	; 2
     57a:	91 e0       	ldi	r25, 0x01	; 1

0000057c <.Loc.137>:
     57c:	20 62       	ori	r18, 0x20	; 32
     57e:	fc 01       	movw	r30, r24
     580:	20 83       	st	Z, r18
     582:	09 c0       	rjmp	.+18     	; 0x596 <.L21>

00000584 <.L20>:
		} else {
			//send 0
			PORTH &= ~(1 << PH5);
     584:	82 e0       	ldi	r24, 0x02	; 2
     586:	91 e0       	ldi	r25, 0x01	; 1
     588:	fc 01       	movw	r30, r24
     58a:	20 81       	ld	r18, Z

0000058c <.Loc.139>:
     58c:	82 e0       	ldi	r24, 0x02	; 2
     58e:	91 e0       	ldi	r25, 0x01	; 1

00000590 <.Loc.140>:
     590:	2f 7d       	andi	r18, 0xDF	; 223
     592:	fc 01       	movw	r30, r24
     594:	20 83       	st	Z, r18

00000596 <.L21>:
		}

		// Toggle shiftclk (hoeveel tijd moest het signaal minimaal hoog zijn?)
		PORTH |= (1 << PH4);
     596:	82 e0       	ldi	r24, 0x02	; 2
     598:	91 e0       	ldi	r25, 0x01	; 1
     59a:	fc 01       	movw	r30, r24
     59c:	20 81       	ld	r18, Z
     59e:	82 e0       	ldi	r24, 0x02	; 2
     5a0:	91 e0       	ldi	r25, 0x01	; 1

000005a2 <.Loc.142>:
     5a2:	20 61       	ori	r18, 0x10	; 16
     5a4:	fc 01       	movw	r30, r24
     5a6:	20 83       	st	Z, r18

000005a8 <.Loc.143>:
		PORTH &= ~(1 << PH4);
     5a8:	82 e0       	ldi	r24, 0x02	; 2
     5aa:	91 e0       	ldi	r25, 0x01	; 1
     5ac:	fc 01       	movw	r30, r24
     5ae:	20 81       	ld	r18, Z

000005b0 <.Loc.144>:
     5b0:	82 e0       	ldi	r24, 0x02	; 2
     5b2:	91 e0       	ldi	r25, 0x01	; 1

000005b4 <.Loc.145>:
     5b4:	2f 7e       	andi	r18, 0xEF	; 239
     5b6:	fc 01       	movw	r30, r24
     5b8:	20 83       	st	Z, r18

000005ba <.Loc.146>:

		data_new >>= 1;
     5ba:	89 81       	ldd	r24, Y+1	; 0x01
     5bc:	85 95       	asr	r24
     5be:	89 83       	std	Y+1, r24	; 0x01

000005c0 <.LBE145>:
	for (char i = 0; i < 8; i++)
     5c0:	8a 81       	ldd	r24, Y+2	; 0x02
     5c2:	8f 5f       	subi	r24, 0xFF	; 255
     5c4:	8a 83       	std	Y+2, r24	; 0x02

000005c6 <.L19>:
     5c6:	8a 81       	ldd	r24, Y+2	; 0x02
     5c8:	87 30       	cpi	r24, 0x07	; 7
     5ca:	59 f2       	breq	.-106    	; 0x562 <.L22>
     5cc:	54 f2       	brlt	.-108    	; 0x562 <.L22>

000005ce <.LBE144>:
	}
}
     5ce:	00 00       	nop
     5d0:	00 00       	nop
     5d2:	0f 90       	pop	r0
     5d4:	0f 90       	pop	r0
     5d6:	0f 90       	pop	r0
     5d8:	0f 90       	pop	r0
     5da:	df 91       	pop	r29
     5dc:	cf 91       	pop	r28
     5de:	08 95       	ret

000005e0 <send_enable>:

void send_enable(char num)
{
     5e0:	cf 93       	push	r28
     5e2:	df 93       	push	r29
     5e4:	0f 92       	push	r0
     5e6:	cd b7       	in	r28, 0x3d	; 61
     5e8:	de b7       	in	r29, 0x3e	; 62
     5ea:	89 83       	std	Y+1, r24	; 0x01

000005ec <.Loc.151>:
	send_data(0x80 >> num);
     5ec:	89 81       	ldd	r24, Y+1	; 0x01
     5ee:	28 2f       	mov	r18, r24
     5f0:	88 0f       	add	r24, r24
     5f2:	33 0b       	sbc	r19, r19
     5f4:	80 e8       	ldi	r24, 0x80	; 128
     5f6:	90 e0       	ldi	r25, 0x00	; 0
     5f8:	02 c0       	rjmp	.+4      	; 0x5fe <.L2^B1>

000005fa <.L1^B1>:
     5fa:	95 95       	asr	r25
     5fc:	87 95       	ror	r24

000005fe <.L2^B1>:
     5fe:	2a 95       	dec	r18
     600:	e2 f7       	brpl	.-8      	; 0x5fa <.L1^B1>

00000602 <.Loc.152>:
     602:	0e 94 a6 02 	call	0x54c	; 0x54c <send_data>

00000606 <.Loc.153>:
}
     606:	00 00       	nop
     608:	0f 90       	pop	r0
     60a:	df 91       	pop	r29
     60c:	cf 91       	pop	r28
     60e:	08 95       	ret

00000610 <display>:

void display(char data, char num)
{
     610:	cf 93       	push	r28
     612:	df 93       	push	r29
     614:	0f 92       	push	r0
     616:	0f 92       	push	r0
     618:	cd b7       	in	r28, 0x3d	; 61
     61a:	de b7       	in	r29, 0x3e	; 62
     61c:	89 83       	std	Y+1, r24	; 0x01
     61e:	6a 83       	std	Y+2, r22	; 0x02

00000620 <.Loc.155>:
	send_data(data);
     620:	89 81       	ldd	r24, Y+1	; 0x01
     622:	0e 94 a6 02 	call	0x54c	; 0x54c <send_data>

00000626 <.Loc.156>:
	send_enable(num);
     626:	8a 81       	ldd	r24, Y+2	; 0x02
     628:	0e 94 f0 02 	call	0x5e0	; 0x5e0 <send_enable>

0000062c <.Loc.157>:

	// Toggle latchclk (hoeveel tijd moest het signaal minimaal hoog zijn?)
	PORTG |= (1 << PG5);
     62c:	84 e3       	ldi	r24, 0x34	; 52
     62e:	90 e0       	ldi	r25, 0x00	; 0
     630:	fc 01       	movw	r30, r24
     632:	20 81       	ld	r18, Z
     634:	84 e3       	ldi	r24, 0x34	; 52
     636:	90 e0       	ldi	r25, 0x00	; 0

00000638 <.Loc.158>:
     638:	20 62       	ori	r18, 0x20	; 32
     63a:	fc 01       	movw	r30, r24
     63c:	20 83       	st	Z, r18

0000063e <.Loc.159>:
	PORTG &= ~(1 << PG5);
     63e:	84 e3       	ldi	r24, 0x34	; 52
     640:	90 e0       	ldi	r25, 0x00	; 0
     642:	fc 01       	movw	r30, r24
     644:	20 81       	ld	r18, Z

00000646 <.Loc.160>:
     646:	84 e3       	ldi	r24, 0x34	; 52
     648:	90 e0       	ldi	r25, 0x00	; 0

0000064a <.Loc.161>:
     64a:	2f 7d       	andi	r18, 0xDF	; 223
     64c:	fc 01       	movw	r30, r24
     64e:	20 83       	st	Z, r18

00000650 <.Loc.162>:

}
     650:	00 00       	nop
     652:	0f 90       	pop	r0
     654:	0f 90       	pop	r0
     656:	df 91       	pop	r29
     658:	cf 91       	pop	r28
     65a:	08 95       	ret

0000065c <Refresh>:

void Refresh(void) //Refreshes the screen so new numbers can be shown. Better than calling it each time. TBh.
{
     65c:	cf 93       	push	r28
     65e:	df 93       	push	r29
     660:	cd b7       	in	r28, 0x3d	; 61
     662:	de b7       	in	r29, 0x3e	; 62

00000664 <.Loc.164>:
switch (DisplayState){
     664:	80 91 02 02 	lds	r24, 0x0202	; 0x800202 <DisplayState>
     668:	08 2e       	mov	r0, r24
     66a:	00 0c       	add	r0, r0
     66c:	99 0b       	sbc	r25, r25
     66e:	88 35       	cpi	r24, 0x58	; 88
     670:	91 05       	cpc	r25, r1
     672:	21 f0       	breq	.+8      	; 0x67c <.L26>
     674:	89 35       	cpi	r24, 0x59	; 89
     676:	91 05       	cpc	r25, r1
     678:	99 f1       	breq	.+102    	; 0x6e0 <.L27>
     67a:	60 c0       	rjmp	.+192    	; 0x73c <.L28>

0000067c <.L26>:
        display(0xE3, 0);
        display(0xEF, 1);
    break;

    case 'X':
        if(OCR4A % 10 == 0)
     67c:	88 ea       	ldi	r24, 0xA8	; 168
     67e:	90 e0       	ldi	r25, 0x00	; 0
     680:	fc 01       	movw	r30, r24
     682:	40 81       	ld	r20, Z
     684:	51 81       	ldd	r21, Z+1	; 0x01

00000686 <.Loc.166>:
     686:	9a 01       	movw	r18, r20
     688:	ad ec       	ldi	r26, 0xCD	; 205
     68a:	bc ec       	ldi	r27, 0xCC	; 204
     68c:	0e 94 ae 1f 	call	0x3f5c	; 0x3f5c <__umulhisi3>
     690:	9c 01       	movw	r18, r24
     692:	36 95       	lsr	r19
     694:	27 95       	ror	r18
     696:	36 95       	lsr	r19
     698:	27 95       	ror	r18
     69a:	36 95       	lsr	r19
     69c:	27 95       	ror	r18
     69e:	c9 01       	movw	r24, r18
     6a0:	88 0f       	add	r24, r24
     6a2:	99 1f       	adc	r25, r25
     6a4:	88 0f       	add	r24, r24
     6a6:	99 1f       	adc	r25, r25
     6a8:	82 0f       	add	r24, r18
     6aa:	93 1f       	adc	r25, r19
     6ac:	88 0f       	add	r24, r24
     6ae:	99 1f       	adc	r25, r25
     6b0:	9a 01       	movw	r18, r20
     6b2:	28 1b       	sub	r18, r24
     6b4:	39 0b       	sbc	r19, r25

000006b6 <.Loc.167>:
     6b6:	21 15       	cp	r18, r1
     6b8:	31 05       	cpc	r19, r1
     6ba:	49 f4       	brne	.+18     	; 0x6ce <.L29>

000006bc <.Loc.168>:
        {
            display(0xEF, 0);
     6bc:	60 e0       	ldi	r22, 0x00	; 0
     6be:	8f ee       	ldi	r24, 0xEF	; 239
     6c0:	0e 94 08 03 	call	0x610	; 0x610 <display>

000006c4 <.Loc.169>:
            display(0xEF, 1);
     6c4:	61 e0       	ldi	r22, 0x01	; 1
     6c6:	8f ee       	ldi	r24, 0xEF	; 239
     6c8:	0e 94 08 03 	call	0x610	; 0x610 <display>

000006cc <.Loc.170>:
        else
        {
            display(0xE3, 0);
            display(0xEF, 1);
        }
    break;
     6cc:	37 c0       	rjmp	.+110    	; 0x73c <.L28>

000006ce <.L29>:
            display(0xE3, 0);
     6ce:	60 e0       	ldi	r22, 0x00	; 0
     6d0:	83 ee       	ldi	r24, 0xE3	; 227
     6d2:	0e 94 08 03 	call	0x610	; 0x610 <display>

000006d6 <.Loc.172>:
            display(0xEF, 1);
     6d6:	61 e0       	ldi	r22, 0x01	; 1
     6d8:	8f ee       	ldi	r24, 0xEF	; 239
     6da:	0e 94 08 03 	call	0x610	; 0x610 <display>

000006de <.Loc.173>:
    break;
     6de:	2e c0       	rjmp	.+92     	; 0x73c <.L28>

000006e0 <.L27>:

    case 'Y':
        if(OCR4A % 100 == 0) //Also yeah i had to do this this way since else the compiler would scream at me that there are two duplicate cases.
     6e0:	88 ea       	ldi	r24, 0xA8	; 168
     6e2:	90 e0       	ldi	r25, 0x00	; 0
     6e4:	fc 01       	movw	r30, r24
     6e6:	40 81       	ld	r20, Z
     6e8:	51 81       	ldd	r21, Z+1	; 0x01

000006ea <.Loc.175>:
     6ea:	ca 01       	movw	r24, r20
     6ec:	96 95       	lsr	r25
     6ee:	87 95       	ror	r24
     6f0:	96 95       	lsr	r25
     6f2:	87 95       	ror	r24
     6f4:	9c 01       	movw	r18, r24
     6f6:	ab e7       	ldi	r26, 0x7B	; 123
     6f8:	b4 e1       	ldi	r27, 0x14	; 20
     6fa:	0e 94 ae 1f 	call	0x3f5c	; 0x3f5c <__umulhisi3>
     6fe:	96 95       	lsr	r25
     700:	87 95       	ror	r24
     702:	64 e6       	ldi	r22, 0x64	; 100
     704:	68 9f       	mul	r22, r24
     706:	90 01       	movw	r18, r0
     708:	69 9f       	mul	r22, r25
     70a:	30 0d       	add	r19, r0
     70c:	11 24       	eor	r1, r1
     70e:	ca 01       	movw	r24, r20
     710:	82 1b       	sub	r24, r18
     712:	93 0b       	sbc	r25, r19

00000714 <.Loc.176>:
     714:	00 97       	sbiw	r24, 0x00	; 0
     716:	49 f4       	brne	.+18     	; 0x72a <.L31>

00000718 <.Loc.177>:
        {
            display(0xF3, 0);
     718:	60 e0       	ldi	r22, 0x00	; 0
     71a:	83 ef       	ldi	r24, 0xF3	; 243
     71c:	0e 94 08 03 	call	0x610	; 0x610 <display>

00000720 <.Loc.178>:
            display(0xFF, 1);
     720:	61 e0       	ldi	r22, 0x01	; 1
     722:	8f ef       	ldi	r24, 0xFF	; 255
     724:	0e 94 08 03 	call	0x610	; 0x610 <display>

00000728 <.Loc.179>:
        {
            display(0xE3, 0);
            display(0xEF, 1);
        }

    break;
     728:	08 c0       	rjmp	.+16     	; 0x73a <.L33>

0000072a <.L31>:
            display(0xE3, 0);
     72a:	60 e0       	ldi	r22, 0x00	; 0
     72c:	83 ee       	ldi	r24, 0xE3	; 227
     72e:	0e 94 08 03 	call	0x610	; 0x610 <display>

00000732 <.Loc.181>:
            display(0xEF, 1);
     732:	61 e0       	ldi	r22, 0x01	; 1
     734:	8f ee       	ldi	r24, 0xEF	; 239
     736:	0e 94 08 03 	call	0x610	; 0x610 <display>

0000073a <.L33>:
	...

0000073c <.L28>:
        display(0x00, 1); //Lowercase r
    break;

        }

		display(display_set[o], 3);
     73c:	80 91 10 02 	lds	r24, 0x0210	; 0x800210 <o>
     740:	08 2e       	mov	r0, r24
     742:	00 0c       	add	r0, r0
     744:	99 0b       	sbc	r25, r25

00000746 <.Loc.184>:
     746:	8d 5f       	subi	r24, 0xFD	; 253
     748:	9d 4f       	sbci	r25, 0xFD	; 253
     74a:	fc 01       	movw	r30, r24
     74c:	80 81       	ld	r24, Z

0000074e <.Loc.185>:
     74e:	63 e0       	ldi	r22, 0x03	; 3
     750:	0e 94 08 03 	call	0x610	; 0x610 <display>

00000754 <.Loc.186>:
//		display(display_set[t], 2); TOTALLY not needed right now. We only count from 0 to 9 after all!.. Maybe i should also cut the 0...

}
     754:	00 00       	nop
     756:	df 91       	pop	r29
     758:	cf 91       	pop	r28
     75a:	08 95       	ret

0000075c <main>:




int main(void)
{
     75c:	0f 93       	push	r16
     75e:	1f 93       	push	r17
     760:	cf 93       	push	r28
     762:	df 93       	push	r29
     764:	cd b7       	in	r28, 0x3d	; 61
     766:	de b7       	in	r29, 0x3e	; 62
     768:	ce 50       	subi	r28, 0x0E	; 14
     76a:	d3 40       	sbci	r29, 0x03	; 3
     76c:	0f b6       	in	r0, 0x3f	; 63
     76e:	f8 94       	cli
     770:	de bf       	out	0x3e, r29	; 62
     772:	0f be       	out	0x3f, r0	; 63
     774:	cd bf       	out	0x3d, r28	; 61

00000776 <.Loc.188>:
    init();
     776:	0e 94 07 02 	call	0x40e	; 0x40e <init>

0000077a <.L274>:
    while(1){
        //Pre-switch code
                if (PIND & (1 << ReSwitch))  //Noodstop Ding
     77a:	89 e2       	ldi	r24, 0x29	; 41
     77c:	90 e0       	ldi	r25, 0x00	; 0
     77e:	dc 01       	movw	r26, r24
     780:	8c 91       	ld	r24, X

00000782 <.Loc.190>:
     782:	88 2f       	mov	r24, r24
     784:	90 e0       	ldi	r25, 0x00	; 0
     786:	81 70       	andi	r24, 0x01	; 1
     788:	99 27       	eor	r25, r25

0000078a <.Loc.191>:
     78a:	00 97       	sbiw	r24, 0x00	; 0
     78c:	09 f4       	brne	.+2      	; 0x790 <L0^A+0x2>

0000078e <L0^A>:
     78e:	c9 c0       	rjmp	.+402    	; 0x922 <.L35>
     790:	80 e0       	ldi	r24, 0x00	; 0
     792:	90 e0       	ldi	r25, 0x00	; 0
     794:	a0 ef       	ldi	r26, 0xF0	; 240
     796:	b1 e4       	ldi	r27, 0x41	; 65
     798:	89 83       	std	Y+1, r24	; 0x01
     79a:	9a 83       	std	Y+2, r25	; 0x02
     79c:	ab 83       	std	Y+3, r26	; 0x03
     79e:	bc 83       	std	Y+4, r27	; 0x04

000007a0 <.LBB146>:

	__builtin_avr_delay_cycles(__ticks_dc);

#else
	uint16_t __ticks;
	__tmp = ((F_CPU) / 4e3) * __ms;
     7a0:	20 e0       	ldi	r18, 0x00	; 0
     7a2:	30 e0       	ldi	r19, 0x00	; 0
     7a4:	4a e7       	ldi	r20, 0x7A	; 122
     7a6:	55 e4       	ldi	r21, 0x45	; 69
     7a8:	69 81       	ldd	r22, Y+1	; 0x01
     7aa:	7a 81       	ldd	r23, Y+2	; 0x02
     7ac:	8b 81       	ldd	r24, Y+3	; 0x03
     7ae:	9c 81       	ldd	r25, Y+4	; 0x04
     7b0:	0e 94 57 20 	call	0x40ae	; 0x40ae <__mulsf3>
     7b4:	c1 56       	subi	r28, 0x61	; 97
     7b6:	de 4f       	sbci	r29, 0xFE	; 254
     7b8:	68 83       	st	Y, r22
     7ba:	79 83       	std	Y+1, r23	; 0x01
     7bc:	8a 83       	std	Y+2, r24	; 0x02
     7be:	9b 83       	std	Y+3, r25	; 0x03
     7c0:	cf 59       	subi	r28, 0x9F	; 159
     7c2:	d1 40       	sbci	r29, 0x01	; 1
     7c4:	c1 56       	subi	r28, 0x61	; 97
     7c6:	de 4f       	sbci	r29, 0xFE	; 254
     7c8:	28 81       	ld	r18, Y
     7ca:	39 81       	ldd	r19, Y+1	; 0x01
     7cc:	4a 81       	ldd	r20, Y+2	; 0x02
     7ce:	5b 81       	ldd	r21, Y+3	; 0x03
     7d0:	cf 59       	subi	r28, 0x9F	; 159
     7d2:	d1 40       	sbci	r29, 0x01	; 1
     7d4:	2d 83       	std	Y+5, r18	; 0x05
     7d6:	3e 83       	std	Y+6, r19	; 0x06
     7d8:	4f 83       	std	Y+7, r20	; 0x07
     7da:	58 87       	std	Y+8, r21	; 0x08

000007dc <.Loc.193>:
	if (__tmp < 1.0)
     7dc:	20 e0       	ldi	r18, 0x00	; 0
     7de:	30 e0       	ldi	r19, 0x00	; 0
     7e0:	40 e8       	ldi	r20, 0x80	; 128
     7e2:	5f e3       	ldi	r21, 0x3F	; 63
     7e4:	6d 81       	ldd	r22, Y+5	; 0x05
     7e6:	7e 81       	ldd	r23, Y+6	; 0x06
     7e8:	8f 81       	ldd	r24, Y+7	; 0x07
     7ea:	98 85       	ldd	r25, Y+8	; 0x08
     7ec:	0e 94 d1 1f 	call	0x3fa2	; 0x3fa2 <__cmpsf2>
     7f0:	88 23       	and	r24, r24
     7f2:	2c f4       	brge	.+10     	; 0x7fe <.L321>

000007f4 <.Loc.194>:
		__ticks = 1;
     7f4:	81 e0       	ldi	r24, 0x01	; 1
     7f6:	90 e0       	ldi	r25, 0x00	; 0
     7f8:	9a 87       	std	Y+10, r25	; 0x0a
     7fa:	89 87       	std	Y+9, r24	; 0x09
     7fc:	76 c0       	rjmp	.+236    	; 0x8ea <.L38>

000007fe <.L321>:
	else if (__tmp > 65535)
     7fe:	20 e0       	ldi	r18, 0x00	; 0
     800:	3f ef       	ldi	r19, 0xFF	; 255
     802:	4f e7       	ldi	r20, 0x7F	; 127
     804:	57 e4       	ldi	r21, 0x47	; 71
     806:	6d 81       	ldd	r22, Y+5	; 0x05
     808:	7e 81       	ldd	r23, Y+6	; 0x06
     80a:	8f 81       	ldd	r24, Y+7	; 0x07
     80c:	98 85       	ldd	r25, Y+8	; 0x08
     80e:	0e 94 52 20 	call	0x40a4	; 0x40a4 <__gesf2>
     812:	88 23       	and	r24, r24
     814:	09 f0       	breq	.+2      	; 0x818 <L0^A>

00000816 <L0^A>:
     816:	0c f4       	brge	.+2      	; 0x81a <.Loc.196>

00000818 <L0^A>:
     818:	52 c0       	rjmp	.+164    	; 0x8be <.L322>

0000081a <.Loc.196>:
	{
		//	__ticks = requested delay in 1/10 ms
		__ticks = (uint16_t) (__ms * 10.0);
     81a:	20 e0       	ldi	r18, 0x00	; 0
     81c:	30 e0       	ldi	r19, 0x00	; 0
     81e:	40 e2       	ldi	r20, 0x20	; 32
     820:	51 e4       	ldi	r21, 0x41	; 65
     822:	69 81       	ldd	r22, Y+1	; 0x01
     824:	7a 81       	ldd	r23, Y+2	; 0x02
     826:	8b 81       	ldd	r24, Y+3	; 0x03
     828:	9c 81       	ldd	r25, Y+4	; 0x04
     82a:	0e 94 57 20 	call	0x40ae	; 0x40ae <__mulsf3>
     82e:	cd 55       	subi	r28, 0x5D	; 93
     830:	de 4f       	sbci	r29, 0xFE	; 254
     832:	68 83       	st	Y, r22
     834:	79 83       	std	Y+1, r23	; 0x01
     836:	8a 83       	std	Y+2, r24	; 0x02
     838:	9b 83       	std	Y+3, r25	; 0x03
     83a:	c3 5a       	subi	r28, 0xA3	; 163
     83c:	d1 40       	sbci	r29, 0x01	; 1
     83e:	cd 55       	subi	r28, 0x5D	; 93
     840:	de 4f       	sbci	r29, 0xFE	; 254
     842:	88 81       	ld	r24, Y
     844:	99 81       	ldd	r25, Y+1	; 0x01
     846:	aa 81       	ldd	r26, Y+2	; 0x02
     848:	bb 81       	ldd	r27, Y+3	; 0x03
     84a:	c3 5a       	subi	r28, 0xA3	; 163
     84c:	d1 40       	sbci	r29, 0x01	; 1
     84e:	cd 5b       	subi	r28, 0xBD	; 189
     850:	de 4f       	sbci	r29, 0xFE	; 254
     852:	88 83       	st	Y, r24
     854:	99 83       	std	Y+1, r25	; 0x01
     856:	aa 83       	std	Y+2, r26	; 0x02
     858:	bb 83       	std	Y+3, r27	; 0x03
     85a:	c3 54       	subi	r28, 0x43	; 67
     85c:	d1 40       	sbci	r29, 0x01	; 1

0000085e <.Loc.197>:
     85e:	cd 5b       	subi	r28, 0xBD	; 189
     860:	de 4f       	sbci	r29, 0xFE	; 254
     862:	68 81       	ld	r22, Y
     864:	79 81       	ldd	r23, Y+1	; 0x01
     866:	8a 81       	ldd	r24, Y+2	; 0x02
     868:	9b 81       	ldd	r25, Y+3	; 0x03
     86a:	c3 54       	subi	r28, 0x43	; 67
     86c:	d1 40       	sbci	r29, 0x01	; 1
     86e:	0e 94 d6 1f 	call	0x3fac	; 0x3fac <__fixunssfsi>
     872:	c9 55       	subi	r28, 0x59	; 89
     874:	de 4f       	sbci	r29, 0xFE	; 254
     876:	68 83       	st	Y, r22
     878:	79 83       	std	Y+1, r23	; 0x01
     87a:	8a 83       	std	Y+2, r24	; 0x02
     87c:	9b 83       	std	Y+3, r25	; 0x03
     87e:	c7 5a       	subi	r28, 0xA7	; 167
     880:	d1 40       	sbci	r29, 0x01	; 1
     882:	c9 55       	subi	r28, 0x59	; 89
     884:	de 4f       	sbci	r29, 0xFE	; 254
     886:	a8 81       	ld	r26, Y
     888:	b9 81       	ldd	r27, Y+1	; 0x01
     88a:	c7 5a       	subi	r28, 0xA7	; 167
     88c:	d1 40       	sbci	r29, 0x01	; 1
     88e:	ba 87       	std	Y+10, r27	; 0x0a
     890:	a9 87       	std	Y+9, r26	; 0x09

00000892 <.Loc.198>:
		while(__ticks)
     892:	10 c0       	rjmp	.+32     	; 0x8b4 <.L41>

00000894 <.L42>:
     894:	80 e9       	ldi	r24, 0x90	; 144
     896:	91 e0       	ldi	r25, 0x01	; 1
     898:	9c 87       	std	Y+12, r25	; 0x0c
     89a:	8b 87       	std	Y+11, r24	; 0x0b

0000089c <.LBB148>:
		"sbc %B0,__zero_reg__"    "\n\t"
		"brne 1b"
		: "+d" (__count)
	);
#else
	__asm__ volatile (
     89c:	8b 85       	ldd	r24, Y+11	; 0x0b
     89e:	9c 85       	ldd	r25, Y+12	; 0x0c

000008a0 <.L1^B2>:
     8a0:	01 97       	sbiw	r24, 0x01	; 1
     8a2:	f1 f7       	brne	.-4      	; 0x8a0 <.L1^B2>
     8a4:	9c 87       	std	Y+12, r25	; 0x0c
     8a6:	8b 87       	std	Y+11, r24	; 0x0b

000008a8 <.Loc.200>:
	...

000008aa <.LBE148>:
		{
			// wait 1/10 ms
			_delay_loop_2(((F_CPU) / 4e3) / 10);
			__ticks --;
     8aa:	89 85       	ldd	r24, Y+9	; 0x09
     8ac:	9a 85       	ldd	r25, Y+10	; 0x0a
     8ae:	01 97       	sbiw	r24, 0x01	; 1
     8b0:	9a 87       	std	Y+10, r25	; 0x0a
     8b2:	89 87       	std	Y+9, r24	; 0x09

000008b4 <.L41>:
		while(__ticks)
     8b4:	89 85       	ldd	r24, Y+9	; 0x09
     8b6:	9a 85       	ldd	r25, Y+10	; 0x0a
     8b8:	00 97       	sbiw	r24, 0x00	; 0
     8ba:	61 f7       	brne	.-40     	; 0x894 <.L42>

000008bc <.Loc.203>:
		}
		return;
     8bc:	21 c0       	rjmp	.+66     	; 0x900 <.L43>

000008be <.L322>:
	}
	else
		__ticks = (uint16_t)__tmp;
     8be:	6d 81       	ldd	r22, Y+5	; 0x05
     8c0:	7e 81       	ldd	r23, Y+6	; 0x06
     8c2:	8f 81       	ldd	r24, Y+7	; 0x07
     8c4:	98 85       	ldd	r25, Y+8	; 0x08
     8c6:	0e 94 d6 1f 	call	0x3fac	; 0x3fac <__fixunssfsi>
     8ca:	c5 55       	subi	r28, 0x55	; 85
     8cc:	de 4f       	sbci	r29, 0xFE	; 254
     8ce:	68 83       	st	Y, r22
     8d0:	79 83       	std	Y+1, r23	; 0x01
     8d2:	8a 83       	std	Y+2, r24	; 0x02
     8d4:	9b 83       	std	Y+3, r25	; 0x03
     8d6:	cb 5a       	subi	r28, 0xAB	; 171
     8d8:	d1 40       	sbci	r29, 0x01	; 1
     8da:	c5 55       	subi	r28, 0x55	; 85
     8dc:	de 4f       	sbci	r29, 0xFE	; 254
     8de:	e8 81       	ld	r30, Y
     8e0:	f9 81       	ldd	r31, Y+1	; 0x01
     8e2:	cb 5a       	subi	r28, 0xAB	; 171
     8e4:	d1 40       	sbci	r29, 0x01	; 1
     8e6:	fa 87       	std	Y+10, r31	; 0x0a
     8e8:	e9 87       	std	Y+9, r30	; 0x09

000008ea <.L38>:
     8ea:	89 85       	ldd	r24, Y+9	; 0x09
     8ec:	9a 85       	ldd	r25, Y+10	; 0x0a
     8ee:	9e 87       	std	Y+14, r25	; 0x0e
     8f0:	8d 87       	std	Y+13, r24	; 0x0d

000008f2 <.LBB150>:
     8f2:	8d 85       	ldd	r24, Y+13	; 0x0d
     8f4:	9e 85       	ldd	r25, Y+14	; 0x0e

000008f6 <.L1^B3>:
     8f6:	01 97       	sbiw	r24, 0x01	; 1
     8f8:	f1 f7       	brne	.-4      	; 0x8f6 <.L1^B3>
     8fa:	9e 87       	std	Y+14, r25	; 0x0e
     8fc:	8d 87       	std	Y+13, r24	; 0x0d

000008fe <.Loc.206>:
	...

00000900 <.L43>:
                {
                                _delay_ms(30);
                                StepCounterY=n;
     900:	80 91 0e 02 	lds	r24, 0x020E	; 0x80020e <n>
     904:	90 91 0f 02 	lds	r25, 0x020F	; 0x80020f <n+0x1>
     908:	90 93 1d 02 	sts	0x021D, r25	; 0x80021d <StepCounterY+0x1>
     90c:	80 93 1c 02 	sts	0x021C, r24	; 0x80021c <StepCounterY>

00000910 <.Loc.208>:
                                MenuLayer = 10;
     910:	8a e0       	ldi	r24, 0x0A	; 10
     912:	90 e0       	ldi	r25, 0x00	; 0
     914:	90 93 01 02 	sts	0x0201, r25	; 0x800201 <MenuLayer+0x1>
     918:	80 93 00 02 	sts	0x0200, r24	; 0x800200 <MenuLayer>

0000091c <.Loc.209>:
                                DisplayState = 'None';
     91c:	85 e6       	ldi	r24, 0x65	; 101
     91e:	80 93 02 02 	sts	0x0202, r24	; 0x800202 <DisplayState>

00000922 <.L35>:
                }



        	switch(MenuLayer) {
     922:	80 91 00 02 	lds	r24, 0x0200	; 0x800200 <MenuLayer>
     926:	90 91 01 02 	lds	r25, 0x0201	; 0x800201 <MenuLayer+0x1>
     92a:	09 2e       	mov	r0, r25
     92c:	00 0c       	add	r0, r0
     92e:	aa 0b       	sbc	r26, r26
     930:	bb 0b       	sbc	r27, r27
     932:	0a 97       	sbiw	r24, 0x0a	; 10
     934:	a1 09       	sbc	r26, r1
     936:	b1 09       	sbc	r27, r1
     938:	8c 33       	cpi	r24, 0x3C	; 60
     93a:	91 05       	cpc	r25, r1
     93c:	a1 05       	cpc	r26, r1
     93e:	b1 05       	cpc	r27, r1
     940:	19 f0       	breq	.+6      	; 0x948 <L0^A+0x4>

00000942 <L0^A>:
     942:	10 f0       	brcs	.+4      	; 0x948 <L0^A+0x4>

00000944 <L0^A>:
     944:	0c 94 52 1f 	jmp	0x3ea4	; 0x3ea4 <.L44>
     948:	fc 01       	movw	r30, r24
     94a:	88 27       	eor	r24, r24
     94c:	e2 51       	subi	r30, 0x12	; 18
     94e:	ff 4d       	sbci	r31, 0xDF	; 223
     950:	8f 4f       	sbci	r24, 0xFF	; 255
     952:	0c 94 a6 1f 	jmp	0x3f4c	; 0x3f4c <__tablejump2__>

00000956 <.L57>:

                case 10:{ //Home Z
                n=1; Refresh(); //Voor debug purposes, zet het display op: 1
     956:	81 e0       	ldi	r24, 0x01	; 1
     958:	90 e0       	ldi	r25, 0x00	; 0
     95a:	90 93 0f 02 	sts	0x020F, r25	; 0x80020f <n+0x1>
     95e:	80 93 0e 02 	sts	0x020E, r24	; 0x80020e <n>

00000962 <.Loc.212>:
     962:	0e 94 2e 03 	call	0x65c	; 0x65c <Refresh>

00000966 <.Loc.213>:
                PORTA |= (1 << RelaisMagnet);//Magneet Grijpt niet meer
     966:	82 e2       	ldi	r24, 0x22	; 34
     968:	90 e0       	ldi	r25, 0x00	; 0
     96a:	dc 01       	movw	r26, r24
     96c:	2c 91       	ld	r18, X
     96e:	82 e2       	ldi	r24, 0x22	; 34
     970:	90 e0       	ldi	r25, 0x00	; 0

00000972 <.Loc.214>:
     972:	22 60       	ori	r18, 0x02	; 2
     974:	fc 01       	movw	r30, r24
     976:	20 83       	st	Z, r18

00000978 <.Loc.215>:
                PORTB ^= (1 << PB4); //Debug Light Magneet
     978:	85 e2       	ldi	r24, 0x25	; 37
     97a:	90 e0       	ldi	r25, 0x00	; 0
     97c:	dc 01       	movw	r26, r24
     97e:	3c 91       	ld	r19, X
     980:	85 e2       	ldi	r24, 0x25	; 37
     982:	90 e0       	ldi	r25, 0x00	; 0

00000984 <.Loc.216>:
     984:	20 e1       	ldi	r18, 0x10	; 16
     986:	23 27       	eor	r18, r19
     988:	fc 01       	movw	r30, r24
     98a:	20 83       	st	Z, r18

0000098c <.Loc.217>:


                PORTA &= ~(1 << RelaisZ);//Switch relais naar Z-as.
     98c:	82 e2       	ldi	r24, 0x22	; 34
     98e:	90 e0       	ldi	r25, 0x00	; 0
     990:	dc 01       	movw	r26, r24
     992:	2c 91       	ld	r18, X

00000994 <.Loc.218>:
     994:	82 e2       	ldi	r24, 0x22	; 34
     996:	90 e0       	ldi	r25, 0x00	; 0

00000998 <.Loc.219>:
     998:	2f 7e       	andi	r18, 0xEF	; 239
     99a:	fc 01       	movw	r30, r24
     99c:	20 83       	st	Z, r18

0000099e <.Loc.220>:
                PORTB ^= (1 << PB5); //Debug Light Z-as
     99e:	85 e2       	ldi	r24, 0x25	; 37
     9a0:	90 e0       	ldi	r25, 0x00	; 0
     9a2:	dc 01       	movw	r26, r24
     9a4:	3c 91       	ld	r19, X
     9a6:	85 e2       	ldi	r24, 0x25	; 37
     9a8:	90 e0       	ldi	r25, 0x00	; 0

000009aa <.Loc.221>:
     9aa:	20 e2       	ldi	r18, 0x20	; 32
     9ac:	23 27       	eor	r18, r19
     9ae:	fc 01       	movw	r30, r24
     9b0:	20 83       	st	Z, r18

000009b2 <.Loc.222>:
                h_bridge_set_percentage(10); //Zet h-brug voor Z-As
     9b2:	8a e0       	ldi	r24, 0x0A	; 10
     9b4:	0e 94 bd 01 	call	0x37a	; 0x37a <h_bridge_set_percentage>

000009b8 <.Loc.223>:
                    if (PINC & (1 << Zend)) {
     9b8:	86 e2       	ldi	r24, 0x26	; 38
     9ba:	90 e0       	ldi	r25, 0x00	; 0
     9bc:	dc 01       	movw	r26, r24
     9be:	8c 91       	ld	r24, X

000009c0 <.Loc.224>:
     9c0:	88 2f       	mov	r24, r24
     9c2:	90 e0       	ldi	r25, 0x00	; 0
     9c4:	84 70       	andi	r24, 0x04	; 4
     9c6:	99 27       	eor	r25, r25

000009c8 <.Loc.225>:
     9c8:	00 97       	sbiw	r24, 0x00	; 0
     9ca:	11 f4       	brne	.+4      	; 0x9d0 <.Loc.226>

000009cc <L0^A>:
     9cc:	0c 94 58 1f 	jmp	0x3eb0	; 0x3eb0 <.L367>

000009d0 <.Loc.226>:
                        h_bridge_set_percentage(0); //Als de switch geclicked wordt zet hbrug uit.
     9d0:	80 e0       	ldi	r24, 0x00	; 0
     9d2:	0e 94 bd 01 	call	0x37a	; 0x37a <h_bridge_set_percentage>

000009d6 <.Loc.227>:
                        MenuLayer = 11; //was 11
     9d6:	8b e0       	ldi	r24, 0x0B	; 11
     9d8:	90 e0       	ldi	r25, 0x00	; 0
     9da:	90 93 01 02 	sts	0x0201, r25	; 0x800201 <MenuLayer+0x1>
     9de:	80 93 00 02 	sts	0x0200, r24	; 0x800200 <MenuLayer>

000009e2 <.Loc.228>:
                        PORTA |= (1 << RelaisZ);//Switch Relais off of Z-as.
     9e2:	82 e2       	ldi	r24, 0x22	; 34
     9e4:	90 e0       	ldi	r25, 0x00	; 0
     9e6:	fc 01       	movw	r30, r24
     9e8:	20 81       	ld	r18, Z
     9ea:	82 e2       	ldi	r24, 0x22	; 34
     9ec:	90 e0       	ldi	r25, 0x00	; 0

000009ee <.Loc.229>:
     9ee:	20 61       	ori	r18, 0x10	; 16
     9f0:	dc 01       	movw	r26, r24
     9f2:	2c 93       	st	X, r18

000009f4 <.Loc.230>:
                        PORTB ^= (1 << PB5); //Debug Light Z-as
     9f4:	85 e2       	ldi	r24, 0x25	; 37
     9f6:	90 e0       	ldi	r25, 0x00	; 0
     9f8:	fc 01       	movw	r30, r24
     9fa:	30 81       	ld	r19, Z
     9fc:	85 e2       	ldi	r24, 0x25	; 37
     9fe:	90 e0       	ldi	r25, 0x00	; 0

00000a00 <.Loc.231>:
     a00:	20 e2       	ldi	r18, 0x20	; 32
     a02:	23 27       	eor	r18, r19
     a04:	dc 01       	movw	r26, r24
     a06:	2c 93       	st	X, r18

00000a08 <.Loc.232>:
                        }
                }break;
     a08:	0c 94 58 1f 	jmp	0x3eb0	; 0x3eb0 <.L367>

00000a0c <.L56>:

                case 11:{ // Home X
                n=2; Refresh();
     a0c:	82 e0       	ldi	r24, 0x02	; 2
     a0e:	90 e0       	ldi	r25, 0x00	; 0
     a10:	90 93 0f 02 	sts	0x020F, r25	; 0x80020f <n+0x1>
     a14:	80 93 0e 02 	sts	0x020E, r24	; 0x80020e <n>

00000a18 <.Loc.234>:
     a18:	0e 94 2e 03 	call	0x65c	; 0x65c <Refresh>

00000a1c <.Loc.235>:
                PORTA &= ~(1 << RelaisY);//Switch relais naar Y-as. (Eogenijk X-as)
     a1c:	82 e2       	ldi	r24, 0x22	; 34
     a1e:	90 e0       	ldi	r25, 0x00	; 0
     a20:	fc 01       	movw	r30, r24
     a22:	20 81       	ld	r18, Z

00000a24 <.Loc.236>:
     a24:	82 e2       	ldi	r24, 0x22	; 34
     a26:	90 e0       	ldi	r25, 0x00	; 0

00000a28 <.Loc.237>:
     a28:	2b 7f       	andi	r18, 0xFB	; 251
     a2a:	dc 01       	movw	r26, r24
     a2c:	2c 93       	st	X, r18

00000a2e <.Loc.238>:
                PORTB ^= (1 << PB6); //Debug Light Y-as
     a2e:	85 e2       	ldi	r24, 0x25	; 37
     a30:	90 e0       	ldi	r25, 0x00	; 0
     a32:	fc 01       	movw	r30, r24
     a34:	30 81       	ld	r19, Z
     a36:	85 e2       	ldi	r24, 0x25	; 37
     a38:	90 e0       	ldi	r25, 0x00	; 0

00000a3a <.Loc.239>:
     a3a:	20 e4       	ldi	r18, 0x40	; 64
     a3c:	23 27       	eor	r18, r19
     a3e:	dc 01       	movw	r26, r24
     a40:	2c 93       	st	X, r18

00000a42 <.Loc.240>:
                h_bridge_set_percentage(-80); //Zou net wat minder dan 12 moeten zijn.
     a42:	80 eb       	ldi	r24, 0xB0	; 176
     a44:	0e 94 bd 01 	call	0x37a	; 0x37a <h_bridge_set_percentage>

00000a48 <.Loc.241>:

                    if (PINC & (1 << Xend)) {
     a48:	86 e2       	ldi	r24, 0x26	; 38
     a4a:	90 e0       	ldi	r25, 0x00	; 0
     a4c:	fc 01       	movw	r30, r24
     a4e:	80 81       	ld	r24, Z

00000a50 <.Loc.242>:
     a50:	88 2f       	mov	r24, r24
     a52:	90 e0       	ldi	r25, 0x00	; 0
     a54:	80 74       	andi	r24, 0x40	; 64
     a56:	99 27       	eor	r25, r25

00000a58 <.Loc.243>:
     a58:	00 97       	sbiw	r24, 0x00	; 0
     a5a:	11 f4       	brne	.+4      	; 0xa60 <.Loc.244>

00000a5c <L0^A>:
     a5c:	0c 94 5b 1f 	jmp	0x3eb6	; 0x3eb6 <.L368>

00000a60 <.Loc.244>:
                        h_bridge_set_percentage(0);
     a60:	80 e0       	ldi	r24, 0x00	; 0
     a62:	0e 94 bd 01 	call	0x37a	; 0x37a <h_bridge_set_percentage>

00000a66 <.Loc.245>:
                        MenuLayer = 12;
     a66:	8c e0       	ldi	r24, 0x0C	; 12
     a68:	90 e0       	ldi	r25, 0x00	; 0
     a6a:	90 93 01 02 	sts	0x0201, r25	; 0x800201 <MenuLayer+0x1>
     a6e:	80 93 00 02 	sts	0x0200, r24	; 0x800200 <MenuLayer>

00000a72 <.Loc.246>:
                        PORTA |= (1 << RelaisY);//Switch Relais off of X-as.
     a72:	82 e2       	ldi	r24, 0x22	; 34
     a74:	90 e0       	ldi	r25, 0x00	; 0
     a76:	dc 01       	movw	r26, r24
     a78:	2c 91       	ld	r18, X
     a7a:	82 e2       	ldi	r24, 0x22	; 34
     a7c:	90 e0       	ldi	r25, 0x00	; 0

00000a7e <.Loc.247>:
     a7e:	24 60       	ori	r18, 0x04	; 4
     a80:	fc 01       	movw	r30, r24
     a82:	20 83       	st	Z, r18

00000a84 <.Loc.248>:
                        PORTB ^= (1 << PB6); //Debug Light Y-as
     a84:	85 e2       	ldi	r24, 0x25	; 37
     a86:	90 e0       	ldi	r25, 0x00	; 0
     a88:	dc 01       	movw	r26, r24
     a8a:	3c 91       	ld	r19, X
     a8c:	85 e2       	ldi	r24, 0x25	; 37
     a8e:	90 e0       	ldi	r25, 0x00	; 0

00000a90 <.Loc.249>:
     a90:	20 e4       	ldi	r18, 0x40	; 64
     a92:	23 27       	eor	r18, r19
     a94:	fc 01       	movw	r30, r24
     a96:	20 83       	st	Z, r18

00000a98 <.Loc.250>:
                        }
                }break;
     a98:	0c 94 5b 1f 	jmp	0x3eb6	; 0x3eb6 <.L368>

00000a9c <.L55>:

                case 12:{ //Home Y
                n=3;
     a9c:	83 e0       	ldi	r24, 0x03	; 3
     a9e:	90 e0       	ldi	r25, 0x00	; 0
     aa0:	90 93 0f 02 	sts	0x020F, r25	; 0x80020f <n+0x1>
     aa4:	80 93 0e 02 	sts	0x020E, r24	; 0x80020e <n>

00000aa8 <.Loc.252>:
                PORTA &= ~(1 << RelaisX);//Switch relais naar X-as. (Eogenijk y-as)
     aa8:	82 e2       	ldi	r24, 0x22	; 34
     aaa:	90 e0       	ldi	r25, 0x00	; 0
     aac:	dc 01       	movw	r26, r24
     aae:	2c 91       	ld	r18, X

00000ab0 <.Loc.253>:
     ab0:	82 e2       	ldi	r24, 0x22	; 34
     ab2:	90 e0       	ldi	r25, 0x00	; 0

00000ab4 <.Loc.254>:
     ab4:	2e 7f       	andi	r18, 0xFE	; 254
     ab6:	fc 01       	movw	r30, r24
     ab8:	20 83       	st	Z, r18

00000aba <.Loc.255>:
                PORTB ^= (1 << PB7); //Debug Light X-as
     aba:	85 e2       	ldi	r24, 0x25	; 37
     abc:	90 e0       	ldi	r25, 0x00	; 0
     abe:	dc 01       	movw	r26, r24
     ac0:	3c 91       	ld	r19, X
     ac2:	85 e2       	ldi	r24, 0x25	; 37
     ac4:	90 e0       	ldi	r25, 0x00	; 0

00000ac6 <.Loc.256>:
     ac6:	20 e8       	ldi	r18, 0x80	; 128
     ac8:	23 27       	eor	r18, r19
     aca:	fc 01       	movw	r30, r24
     acc:	20 83       	st	Z, r18

00000ace <.Loc.257>:
                h_bridge_set_percentage(-20); //Zou net wat minder dan 12 moeten zijn.
     ace:	8c ee       	ldi	r24, 0xEC	; 236
     ad0:	0e 94 bd 01 	call	0x37a	; 0x37a <h_bridge_set_percentage>

00000ad4 <.Loc.258>:

                    if (PINC & (1 << Yend)) {
     ad4:	86 e2       	ldi	r24, 0x26	; 38
     ad6:	90 e0       	ldi	r25, 0x00	; 0
     ad8:	dc 01       	movw	r26, r24
     ada:	8c 91       	ld	r24, X

00000adc <.Loc.259>:
     adc:	88 2f       	mov	r24, r24
     ade:	90 e0       	ldi	r25, 0x00	; 0
     ae0:	80 71       	andi	r24, 0x10	; 16
     ae2:	99 27       	eor	r25, r25

00000ae4 <.Loc.260>:
     ae4:	00 97       	sbiw	r24, 0x00	; 0
     ae6:	01 f1       	breq	.+64     	; 0xb28 <.L61>

00000ae8 <.Loc.261>:
                        h_bridge_set_percentage(0);
     ae8:	80 e0       	ldi	r24, 0x00	; 0
     aea:	0e 94 bd 01 	call	0x37a	; 0x37a <h_bridge_set_percentage>

00000aee <.Loc.262>:
                        MenuLayer = 20;
     aee:	84 e1       	ldi	r24, 0x14	; 20
     af0:	90 e0       	ldi	r25, 0x00	; 0
     af2:	90 93 01 02 	sts	0x0201, r25	; 0x800201 <MenuLayer+0x1>
     af6:	80 93 00 02 	sts	0x0200, r24	; 0x800200 <MenuLayer>

00000afa <.Loc.263>:
                        PORTA |= (1 << RelaisX);//Switch Relais off of X-as.
     afa:	82 e2       	ldi	r24, 0x22	; 34
     afc:	90 e0       	ldi	r25, 0x00	; 0
     afe:	fc 01       	movw	r30, r24
     b00:	20 81       	ld	r18, Z
     b02:	82 e2       	ldi	r24, 0x22	; 34
     b04:	90 e0       	ldi	r25, 0x00	; 0

00000b06 <.Loc.264>:
     b06:	21 60       	ori	r18, 0x01	; 1
     b08:	dc 01       	movw	r26, r24
     b0a:	2c 93       	st	X, r18

00000b0c <.Loc.265>:
                        PORTB ^= (1 << PB7); //Debug Light X-as
     b0c:	85 e2       	ldi	r24, 0x25	; 37
     b0e:	90 e0       	ldi	r25, 0x00	; 0
     b10:	fc 01       	movw	r30, r24
     b12:	30 81       	ld	r19, Z
     b14:	85 e2       	ldi	r24, 0x25	; 37
     b16:	90 e0       	ldi	r25, 0x00	; 0

00000b18 <.Loc.266>:
     b18:	20 e8       	ldi	r18, 0x80	; 128
     b1a:	23 27       	eor	r18, r19
     b1c:	dc 01       	movw	r26, r24
     b1e:	2c 93       	st	X, r18

00000b20 <.Loc.267>:
                        n=0;
     b20:	10 92 0f 02 	sts	0x020F, r1	; 0x80020f <n+0x1>
     b24:	10 92 0e 02 	sts	0x020E, r1	; 0x80020e <n>

00000b28 <.L61>:
                        }

                Refresh();
     b28:	0e 94 2e 03 	call	0x65c	; 0x65c <Refresh>

00000b2c <.Loc.269>:
                }break;
     b2c:	0c 94 62 1f 	jmp	0x3ec4	; 0x3ec4 <.L59>

00000b30 <.L54>:


                case 20:{ //Select X
                DisplayState = 'X';
     b30:	88 e5       	ldi	r24, 0x58	; 88
     b32:	80 93 02 02 	sts	0x0202, r24	; 0x800202 <DisplayState>

00000b36 <.Loc.271>:

                    if (PINL & (1 << min))
     b36:	89 e0       	ldi	r24, 0x09	; 9
     b38:	91 e0       	ldi	r25, 0x01	; 1
     b3a:	fc 01       	movw	r30, r24
     b3c:	80 81       	ld	r24, Z

00000b3e <.Loc.272>:
     b3e:	88 2f       	mov	r24, r24
     b40:	90 e0       	ldi	r25, 0x00	; 0
     b42:	81 70       	andi	r24, 0x01	; 1
     b44:	99 27       	eor	r25, r25

00000b46 <.Loc.273>:
     b46:	00 97       	sbiw	r24, 0x00	; 0
     b48:	09 f4       	brne	.+2      	; 0xb4c <.Loc.274>

00000b4a <L0^A>:
     b4a:	dd c0       	rjmp	.+442    	; 0xd06 <.L62>

00000b4c <.Loc.274>:
                        {
                            if (knop1_ingedrukt == 0) // knop is niet al eerder ingedrukt
     b4c:	80 91 14 02 	lds	r24, 0x0214	; 0x800214 <knop1_ingedrukt>
     b50:	90 91 15 02 	lds	r25, 0x0215	; 0x800215 <knop1_ingedrukt+0x1>

00000b54 <.Loc.275>:
     b54:	00 97       	sbiw	r24, 0x00	; 0
     b56:	09 f0       	breq	.+2      	; 0xb5a <L0^A+0x2>

00000b58 <L0^A>:
     b58:	99 c1       	rjmp	.+818    	; 0xe8c <.L63>
     b5a:	80 e0       	ldi	r24, 0x00	; 0
     b5c:	90 e0       	ldi	r25, 0x00	; 0
     b5e:	a0 ef       	ldi	r26, 0xF0	; 240
     b60:	b1 e4       	ldi	r27, 0x41	; 65
     b62:	8f 87       	std	Y+15, r24	; 0x0f
     b64:	98 8b       	std	Y+16, r25	; 0x10
     b66:	a9 8b       	std	Y+17, r26	; 0x11
     b68:	ba 8b       	std	Y+18, r27	; 0x12

00000b6a <.LBB152>:
	__tmp = ((F_CPU) / 4e3) * __ms;
     b6a:	20 e0       	ldi	r18, 0x00	; 0
     b6c:	30 e0       	ldi	r19, 0x00	; 0
     b6e:	4a e7       	ldi	r20, 0x7A	; 122
     b70:	55 e4       	ldi	r21, 0x45	; 69
     b72:	6f 85       	ldd	r22, Y+15	; 0x0f
     b74:	78 89       	ldd	r23, Y+16	; 0x10
     b76:	89 89       	ldd	r24, Y+17	; 0x11
     b78:	9a 89       	ldd	r25, Y+18	; 0x12
     b7a:	0e 94 57 20 	call	0x40ae	; 0x40ae <__mulsf3>
     b7e:	c1 55       	subi	r28, 0x51	; 81
     b80:	de 4f       	sbci	r29, 0xFE	; 254
     b82:	68 83       	st	Y, r22
     b84:	79 83       	std	Y+1, r23	; 0x01
     b86:	8a 83       	std	Y+2, r24	; 0x02
     b88:	9b 83       	std	Y+3, r25	; 0x03
     b8a:	cf 5a       	subi	r28, 0xAF	; 175
     b8c:	d1 40       	sbci	r29, 0x01	; 1
     b8e:	c1 55       	subi	r28, 0x51	; 81
     b90:	de 4f       	sbci	r29, 0xFE	; 254
     b92:	28 81       	ld	r18, Y
     b94:	39 81       	ldd	r19, Y+1	; 0x01
     b96:	4a 81       	ldd	r20, Y+2	; 0x02
     b98:	5b 81       	ldd	r21, Y+3	; 0x03
     b9a:	cf 5a       	subi	r28, 0xAF	; 175
     b9c:	d1 40       	sbci	r29, 0x01	; 1
     b9e:	2b 8b       	std	Y+19, r18	; 0x13
     ba0:	3c 8b       	std	Y+20, r19	; 0x14
     ba2:	4d 8b       	std	Y+21, r20	; 0x15
     ba4:	5e 8b       	std	Y+22, r21	; 0x16

00000ba6 <.Loc.277>:
	if (__tmp < 1.0)
     ba6:	20 e0       	ldi	r18, 0x00	; 0
     ba8:	30 e0       	ldi	r19, 0x00	; 0
     baa:	40 e8       	ldi	r20, 0x80	; 128
     bac:	5f e3       	ldi	r21, 0x3F	; 63
     bae:	6b 89       	ldd	r22, Y+19	; 0x13
     bb0:	7c 89       	ldd	r23, Y+20	; 0x14
     bb2:	8d 89       	ldd	r24, Y+21	; 0x15
     bb4:	9e 89       	ldd	r25, Y+22	; 0x16
     bb6:	0e 94 d1 1f 	call	0x3fa2	; 0x3fa2 <__cmpsf2>
     bba:	88 23       	and	r24, r24
     bbc:	2c f4       	brge	.+10     	; 0xbc8 <.L323>

00000bbe <.Loc.278>:
		__ticks = 1;
     bbe:	81 e0       	ldi	r24, 0x01	; 1
     bc0:	90 e0       	ldi	r25, 0x00	; 0
     bc2:	98 8f       	std	Y+24, r25	; 0x18
     bc4:	8f 8b       	std	Y+23, r24	; 0x17
     bc6:	76 c0       	rjmp	.+236    	; 0xcb4 <.L66>

00000bc8 <.L323>:
	else if (__tmp > 65535)
     bc8:	20 e0       	ldi	r18, 0x00	; 0
     bca:	3f ef       	ldi	r19, 0xFF	; 255
     bcc:	4f e7       	ldi	r20, 0x7F	; 127
     bce:	57 e4       	ldi	r21, 0x47	; 71
     bd0:	6b 89       	ldd	r22, Y+19	; 0x13
     bd2:	7c 89       	ldd	r23, Y+20	; 0x14
     bd4:	8d 89       	ldd	r24, Y+21	; 0x15
     bd6:	9e 89       	ldd	r25, Y+22	; 0x16
     bd8:	0e 94 52 20 	call	0x40a4	; 0x40a4 <__gesf2>
     bdc:	88 23       	and	r24, r24
     bde:	09 f0       	breq	.+2      	; 0xbe2 <L0^A>

00000be0 <L0^A>:
     be0:	0c f4       	brge	.+2      	; 0xbe4 <.Loc.280>

00000be2 <L0^A>:
     be2:	52 c0       	rjmp	.+164    	; 0xc88 <.L324>

00000be4 <.Loc.280>:
		__ticks = (uint16_t) (__ms * 10.0);
     be4:	20 e0       	ldi	r18, 0x00	; 0
     be6:	30 e0       	ldi	r19, 0x00	; 0
     be8:	40 e2       	ldi	r20, 0x20	; 32
     bea:	51 e4       	ldi	r21, 0x41	; 65
     bec:	6f 85       	ldd	r22, Y+15	; 0x0f
     bee:	78 89       	ldd	r23, Y+16	; 0x10
     bf0:	89 89       	ldd	r24, Y+17	; 0x11
     bf2:	9a 89       	ldd	r25, Y+18	; 0x12
     bf4:	0e 94 57 20 	call	0x40ae	; 0x40ae <__mulsf3>
     bf8:	cd 54       	subi	r28, 0x4D	; 77
     bfa:	de 4f       	sbci	r29, 0xFE	; 254
     bfc:	68 83       	st	Y, r22
     bfe:	79 83       	std	Y+1, r23	; 0x01
     c00:	8a 83       	std	Y+2, r24	; 0x02
     c02:	9b 83       	std	Y+3, r25	; 0x03
     c04:	c3 5b       	subi	r28, 0xB3	; 179
     c06:	d1 40       	sbci	r29, 0x01	; 1
     c08:	cd 54       	subi	r28, 0x4D	; 77
     c0a:	de 4f       	sbci	r29, 0xFE	; 254
     c0c:	88 81       	ld	r24, Y
     c0e:	99 81       	ldd	r25, Y+1	; 0x01
     c10:	aa 81       	ldd	r26, Y+2	; 0x02
     c12:	bb 81       	ldd	r27, Y+3	; 0x03
     c14:	c3 5b       	subi	r28, 0xB3	; 179
     c16:	d1 40       	sbci	r29, 0x01	; 1
     c18:	c9 5b       	subi	r28, 0xB9	; 185
     c1a:	de 4f       	sbci	r29, 0xFE	; 254
     c1c:	88 83       	st	Y, r24
     c1e:	99 83       	std	Y+1, r25	; 0x01
     c20:	aa 83       	std	Y+2, r26	; 0x02
     c22:	bb 83       	std	Y+3, r27	; 0x03
     c24:	c7 54       	subi	r28, 0x47	; 71
     c26:	d1 40       	sbci	r29, 0x01	; 1

00000c28 <.Loc.281>:
     c28:	c9 5b       	subi	r28, 0xB9	; 185
     c2a:	de 4f       	sbci	r29, 0xFE	; 254
     c2c:	68 81       	ld	r22, Y
     c2e:	79 81       	ldd	r23, Y+1	; 0x01
     c30:	8a 81       	ldd	r24, Y+2	; 0x02
     c32:	9b 81       	ldd	r25, Y+3	; 0x03
     c34:	c7 54       	subi	r28, 0x47	; 71
     c36:	d1 40       	sbci	r29, 0x01	; 1
     c38:	0e 94 d6 1f 	call	0x3fac	; 0x3fac <__fixunssfsi>
     c3c:	c9 54       	subi	r28, 0x49	; 73
     c3e:	de 4f       	sbci	r29, 0xFE	; 254
     c40:	68 83       	st	Y, r22
     c42:	79 83       	std	Y+1, r23	; 0x01
     c44:	8a 83       	std	Y+2, r24	; 0x02
     c46:	9b 83       	std	Y+3, r25	; 0x03
     c48:	c7 5b       	subi	r28, 0xB7	; 183
     c4a:	d1 40       	sbci	r29, 0x01	; 1
     c4c:	c9 54       	subi	r28, 0x49	; 73
     c4e:	de 4f       	sbci	r29, 0xFE	; 254
     c50:	a8 81       	ld	r26, Y
     c52:	b9 81       	ldd	r27, Y+1	; 0x01
     c54:	c7 5b       	subi	r28, 0xB7	; 183
     c56:	d1 40       	sbci	r29, 0x01	; 1
     c58:	b8 8f       	std	Y+24, r27	; 0x18
     c5a:	af 8b       	std	Y+23, r26	; 0x17

00000c5c <.Loc.282>:
		while(__ticks)
     c5c:	10 c0       	rjmp	.+32     	; 0xc7e <.L69>

00000c5e <.L70>:
     c5e:	80 e9       	ldi	r24, 0x90	; 144
     c60:	91 e0       	ldi	r25, 0x01	; 1
     c62:	9a 8f       	std	Y+26, r25	; 0x1a
     c64:	89 8f       	std	Y+25, r24	; 0x19

00000c66 <.LBB154>:
     c66:	89 8d       	ldd	r24, Y+25	; 0x19
     c68:	9a 8d       	ldd	r25, Y+26	; 0x1a

00000c6a <.L1^B4>:
     c6a:	01 97       	sbiw	r24, 0x01	; 1
     c6c:	f1 f7       	brne	.-4      	; 0xc6a <.L1^B4>
     c6e:	9a 8f       	std	Y+26, r25	; 0x1a
     c70:	89 8f       	std	Y+25, r24	; 0x19

00000c72 <.Loc.284>:
	...

00000c74 <.LBE154>:
			__ticks --;
     c74:	8f 89       	ldd	r24, Y+23	; 0x17
     c76:	98 8d       	ldd	r25, Y+24	; 0x18
     c78:	01 97       	sbiw	r24, 0x01	; 1
     c7a:	98 8f       	std	Y+24, r25	; 0x18
     c7c:	8f 8b       	std	Y+23, r24	; 0x17

00000c7e <.L69>:
		while(__ticks)
     c7e:	8f 89       	ldd	r24, Y+23	; 0x17
     c80:	98 8d       	ldd	r25, Y+24	; 0x18
     c82:	00 97       	sbiw	r24, 0x00	; 0
     c84:	61 f7       	brne	.-40     	; 0xc5e <.L70>

00000c86 <.Loc.287>:
		return;
     c86:	21 c0       	rjmp	.+66     	; 0xcca <.L71>

00000c88 <.L324>:
		__ticks = (uint16_t)__tmp;
     c88:	6b 89       	ldd	r22, Y+19	; 0x13
     c8a:	7c 89       	ldd	r23, Y+20	; 0x14
     c8c:	8d 89       	ldd	r24, Y+21	; 0x15
     c8e:	9e 89       	ldd	r25, Y+22	; 0x16
     c90:	0e 94 d6 1f 	call	0x3fac	; 0x3fac <__fixunssfsi>
     c94:	c5 54       	subi	r28, 0x45	; 69
     c96:	de 4f       	sbci	r29, 0xFE	; 254
     c98:	68 83       	st	Y, r22
     c9a:	79 83       	std	Y+1, r23	; 0x01
     c9c:	8a 83       	std	Y+2, r24	; 0x02
     c9e:	9b 83       	std	Y+3, r25	; 0x03
     ca0:	cb 5b       	subi	r28, 0xBB	; 187
     ca2:	d1 40       	sbci	r29, 0x01	; 1
     ca4:	c5 54       	subi	r28, 0x45	; 69
     ca6:	de 4f       	sbci	r29, 0xFE	; 254
     ca8:	e8 81       	ld	r30, Y
     caa:	f9 81       	ldd	r31, Y+1	; 0x01
     cac:	cb 5b       	subi	r28, 0xBB	; 187
     cae:	d1 40       	sbci	r29, 0x01	; 1
     cb0:	f8 8f       	std	Y+24, r31	; 0x18
     cb2:	ef 8b       	std	Y+23, r30	; 0x17

00000cb4 <.L66>:
     cb4:	8f 89       	ldd	r24, Y+23	; 0x17
     cb6:	98 8d       	ldd	r25, Y+24	; 0x18
     cb8:	9c 8f       	std	Y+28, r25	; 0x1c
     cba:	8b 8f       	std	Y+27, r24	; 0x1b

00000cbc <.LBB156>:
     cbc:	8b 8d       	ldd	r24, Y+27	; 0x1b
     cbe:	9c 8d       	ldd	r25, Y+28	; 0x1c

00000cc0 <.L1^B5>:
     cc0:	01 97       	sbiw	r24, 0x01	; 1
     cc2:	f1 f7       	brne	.-4      	; 0xcc0 <.L1^B5>
     cc4:	9c 8f       	std	Y+28, r25	; 0x1c
     cc6:	8b 8f       	std	Y+27, r24	; 0x1b

00000cc8 <.Loc.290>:
	...

00000cca <.L71>:
                            {
                                _delay_ms(30);
                                if (n>0) //Just here to make sure we don't go into the negatives, since those don't work.
     cca:	80 91 0e 02 	lds	r24, 0x020E	; 0x80020e <n>
     cce:	90 91 0f 02 	lds	r25, 0x020F	; 0x80020f <n+0x1>

00000cd2 <.Loc.292>:
     cd2:	00 97       	sbiw	r24, 0x00	; 0
     cd4:	59 f0       	breq	.+22     	; 0xcec <.L72>
     cd6:	54 f0       	brlt	.+20     	; 0xcec <.L72>

00000cd8 <.Loc.293>:
                                    {
                                    n-=1;
     cd8:	80 91 0e 02 	lds	r24, 0x020E	; 0x80020e <n>
     cdc:	90 91 0f 02 	lds	r25, 0x020F	; 0x80020f <n+0x1>
     ce0:	01 97       	sbiw	r24, 0x01	; 1
     ce2:	90 93 0f 02 	sts	0x020F, r25	; 0x80020f <n+0x1>
     ce6:	80 93 0e 02 	sts	0x020E, r24	; 0x80020e <n>
     cea:	06 c0       	rjmp	.+12     	; 0xcf8 <.L73>

00000cec <.L72>:
                                    }
                                else {  //Wraparound Action baybee!
                                        n=8;
     cec:	88 e0       	ldi	r24, 0x08	; 8
     cee:	90 e0       	ldi	r25, 0x00	; 0
     cf0:	90 93 0f 02 	sts	0x020F, r25	; 0x80020f <n+0x1>
     cf4:	80 93 0e 02 	sts	0x020E, r24	; 0x80020e <n>

00000cf8 <.L73>:
                                     }
                                knop1_ingedrukt = 1;
     cf8:	81 e0       	ldi	r24, 0x01	; 1
     cfa:	90 e0       	ldi	r25, 0x00	; 0
     cfc:	90 93 15 02 	sts	0x0215, r25	; 0x800215 <knop1_ingedrukt+0x1>
     d00:	80 93 14 02 	sts	0x0214, r24	; 0x800214 <knop1_ingedrukt>
     d04:	c3 c0       	rjmp	.+390    	; 0xe8c <.L63>

00000d06 <.L62>:
                            }
                        }
                    else
                        {
                        if (knop1_ingedrukt != 0) // knop is zojuist losgelaten
     d06:	80 91 14 02 	lds	r24, 0x0214	; 0x800214 <knop1_ingedrukt>
     d0a:	90 91 15 02 	lds	r25, 0x0215	; 0x800215 <knop1_ingedrukt+0x1>

00000d0e <.Loc.297>:
     d0e:	00 97       	sbiw	r24, 0x00	; 0
     d10:	09 f4       	brne	.+2      	; 0xd14 <L0^A+0x2>

00000d12 <L0^A>:
     d12:	bc c0       	rjmp	.+376    	; 0xe8c <.L63>
     d14:	80 e0       	ldi	r24, 0x00	; 0
     d16:	90 e0       	ldi	r25, 0x00	; 0
     d18:	a0 ef       	ldi	r26, 0xF0	; 240
     d1a:	b1 e4       	ldi	r27, 0x41	; 65
     d1c:	8d 8f       	std	Y+29, r24	; 0x1d
     d1e:	9e 8f       	std	Y+30, r25	; 0x1e
     d20:	af 8f       	std	Y+31, r26	; 0x1f
     d22:	b8 a3       	std	Y+32, r27	; 0x20

00000d24 <.LBB158>:
	__tmp = ((F_CPU) / 4e3) * __ms;
     d24:	20 e0       	ldi	r18, 0x00	; 0
     d26:	30 e0       	ldi	r19, 0x00	; 0
     d28:	4a e7       	ldi	r20, 0x7A	; 122
     d2a:	55 e4       	ldi	r21, 0x45	; 69
     d2c:	6d 8d       	ldd	r22, Y+29	; 0x1d
     d2e:	7e 8d       	ldd	r23, Y+30	; 0x1e
     d30:	8f 8d       	ldd	r24, Y+31	; 0x1f
     d32:	98 a1       	ldd	r25, Y+32	; 0x20
     d34:	0e 94 57 20 	call	0x40ae	; 0x40ae <__mulsf3>
     d38:	c1 54       	subi	r28, 0x41	; 65
     d3a:	de 4f       	sbci	r29, 0xFE	; 254
     d3c:	68 83       	st	Y, r22
     d3e:	79 83       	std	Y+1, r23	; 0x01
     d40:	8a 83       	std	Y+2, r24	; 0x02
     d42:	9b 83       	std	Y+3, r25	; 0x03
     d44:	cf 5b       	subi	r28, 0xBF	; 191
     d46:	d1 40       	sbci	r29, 0x01	; 1
     d48:	c1 54       	subi	r28, 0x41	; 65
     d4a:	de 4f       	sbci	r29, 0xFE	; 254
     d4c:	28 81       	ld	r18, Y
     d4e:	39 81       	ldd	r19, Y+1	; 0x01
     d50:	4a 81       	ldd	r20, Y+2	; 0x02
     d52:	5b 81       	ldd	r21, Y+3	; 0x03
     d54:	cf 5b       	subi	r28, 0xBF	; 191
     d56:	d1 40       	sbci	r29, 0x01	; 1
     d58:	29 a3       	std	Y+33, r18	; 0x21
     d5a:	3a a3       	std	Y+34, r19	; 0x22
     d5c:	4b a3       	std	Y+35, r20	; 0x23
     d5e:	5c a3       	std	Y+36, r21	; 0x24

00000d60 <.Loc.299>:
	if (__tmp < 1.0)
     d60:	20 e0       	ldi	r18, 0x00	; 0
     d62:	30 e0       	ldi	r19, 0x00	; 0
     d64:	40 e8       	ldi	r20, 0x80	; 128
     d66:	5f e3       	ldi	r21, 0x3F	; 63
     d68:	69 a1       	ldd	r22, Y+33	; 0x21
     d6a:	7a a1       	ldd	r23, Y+34	; 0x22
     d6c:	8b a1       	ldd	r24, Y+35	; 0x23
     d6e:	9c a1       	ldd	r25, Y+36	; 0x24
     d70:	0e 94 d1 1f 	call	0x3fa2	; 0x3fa2 <__cmpsf2>
     d74:	88 23       	and	r24, r24
     d76:	2c f4       	brge	.+10     	; 0xd82 <.L325>

00000d78 <.Loc.300>:
		__ticks = 1;
     d78:	81 e0       	ldi	r24, 0x01	; 1
     d7a:	90 e0       	ldi	r25, 0x00	; 0
     d7c:	9e a3       	std	Y+38, r25	; 0x26
     d7e:	8d a3       	std	Y+37, r24	; 0x25
     d80:	76 c0       	rjmp	.+236    	; 0xe6e <.L76>

00000d82 <.L325>:
	else if (__tmp > 65535)
     d82:	20 e0       	ldi	r18, 0x00	; 0
     d84:	3f ef       	ldi	r19, 0xFF	; 255
     d86:	4f e7       	ldi	r20, 0x7F	; 127
     d88:	57 e4       	ldi	r21, 0x47	; 71
     d8a:	69 a1       	ldd	r22, Y+33	; 0x21
     d8c:	7a a1       	ldd	r23, Y+34	; 0x22
     d8e:	8b a1       	ldd	r24, Y+35	; 0x23
     d90:	9c a1       	ldd	r25, Y+36	; 0x24
     d92:	0e 94 52 20 	call	0x40a4	; 0x40a4 <__gesf2>
     d96:	88 23       	and	r24, r24
     d98:	09 f0       	breq	.+2      	; 0xd9c <L0^A>

00000d9a <L0^A>:
     d9a:	0c f4       	brge	.+2      	; 0xd9e <.Loc.302>

00000d9c <L0^A>:
     d9c:	52 c0       	rjmp	.+164    	; 0xe42 <.L326>

00000d9e <.Loc.302>:
		__ticks = (uint16_t) (__ms * 10.0);
     d9e:	20 e0       	ldi	r18, 0x00	; 0
     da0:	30 e0       	ldi	r19, 0x00	; 0
     da2:	40 e2       	ldi	r20, 0x20	; 32
     da4:	51 e4       	ldi	r21, 0x41	; 65
     da6:	6d 8d       	ldd	r22, Y+29	; 0x1d
     da8:	7e 8d       	ldd	r23, Y+30	; 0x1e
     daa:	8f 8d       	ldd	r24, Y+31	; 0x1f
     dac:	98 a1       	ldd	r25, Y+32	; 0x20
     dae:	0e 94 57 20 	call	0x40ae	; 0x40ae <__mulsf3>
     db2:	cd 53       	subi	r28, 0x3D	; 61
     db4:	de 4f       	sbci	r29, 0xFE	; 254
     db6:	68 83       	st	Y, r22
     db8:	79 83       	std	Y+1, r23	; 0x01
     dba:	8a 83       	std	Y+2, r24	; 0x02
     dbc:	9b 83       	std	Y+3, r25	; 0x03
     dbe:	c3 5c       	subi	r28, 0xC3	; 195
     dc0:	d1 40       	sbci	r29, 0x01	; 1
     dc2:	cd 53       	subi	r28, 0x3D	; 61
     dc4:	de 4f       	sbci	r29, 0xFE	; 254
     dc6:	88 81       	ld	r24, Y
     dc8:	99 81       	ldd	r25, Y+1	; 0x01
     dca:	aa 81       	ldd	r26, Y+2	; 0x02
     dcc:	bb 81       	ldd	r27, Y+3	; 0x03
     dce:	c3 5c       	subi	r28, 0xC3	; 195
     dd0:	d1 40       	sbci	r29, 0x01	; 1
     dd2:	c5 5b       	subi	r28, 0xB5	; 181
     dd4:	de 4f       	sbci	r29, 0xFE	; 254
     dd6:	88 83       	st	Y, r24
     dd8:	99 83       	std	Y+1, r25	; 0x01
     dda:	aa 83       	std	Y+2, r26	; 0x02
     ddc:	bb 83       	std	Y+3, r27	; 0x03
     dde:	cb 54       	subi	r28, 0x4B	; 75
     de0:	d1 40       	sbci	r29, 0x01	; 1

00000de2 <.Loc.303>:
     de2:	c5 5b       	subi	r28, 0xB5	; 181
     de4:	de 4f       	sbci	r29, 0xFE	; 254
     de6:	68 81       	ld	r22, Y
     de8:	79 81       	ldd	r23, Y+1	; 0x01
     dea:	8a 81       	ldd	r24, Y+2	; 0x02
     dec:	9b 81       	ldd	r25, Y+3	; 0x03
     dee:	cb 54       	subi	r28, 0x4B	; 75
     df0:	d1 40       	sbci	r29, 0x01	; 1
     df2:	0e 94 d6 1f 	call	0x3fac	; 0x3fac <__fixunssfsi>
     df6:	c9 53       	subi	r28, 0x39	; 57
     df8:	de 4f       	sbci	r29, 0xFE	; 254
     dfa:	68 83       	st	Y, r22
     dfc:	79 83       	std	Y+1, r23	; 0x01
     dfe:	8a 83       	std	Y+2, r24	; 0x02
     e00:	9b 83       	std	Y+3, r25	; 0x03
     e02:	c7 5c       	subi	r28, 0xC7	; 199
     e04:	d1 40       	sbci	r29, 0x01	; 1
     e06:	c9 53       	subi	r28, 0x39	; 57
     e08:	de 4f       	sbci	r29, 0xFE	; 254
     e0a:	a8 81       	ld	r26, Y
     e0c:	b9 81       	ldd	r27, Y+1	; 0x01
     e0e:	c7 5c       	subi	r28, 0xC7	; 199
     e10:	d1 40       	sbci	r29, 0x01	; 1
     e12:	be a3       	std	Y+38, r27	; 0x26
     e14:	ad a3       	std	Y+37, r26	; 0x25

00000e16 <.Loc.304>:
		while(__ticks)
     e16:	10 c0       	rjmp	.+32     	; 0xe38 <.L79>

00000e18 <.L80>:
     e18:	80 e9       	ldi	r24, 0x90	; 144
     e1a:	91 e0       	ldi	r25, 0x01	; 1
     e1c:	98 a7       	std	Y+40, r25	; 0x28
     e1e:	8f a3       	std	Y+39, r24	; 0x27

00000e20 <.LBB160>:
     e20:	8f a1       	ldd	r24, Y+39	; 0x27
     e22:	98 a5       	ldd	r25, Y+40	; 0x28

00000e24 <.L1^B6>:
     e24:	01 97       	sbiw	r24, 0x01	; 1
     e26:	f1 f7       	brne	.-4      	; 0xe24 <.L1^B6>
     e28:	98 a7       	std	Y+40, r25	; 0x28
     e2a:	8f a3       	std	Y+39, r24	; 0x27

00000e2c <.Loc.306>:
	...

00000e2e <.LBE160>:
			__ticks --;
     e2e:	8d a1       	ldd	r24, Y+37	; 0x25
     e30:	9e a1       	ldd	r25, Y+38	; 0x26
     e32:	01 97       	sbiw	r24, 0x01	; 1
     e34:	9e a3       	std	Y+38, r25	; 0x26
     e36:	8d a3       	std	Y+37, r24	; 0x25

00000e38 <.L79>:
		while(__ticks)
     e38:	8d a1       	ldd	r24, Y+37	; 0x25
     e3a:	9e a1       	ldd	r25, Y+38	; 0x26
     e3c:	00 97       	sbiw	r24, 0x00	; 0
     e3e:	61 f7       	brne	.-40     	; 0xe18 <.L80>

00000e40 <.Loc.309>:
		return;
     e40:	21 c0       	rjmp	.+66     	; 0xe84 <.L81>

00000e42 <.L326>:
		__ticks = (uint16_t)__tmp;
     e42:	69 a1       	ldd	r22, Y+33	; 0x21
     e44:	7a a1       	ldd	r23, Y+34	; 0x22
     e46:	8b a1       	ldd	r24, Y+35	; 0x23
     e48:	9c a1       	ldd	r25, Y+36	; 0x24
     e4a:	0e 94 d6 1f 	call	0x3fac	; 0x3fac <__fixunssfsi>
     e4e:	c5 53       	subi	r28, 0x35	; 53
     e50:	de 4f       	sbci	r29, 0xFE	; 254
     e52:	68 83       	st	Y, r22
     e54:	79 83       	std	Y+1, r23	; 0x01
     e56:	8a 83       	std	Y+2, r24	; 0x02
     e58:	9b 83       	std	Y+3, r25	; 0x03
     e5a:	cb 5c       	subi	r28, 0xCB	; 203
     e5c:	d1 40       	sbci	r29, 0x01	; 1
     e5e:	c5 53       	subi	r28, 0x35	; 53
     e60:	de 4f       	sbci	r29, 0xFE	; 254
     e62:	e8 81       	ld	r30, Y
     e64:	f9 81       	ldd	r31, Y+1	; 0x01
     e66:	cb 5c       	subi	r28, 0xCB	; 203
     e68:	d1 40       	sbci	r29, 0x01	; 1
     e6a:	fe a3       	std	Y+38, r31	; 0x26
     e6c:	ed a3       	std	Y+37, r30	; 0x25

00000e6e <.L76>:
     e6e:	8d a1       	ldd	r24, Y+37	; 0x25
     e70:	9e a1       	ldd	r25, Y+38	; 0x26
     e72:	9a a7       	std	Y+42, r25	; 0x2a
     e74:	89 a7       	std	Y+41, r24	; 0x29

00000e76 <.LBB162>:
     e76:	89 a5       	ldd	r24, Y+41	; 0x29
     e78:	9a a5       	ldd	r25, Y+42	; 0x2a

00000e7a <.L1^B7>:
     e7a:	01 97       	sbiw	r24, 0x01	; 1
     e7c:	f1 f7       	brne	.-4      	; 0xe7a <.L1^B7>
     e7e:	9a a7       	std	Y+42, r25	; 0x2a
     e80:	89 a7       	std	Y+41, r24	; 0x29

00000e82 <.Loc.312>:
	...

00000e84 <.L81>:
                            {
                                _delay_ms(30);
                                knop1_ingedrukt = 0;
     e84:	10 92 15 02 	sts	0x0215, r1	; 0x800215 <knop1_ingedrukt+0x1>
     e88:	10 92 14 02 	sts	0x0214, r1	; 0x800214 <knop1_ingedrukt>

00000e8c <.L63>:
                        }




                    if (PINL & (1 << plus))
     e8c:	89 e0       	ldi	r24, 0x09	; 9
     e8e:	91 e0       	ldi	r25, 0x01	; 1
     e90:	dc 01       	movw	r26, r24
     e92:	8c 91       	ld	r24, X

00000e94 <.Loc.315>:
     e94:	88 2f       	mov	r24, r24
     e96:	90 e0       	ldi	r25, 0x00	; 0
     e98:	84 70       	andi	r24, 0x04	; 4
     e9a:	99 27       	eor	r25, r25

00000e9c <.Loc.316>:
     e9c:	00 97       	sbiw	r24, 0x00	; 0
     e9e:	09 f4       	brne	.+2      	; 0xea2 <.Loc.317>

00000ea0 <L0^A>:
     ea0:	dc c0       	rjmp	.+440    	; 0x105a <.L82>

00000ea2 <.Loc.317>:
                        {
                            if (knop3_ingedrukt == 0) // knop is niet al eerder ingedrukt
     ea2:	80 91 18 02 	lds	r24, 0x0218	; 0x800218 <knop3_ingedrukt>
     ea6:	90 91 19 02 	lds	r25, 0x0219	; 0x800219 <knop3_ingedrukt+0x1>

00000eaa <.Loc.318>:
     eaa:	00 97       	sbiw	r24, 0x00	; 0
     eac:	09 f0       	breq	.+2      	; 0xeb0 <L0^A+0x2>

00000eae <L0^A>:
     eae:	dd c1       	rjmp	.+954    	; 0x126a <.L83>
     eb0:	80 e0       	ldi	r24, 0x00	; 0
     eb2:	90 e0       	ldi	r25, 0x00	; 0
     eb4:	a0 ef       	ldi	r26, 0xF0	; 240
     eb6:	b1 e4       	ldi	r27, 0x41	; 65
     eb8:	8b a7       	std	Y+43, r24	; 0x2b
     eba:	9c a7       	std	Y+44, r25	; 0x2c
     ebc:	ad a7       	std	Y+45, r26	; 0x2d
     ebe:	be a7       	std	Y+46, r27	; 0x2e

00000ec0 <.LBB164>:
	__tmp = ((F_CPU) / 4e3) * __ms;
     ec0:	20 e0       	ldi	r18, 0x00	; 0
     ec2:	30 e0       	ldi	r19, 0x00	; 0
     ec4:	4a e7       	ldi	r20, 0x7A	; 122
     ec6:	55 e4       	ldi	r21, 0x45	; 69
     ec8:	6b a5       	ldd	r22, Y+43	; 0x2b
     eca:	7c a5       	ldd	r23, Y+44	; 0x2c
     ecc:	8d a5       	ldd	r24, Y+45	; 0x2d
     ece:	9e a5       	ldd	r25, Y+46	; 0x2e
     ed0:	0e 94 57 20 	call	0x40ae	; 0x40ae <__mulsf3>
     ed4:	c1 53       	subi	r28, 0x31	; 49
     ed6:	de 4f       	sbci	r29, 0xFE	; 254
     ed8:	68 83       	st	Y, r22
     eda:	79 83       	std	Y+1, r23	; 0x01
     edc:	8a 83       	std	Y+2, r24	; 0x02
     ede:	9b 83       	std	Y+3, r25	; 0x03
     ee0:	cf 5c       	subi	r28, 0xCF	; 207
     ee2:	d1 40       	sbci	r29, 0x01	; 1
     ee4:	c1 53       	subi	r28, 0x31	; 49
     ee6:	de 4f       	sbci	r29, 0xFE	; 254
     ee8:	28 81       	ld	r18, Y
     eea:	39 81       	ldd	r19, Y+1	; 0x01
     eec:	4a 81       	ldd	r20, Y+2	; 0x02
     eee:	5b 81       	ldd	r21, Y+3	; 0x03
     ef0:	cf 5c       	subi	r28, 0xCF	; 207
     ef2:	d1 40       	sbci	r29, 0x01	; 1
     ef4:	2f a7       	std	Y+47, r18	; 0x2f
     ef6:	38 ab       	std	Y+48, r19	; 0x30
     ef8:	49 ab       	std	Y+49, r20	; 0x31
     efa:	5a ab       	std	Y+50, r21	; 0x32

00000efc <.Loc.320>:
	if (__tmp < 1.0)
     efc:	20 e0       	ldi	r18, 0x00	; 0
     efe:	30 e0       	ldi	r19, 0x00	; 0
     f00:	40 e8       	ldi	r20, 0x80	; 128
     f02:	5f e3       	ldi	r21, 0x3F	; 63
     f04:	6f a5       	ldd	r22, Y+47	; 0x2f
     f06:	78 a9       	ldd	r23, Y+48	; 0x30
     f08:	89 a9       	ldd	r24, Y+49	; 0x31
     f0a:	9a a9       	ldd	r25, Y+50	; 0x32
     f0c:	0e 94 d1 1f 	call	0x3fa2	; 0x3fa2 <__cmpsf2>
     f10:	88 23       	and	r24, r24
     f12:	2c f4       	brge	.+10     	; 0xf1e <.L327>

00000f14 <.Loc.321>:
		__ticks = 1;
     f14:	81 e0       	ldi	r24, 0x01	; 1
     f16:	90 e0       	ldi	r25, 0x00	; 0
     f18:	9c ab       	std	Y+52, r25	; 0x34
     f1a:	8b ab       	std	Y+51, r24	; 0x33
     f1c:	76 c0       	rjmp	.+236    	; 0x100a <.L86>

00000f1e <.L327>:
	else if (__tmp > 65535)
     f1e:	20 e0       	ldi	r18, 0x00	; 0
     f20:	3f ef       	ldi	r19, 0xFF	; 255
     f22:	4f e7       	ldi	r20, 0x7F	; 127
     f24:	57 e4       	ldi	r21, 0x47	; 71
     f26:	6f a5       	ldd	r22, Y+47	; 0x2f
     f28:	78 a9       	ldd	r23, Y+48	; 0x30
     f2a:	89 a9       	ldd	r24, Y+49	; 0x31
     f2c:	9a a9       	ldd	r25, Y+50	; 0x32
     f2e:	0e 94 52 20 	call	0x40a4	; 0x40a4 <__gesf2>
     f32:	88 23       	and	r24, r24
     f34:	09 f0       	breq	.+2      	; 0xf38 <L0^A>

00000f36 <L0^A>:
     f36:	0c f4       	brge	.+2      	; 0xf3a <.Loc.323>

00000f38 <L0^A>:
     f38:	52 c0       	rjmp	.+164    	; 0xfde <.L328>

00000f3a <.Loc.323>:
		__ticks = (uint16_t) (__ms * 10.0);
     f3a:	20 e0       	ldi	r18, 0x00	; 0
     f3c:	30 e0       	ldi	r19, 0x00	; 0
     f3e:	40 e2       	ldi	r20, 0x20	; 32
     f40:	51 e4       	ldi	r21, 0x41	; 65
     f42:	6b a5       	ldd	r22, Y+43	; 0x2b
     f44:	7c a5       	ldd	r23, Y+44	; 0x2c
     f46:	8d a5       	ldd	r24, Y+45	; 0x2d
     f48:	9e a5       	ldd	r25, Y+46	; 0x2e
     f4a:	0e 94 57 20 	call	0x40ae	; 0x40ae <__mulsf3>
     f4e:	cd 52       	subi	r28, 0x2D	; 45
     f50:	de 4f       	sbci	r29, 0xFE	; 254
     f52:	68 83       	st	Y, r22
     f54:	79 83       	std	Y+1, r23	; 0x01
     f56:	8a 83       	std	Y+2, r24	; 0x02
     f58:	9b 83       	std	Y+3, r25	; 0x03
     f5a:	c3 5d       	subi	r28, 0xD3	; 211
     f5c:	d1 40       	sbci	r29, 0x01	; 1
     f5e:	cd 52       	subi	r28, 0x2D	; 45
     f60:	de 4f       	sbci	r29, 0xFE	; 254
     f62:	88 81       	ld	r24, Y
     f64:	99 81       	ldd	r25, Y+1	; 0x01
     f66:	aa 81       	ldd	r26, Y+2	; 0x02
     f68:	bb 81       	ldd	r27, Y+3	; 0x03
     f6a:	c3 5d       	subi	r28, 0xD3	; 211
     f6c:	d1 40       	sbci	r29, 0x01	; 1
     f6e:	c1 5b       	subi	r28, 0xB1	; 177
     f70:	de 4f       	sbci	r29, 0xFE	; 254
     f72:	88 83       	st	Y, r24
     f74:	99 83       	std	Y+1, r25	; 0x01
     f76:	aa 83       	std	Y+2, r26	; 0x02
     f78:	bb 83       	std	Y+3, r27	; 0x03
     f7a:	cf 54       	subi	r28, 0x4F	; 79
     f7c:	d1 40       	sbci	r29, 0x01	; 1

00000f7e <.Loc.324>:
     f7e:	c1 5b       	subi	r28, 0xB1	; 177
     f80:	de 4f       	sbci	r29, 0xFE	; 254
     f82:	68 81       	ld	r22, Y
     f84:	79 81       	ldd	r23, Y+1	; 0x01
     f86:	8a 81       	ldd	r24, Y+2	; 0x02
     f88:	9b 81       	ldd	r25, Y+3	; 0x03
     f8a:	cf 54       	subi	r28, 0x4F	; 79
     f8c:	d1 40       	sbci	r29, 0x01	; 1
     f8e:	0e 94 d6 1f 	call	0x3fac	; 0x3fac <__fixunssfsi>
     f92:	c9 52       	subi	r28, 0x29	; 41
     f94:	de 4f       	sbci	r29, 0xFE	; 254
     f96:	68 83       	st	Y, r22
     f98:	79 83       	std	Y+1, r23	; 0x01
     f9a:	8a 83       	std	Y+2, r24	; 0x02
     f9c:	9b 83       	std	Y+3, r25	; 0x03
     f9e:	c7 5d       	subi	r28, 0xD7	; 215
     fa0:	d1 40       	sbci	r29, 0x01	; 1
     fa2:	c9 52       	subi	r28, 0x29	; 41
     fa4:	de 4f       	sbci	r29, 0xFE	; 254
     fa6:	a8 81       	ld	r26, Y
     fa8:	b9 81       	ldd	r27, Y+1	; 0x01
     faa:	c7 5d       	subi	r28, 0xD7	; 215
     fac:	d1 40       	sbci	r29, 0x01	; 1
     fae:	bc ab       	std	Y+52, r27	; 0x34
     fb0:	ab ab       	std	Y+51, r26	; 0x33

00000fb2 <.Loc.325>:
		while(__ticks)
     fb2:	10 c0       	rjmp	.+32     	; 0xfd4 <.L89>

00000fb4 <.L90>:
     fb4:	80 e9       	ldi	r24, 0x90	; 144
     fb6:	91 e0       	ldi	r25, 0x01	; 1
     fb8:	9e ab       	std	Y+54, r25	; 0x36
     fba:	8d ab       	std	Y+53, r24	; 0x35

00000fbc <.LBB166>:
     fbc:	8d a9       	ldd	r24, Y+53	; 0x35
     fbe:	9e a9       	ldd	r25, Y+54	; 0x36

00000fc0 <.L1^B8>:
     fc0:	01 97       	sbiw	r24, 0x01	; 1
     fc2:	f1 f7       	brne	.-4      	; 0xfc0 <.L1^B8>
     fc4:	9e ab       	std	Y+54, r25	; 0x36
     fc6:	8d ab       	std	Y+53, r24	; 0x35

00000fc8 <.Loc.327>:
	...

00000fca <.LBE166>:
			__ticks --;
     fca:	8b a9       	ldd	r24, Y+51	; 0x33
     fcc:	9c a9       	ldd	r25, Y+52	; 0x34
     fce:	01 97       	sbiw	r24, 0x01	; 1
     fd0:	9c ab       	std	Y+52, r25	; 0x34
     fd2:	8b ab       	std	Y+51, r24	; 0x33

00000fd4 <.L89>:
		while(__ticks)
     fd4:	8b a9       	ldd	r24, Y+51	; 0x33
     fd6:	9c a9       	ldd	r25, Y+52	; 0x34
     fd8:	00 97       	sbiw	r24, 0x00	; 0
     fda:	61 f7       	brne	.-40     	; 0xfb4 <.L90>

00000fdc <.Loc.330>:
		return;
     fdc:	21 c0       	rjmp	.+66     	; 0x1020 <.L91>

00000fde <.L328>:
		__ticks = (uint16_t)__tmp;
     fde:	6f a5       	ldd	r22, Y+47	; 0x2f
     fe0:	78 a9       	ldd	r23, Y+48	; 0x30
     fe2:	89 a9       	ldd	r24, Y+49	; 0x31
     fe4:	9a a9       	ldd	r25, Y+50	; 0x32
     fe6:	0e 94 d6 1f 	call	0x3fac	; 0x3fac <__fixunssfsi>
     fea:	c5 52       	subi	r28, 0x25	; 37
     fec:	de 4f       	sbci	r29, 0xFE	; 254
     fee:	68 83       	st	Y, r22
     ff0:	79 83       	std	Y+1, r23	; 0x01
     ff2:	8a 83       	std	Y+2, r24	; 0x02
     ff4:	9b 83       	std	Y+3, r25	; 0x03
     ff6:	cb 5d       	subi	r28, 0xDB	; 219
     ff8:	d1 40       	sbci	r29, 0x01	; 1
     ffa:	c5 52       	subi	r28, 0x25	; 37
     ffc:	de 4f       	sbci	r29, 0xFE	; 254
     ffe:	e8 81       	ld	r30, Y
    1000:	f9 81       	ldd	r31, Y+1	; 0x01
    1002:	cb 5d       	subi	r28, 0xDB	; 219
    1004:	d1 40       	sbci	r29, 0x01	; 1
    1006:	fc ab       	std	Y+52, r31	; 0x34
    1008:	eb ab       	std	Y+51, r30	; 0x33

0000100a <.L86>:
    100a:	8b a9       	ldd	r24, Y+51	; 0x33
    100c:	9c a9       	ldd	r25, Y+52	; 0x34
    100e:	98 af       	std	Y+56, r25	; 0x38
    1010:	8f ab       	std	Y+55, r24	; 0x37

00001012 <.LBB168>:
    1012:	8f a9       	ldd	r24, Y+55	; 0x37
    1014:	98 ad       	ldd	r25, Y+56	; 0x38

00001016 <.L1^B9>:
    1016:	01 97       	sbiw	r24, 0x01	; 1
    1018:	f1 f7       	brne	.-4      	; 0x1016 <.L1^B9>
    101a:	98 af       	std	Y+56, r25	; 0x38
    101c:	8f ab       	std	Y+55, r24	; 0x37

0000101e <.Loc.333>:
	...

00001020 <.L91>:
                            {
                                _delay_ms(30);


                                if (n<8) //Just here to make sure we do [] go into the [pos]itives, since those [] work.
    1020:	80 91 0e 02 	lds	r24, 0x020E	; 0x80020e <n>
    1024:	90 91 0f 02 	lds	r25, 0x020F	; 0x80020f <n+0x1>

00001028 <.Loc.335>:
    1028:	87 30       	cpi	r24, 0x07	; 7
    102a:	91 05       	cpc	r25, r1
    102c:	09 f0       	breq	.+2      	; 0x1030 <.Loc.336>

0000102e <L0^A>:
    102e:	54 f4       	brge	.+20     	; 0x1044 <.L92>

00001030 <.Loc.336>:
                                    {
                                    n+=1;
    1030:	80 91 0e 02 	lds	r24, 0x020E	; 0x80020e <n>
    1034:	90 91 0f 02 	lds	r25, 0x020F	; 0x80020f <n+0x1>
    1038:	01 96       	adiw	r24, 0x01	; 1
    103a:	90 93 0f 02 	sts	0x020F, r25	; 0x80020f <n+0x1>
    103e:	80 93 0e 02 	sts	0x020E, r24	; 0x80020e <n>
    1042:	04 c0       	rjmp	.+8      	; 0x104c <.L93>

00001044 <.L92>:
                                    }
                                else {  //Wraparound Action baybee!
                                        n=0;
    1044:	10 92 0f 02 	sts	0x020F, r1	; 0x80020f <n+0x1>
    1048:	10 92 0e 02 	sts	0x020E, r1	; 0x80020e <n>

0000104c <.L93>:
                                     }
                                knop3_ingedrukt = 1;
    104c:	81 e0       	ldi	r24, 0x01	; 1
    104e:	90 e0       	ldi	r25, 0x00	; 0
    1050:	90 93 19 02 	sts	0x0219, r25	; 0x800219 <knop3_ingedrukt+0x1>
    1054:	80 93 18 02 	sts	0x0218, r24	; 0x800218 <knop3_ingedrukt>
    1058:	08 c1       	rjmp	.+528    	; 0x126a <.L83>

0000105a <.L82>:
                            }
                        }
                    else
                        {
                        if (knop3_ingedrukt != 0) // knop is zojuist losgelaten
    105a:	80 91 18 02 	lds	r24, 0x0218	; 0x800218 <knop3_ingedrukt>
    105e:	90 91 19 02 	lds	r25, 0x0219	; 0x800219 <knop3_ingedrukt+0x1>

00001062 <.Loc.340>:
    1062:	00 97       	sbiw	r24, 0x00	; 0
    1064:	09 f4       	brne	.+2      	; 0x1068 <L0^A+0x2>

00001066 <L0^A>:
    1066:	01 c1       	rjmp	.+514    	; 0x126a <.L83>
    1068:	80 e0       	ldi	r24, 0x00	; 0
    106a:	90 e0       	ldi	r25, 0x00	; 0
    106c:	a0 ef       	ldi	r26, 0xF0	; 240
    106e:	b1 e4       	ldi	r27, 0x41	; 65
    1070:	89 af       	std	Y+57, r24	; 0x39
    1072:	9a af       	std	Y+58, r25	; 0x3a
    1074:	ab af       	std	Y+59, r26	; 0x3b
    1076:	bc af       	std	Y+60, r27	; 0x3c

00001078 <.LBB170>:
	__tmp = ((F_CPU) / 4e3) * __ms;
    1078:	20 e0       	ldi	r18, 0x00	; 0
    107a:	30 e0       	ldi	r19, 0x00	; 0
    107c:	4a e7       	ldi	r20, 0x7A	; 122
    107e:	55 e4       	ldi	r21, 0x45	; 69
    1080:	69 ad       	ldd	r22, Y+57	; 0x39
    1082:	7a ad       	ldd	r23, Y+58	; 0x3a
    1084:	8b ad       	ldd	r24, Y+59	; 0x3b
    1086:	9c ad       	ldd	r25, Y+60	; 0x3c
    1088:	0e 94 57 20 	call	0x40ae	; 0x40ae <__mulsf3>
    108c:	c1 52       	subi	r28, 0x21	; 33
    108e:	de 4f       	sbci	r29, 0xFE	; 254
    1090:	68 83       	st	Y, r22
    1092:	79 83       	std	Y+1, r23	; 0x01
    1094:	8a 83       	std	Y+2, r24	; 0x02
    1096:	9b 83       	std	Y+3, r25	; 0x03
    1098:	cf 5d       	subi	r28, 0xDF	; 223
    109a:	d1 40       	sbci	r29, 0x01	; 1
    109c:	ce 01       	movw	r24, r28
    109e:	cd 96       	adiw	r24, 0x3d	; 61
    10a0:	c1 52       	subi	r28, 0x21	; 33
    10a2:	de 4f       	sbci	r29, 0xFE	; 254
    10a4:	28 81       	ld	r18, Y
    10a6:	39 81       	ldd	r19, Y+1	; 0x01
    10a8:	4a 81       	ldd	r20, Y+2	; 0x02
    10aa:	5b 81       	ldd	r21, Y+3	; 0x03
    10ac:	cf 5d       	subi	r28, 0xDF	; 223
    10ae:	d1 40       	sbci	r29, 0x01	; 1
    10b0:	dc 01       	movw	r26, r24
    10b2:	2d 93       	st	X+, r18
    10b4:	3d 93       	st	X+, r19
    10b6:	4d 93       	st	X+, r20
    10b8:	5c 93       	st	X, r21
    10ba:	13 97       	sbiw	r26, 0x03	; 3

000010bc <.Loc.342>:
	if (__tmp < 1.0)
    10bc:	20 e0       	ldi	r18, 0x00	; 0
    10be:	30 e0       	ldi	r19, 0x00	; 0
    10c0:	40 e8       	ldi	r20, 0x80	; 128
    10c2:	5f e3       	ldi	r21, 0x3F	; 63
    10c4:	ce 01       	movw	r24, r28
    10c6:	cd 96       	adiw	r24, 0x3d	; 61
    10c8:	fc 01       	movw	r30, r24
    10ca:	60 81       	ld	r22, Z
    10cc:	71 81       	ldd	r23, Z+1	; 0x01
    10ce:	82 81       	ldd	r24, Z+2	; 0x02
    10d0:	93 81       	ldd	r25, Z+3	; 0x03
    10d2:	0e 94 d1 1f 	call	0x3fa2	; 0x3fa2 <__cmpsf2>
    10d6:	88 23       	and	r24, r24
    10d8:	54 f4       	brge	.+20     	; 0x10ee <.L329>

000010da <.Loc.343>:
		__ticks = 1;
    10da:	ce 01       	movw	r24, r28
    10dc:	8f 5b       	subi	r24, 0xBF	; 191
    10de:	9f 4f       	sbci	r25, 0xFF	; 255
    10e0:	21 e0       	ldi	r18, 0x01	; 1
    10e2:	30 e0       	ldi	r19, 0x00	; 0
    10e4:	dc 01       	movw	r26, r24
    10e6:	11 96       	adiw	r26, 0x01	; 1
    10e8:	3c 93       	st	X, r19
    10ea:	2e 93       	st	-X, r18
    10ec:	9f c0       	rjmp	.+318    	; 0x122c <.L96>

000010ee <.L329>:
	else if (__tmp > 65535)
    10ee:	20 e0       	ldi	r18, 0x00	; 0
    10f0:	3f ef       	ldi	r19, 0xFF	; 255
    10f2:	4f e7       	ldi	r20, 0x7F	; 127
    10f4:	57 e4       	ldi	r21, 0x47	; 71
    10f6:	ce 01       	movw	r24, r28
    10f8:	cd 96       	adiw	r24, 0x3d	; 61
    10fa:	fc 01       	movw	r30, r24
    10fc:	60 81       	ld	r22, Z
    10fe:	71 81       	ldd	r23, Z+1	; 0x01
    1100:	82 81       	ldd	r24, Z+2	; 0x02
    1102:	93 81       	ldd	r25, Z+3	; 0x03
    1104:	0e 94 52 20 	call	0x40a4	; 0x40a4 <__gesf2>
    1108:	88 23       	and	r24, r24
    110a:	09 f0       	breq	.+2      	; 0x110e <L0^A>

0000110c <L0^A>:
    110c:	0c f4       	brge	.+2      	; 0x1110 <.Loc.345>

0000110e <L0^A>:
    110e:	71 c0       	rjmp	.+226    	; 0x11f2 <.L330>

00001110 <.Loc.345>:
		__ticks = (uint16_t) (__ms * 10.0);
    1110:	20 e0       	ldi	r18, 0x00	; 0
    1112:	30 e0       	ldi	r19, 0x00	; 0
    1114:	40 e2       	ldi	r20, 0x20	; 32
    1116:	51 e4       	ldi	r21, 0x41	; 65
    1118:	69 ad       	ldd	r22, Y+57	; 0x39
    111a:	7a ad       	ldd	r23, Y+58	; 0x3a
    111c:	8b ad       	ldd	r24, Y+59	; 0x3b
    111e:	9c ad       	ldd	r25, Y+60	; 0x3c
    1120:	0e 94 57 20 	call	0x40ae	; 0x40ae <__mulsf3>
    1124:	cd 51       	subi	r28, 0x1D	; 29
    1126:	de 4f       	sbci	r29, 0xFE	; 254
    1128:	68 83       	st	Y, r22
    112a:	79 83       	std	Y+1, r23	; 0x01
    112c:	8a 83       	std	Y+2, r24	; 0x02
    112e:	9b 83       	std	Y+3, r25	; 0x03
    1130:	c3 5e       	subi	r28, 0xE3	; 227
    1132:	d1 40       	sbci	r29, 0x01	; 1
    1134:	cd 51       	subi	r28, 0x1D	; 29
    1136:	de 4f       	sbci	r29, 0xFE	; 254
    1138:	28 81       	ld	r18, Y
    113a:	39 81       	ldd	r19, Y+1	; 0x01
    113c:	4a 81       	ldd	r20, Y+2	; 0x02
    113e:	5b 81       	ldd	r21, Y+3	; 0x03
    1140:	c3 5e       	subi	r28, 0xE3	; 227
    1142:	d1 40       	sbci	r29, 0x01	; 1
    1144:	cd 5a       	subi	r28, 0xAD	; 173
    1146:	de 4f       	sbci	r29, 0xFE	; 254
    1148:	28 83       	st	Y, r18
    114a:	39 83       	std	Y+1, r19	; 0x01
    114c:	4a 83       	std	Y+2, r20	; 0x02
    114e:	5b 83       	std	Y+3, r21	; 0x03
    1150:	c3 55       	subi	r28, 0x53	; 83
    1152:	d1 40       	sbci	r29, 0x01	; 1

00001154 <.Loc.346>:
    1154:	8e 01       	movw	r16, r28
    1156:	0f 5b       	subi	r16, 0xBF	; 191
    1158:	1f 4f       	sbci	r17, 0xFF	; 255
    115a:	cd 5a       	subi	r28, 0xAD	; 173
    115c:	de 4f       	sbci	r29, 0xFE	; 254
    115e:	68 81       	ld	r22, Y
    1160:	79 81       	ldd	r23, Y+1	; 0x01
    1162:	8a 81       	ldd	r24, Y+2	; 0x02
    1164:	9b 81       	ldd	r25, Y+3	; 0x03
    1166:	c3 55       	subi	r28, 0x53	; 83
    1168:	d1 40       	sbci	r29, 0x01	; 1
    116a:	0e 94 d6 1f 	call	0x3fac	; 0x3fac <__fixunssfsi>
    116e:	c9 51       	subi	r28, 0x19	; 25
    1170:	de 4f       	sbci	r29, 0xFE	; 254
    1172:	68 83       	st	Y, r22
    1174:	79 83       	std	Y+1, r23	; 0x01
    1176:	8a 83       	std	Y+2, r24	; 0x02
    1178:	9b 83       	std	Y+3, r25	; 0x03
    117a:	c7 5e       	subi	r28, 0xE7	; 231
    117c:	d1 40       	sbci	r29, 0x01	; 1
    117e:	c9 51       	subi	r28, 0x19	; 25
    1180:	de 4f       	sbci	r29, 0xFE	; 254
    1182:	e8 81       	ld	r30, Y
    1184:	f9 81       	ldd	r31, Y+1	; 0x01
    1186:	c7 5e       	subi	r28, 0xE7	; 231
    1188:	d1 40       	sbci	r29, 0x01	; 1
    118a:	d8 01       	movw	r26, r16
    118c:	11 96       	adiw	r26, 0x01	; 1
    118e:	fc 93       	st	X, r31
    1190:	ee 93       	st	-X, r30

00001192 <.Loc.347>:
		while(__ticks)
    1192:	26 c0       	rjmp	.+76     	; 0x11e0 <.L99>

00001194 <.L100>:
    1194:	ce 01       	movw	r24, r28
    1196:	8d 5b       	subi	r24, 0xBD	; 189
    1198:	9f 4f       	sbci	r25, 0xFF	; 255
    119a:	20 e9       	ldi	r18, 0x90	; 144
    119c:	31 e0       	ldi	r19, 0x01	; 1
    119e:	dc 01       	movw	r26, r24
    11a0:	2d 93       	st	X+, r18
    11a2:	3c 93       	st	X, r19

000011a4 <.LBB172>:
    11a4:	ce 01       	movw	r24, r28
    11a6:	8d 5b       	subi	r24, 0xBD	; 189
    11a8:	9f 4f       	sbci	r25, 0xFF	; 255
    11aa:	fc 01       	movw	r30, r24
    11ac:	80 81       	ld	r24, Z
    11ae:	91 81       	ldd	r25, Z+1	; 0x01

000011b0 <.L1^B10>:
    11b0:	01 97       	sbiw	r24, 0x01	; 1
    11b2:	f1 f7       	brne	.-4      	; 0x11b0 <.L1^B10>
    11b4:	9e 01       	movw	r18, r28
    11b6:	2d 5b       	subi	r18, 0xBD	; 189
    11b8:	3f 4f       	sbci	r19, 0xFF	; 255
    11ba:	d9 01       	movw	r26, r18
    11bc:	8d 93       	st	X+, r24
    11be:	9c 93       	st	X, r25

000011c0 <.Loc.349>:
	...

000011c2 <.LBE172>:
			__ticks --;
    11c2:	ce 01       	movw	r24, r28
    11c4:	8f 5b       	subi	r24, 0xBF	; 191
    11c6:	9f 4f       	sbci	r25, 0xFF	; 255
    11c8:	9e 01       	movw	r18, r28
    11ca:	2f 5b       	subi	r18, 0xBF	; 191
    11cc:	3f 4f       	sbci	r19, 0xFF	; 255
    11ce:	f9 01       	movw	r30, r18
    11d0:	20 81       	ld	r18, Z
    11d2:	31 81       	ldd	r19, Z+1	; 0x01
    11d4:	21 50       	subi	r18, 0x01	; 1
    11d6:	31 09       	sbc	r19, r1
    11d8:	dc 01       	movw	r26, r24
    11da:	11 96       	adiw	r26, 0x01	; 1
    11dc:	3c 93       	st	X, r19
    11de:	2e 93       	st	-X, r18

000011e0 <.L99>:
		while(__ticks)
    11e0:	ce 01       	movw	r24, r28
    11e2:	8f 5b       	subi	r24, 0xBF	; 191
    11e4:	9f 4f       	sbci	r25, 0xFF	; 255
    11e6:	fc 01       	movw	r30, r24
    11e8:	80 81       	ld	r24, Z
    11ea:	91 81       	ldd	r25, Z+1	; 0x01
    11ec:	00 97       	sbiw	r24, 0x00	; 0
    11ee:	91 f6       	brne	.-92     	; 0x1194 <.L100>

000011f0 <.Loc.352>:
		return;
    11f0:	38 c0       	rjmp	.+112    	; 0x1262 <.L101>

000011f2 <.L330>:
		__ticks = (uint16_t)__tmp;
    11f2:	8e 01       	movw	r16, r28
    11f4:	0f 5b       	subi	r16, 0xBF	; 191
    11f6:	1f 4f       	sbci	r17, 0xFF	; 255
    11f8:	ce 01       	movw	r24, r28
    11fa:	cd 96       	adiw	r24, 0x3d	; 61
    11fc:	dc 01       	movw	r26, r24
    11fe:	6d 91       	ld	r22, X+
    1200:	7d 91       	ld	r23, X+
    1202:	8d 91       	ld	r24, X+
    1204:	9c 91       	ld	r25, X
    1206:	0e 94 d6 1f 	call	0x3fac	; 0x3fac <__fixunssfsi>
    120a:	c5 51       	subi	r28, 0x15	; 21
    120c:	de 4f       	sbci	r29, 0xFE	; 254
    120e:	68 83       	st	Y, r22
    1210:	79 83       	std	Y+1, r23	; 0x01
    1212:	8a 83       	std	Y+2, r24	; 0x02
    1214:	9b 83       	std	Y+3, r25	; 0x03
    1216:	cb 5e       	subi	r28, 0xEB	; 235
    1218:	d1 40       	sbci	r29, 0x01	; 1
    121a:	c5 51       	subi	r28, 0x15	; 21
    121c:	de 4f       	sbci	r29, 0xFE	; 254
    121e:	28 81       	ld	r18, Y
    1220:	39 81       	ldd	r19, Y+1	; 0x01
    1222:	cb 5e       	subi	r28, 0xEB	; 235
    1224:	d1 40       	sbci	r29, 0x01	; 1
    1226:	f8 01       	movw	r30, r16
    1228:	31 83       	std	Z+1, r19	; 0x01
    122a:	20 83       	st	Z, r18

0000122c <.L96>:
    122c:	ce 01       	movw	r24, r28
    122e:	8b 5b       	subi	r24, 0xBB	; 187
    1230:	9f 4f       	sbci	r25, 0xFF	; 255
    1232:	9e 01       	movw	r18, r28
    1234:	2f 5b       	subi	r18, 0xBF	; 191
    1236:	3f 4f       	sbci	r19, 0xFF	; 255
    1238:	d9 01       	movw	r26, r18
    123a:	2d 91       	ld	r18, X+
    123c:	3c 91       	ld	r19, X
    123e:	fc 01       	movw	r30, r24
    1240:	31 83       	std	Z+1, r19	; 0x01
    1242:	20 83       	st	Z, r18

00001244 <.LBB174>:
    1244:	ce 01       	movw	r24, r28
    1246:	8b 5b       	subi	r24, 0xBB	; 187
    1248:	9f 4f       	sbci	r25, 0xFF	; 255
    124a:	dc 01       	movw	r26, r24
    124c:	8d 91       	ld	r24, X+
    124e:	9c 91       	ld	r25, X

00001250 <.L1^B11>:
    1250:	01 97       	sbiw	r24, 0x01	; 1
    1252:	f1 f7       	brne	.-4      	; 0x1250 <.L1^B11>
    1254:	9e 01       	movw	r18, r28
    1256:	2b 5b       	subi	r18, 0xBB	; 187
    1258:	3f 4f       	sbci	r19, 0xFF	; 255
    125a:	f9 01       	movw	r30, r18
    125c:	91 83       	std	Z+1, r25	; 0x01
    125e:	80 83       	st	Z, r24

00001260 <.Loc.355>:
	...

00001262 <.L101>:
                            {
                                _delay_ms(30);
                                knop3_ingedrukt = 0;
    1262:	10 92 19 02 	sts	0x0219, r1	; 0x800219 <knop3_ingedrukt+0x1>
    1266:	10 92 18 02 	sts	0x0218, r1	; 0x800218 <knop3_ingedrukt>

0000126a <.L83>:
                            }
                        }



                     if (PINL & (1 << swatch))  //switcher
    126a:	89 e0       	ldi	r24, 0x09	; 9
    126c:	91 e0       	ldi	r25, 0x01	; 1
    126e:	dc 01       	movw	r26, r24
    1270:	8c 91       	ld	r24, X

00001272 <.Loc.358>:
    1272:	88 2f       	mov	r24, r24
    1274:	90 e0       	ldi	r25, 0x00	; 0
    1276:	80 71       	andi	r24, 0x10	; 16
    1278:	99 27       	eor	r25, r25

0000127a <.Loc.359>:
    127a:	00 97       	sbiw	r24, 0x00	; 0
    127c:	09 f4       	brne	.+2      	; 0x1280 <.Loc.360>

0000127e <L0^A>:
    127e:	32 c1       	rjmp	.+612    	; 0x14e4 <.L102>

00001280 <.Loc.360>:
                        {
                            if (knop2_ingedrukt == 0) // knop is niet al eerder ingedrukt
    1280:	80 91 16 02 	lds	r24, 0x0216	; 0x800216 <knop2_ingedrukt>
    1284:	90 91 17 02 	lds	r25, 0x0217	; 0x800217 <knop2_ingedrukt+0x1>

00001288 <.Loc.361>:
    1288:	00 97       	sbiw	r24, 0x00	; 0
    128a:	09 f0       	breq	.+2      	; 0x128e <L0^A+0x2>

0000128c <L0^A>:
    128c:	43 c2       	rjmp	.+1158   	; 0x1714 <.L103>
    128e:	9e 01       	movw	r18, r28
    1290:	29 5b       	subi	r18, 0xB9	; 185
    1292:	3f 4f       	sbci	r19, 0xFF	; 255
    1294:	80 e0       	ldi	r24, 0x00	; 0
    1296:	90 e0       	ldi	r25, 0x00	; 0
    1298:	a0 ef       	ldi	r26, 0xF0	; 240
    129a:	b1 e4       	ldi	r27, 0x41	; 65
    129c:	f9 01       	movw	r30, r18
    129e:	80 83       	st	Z, r24
    12a0:	91 83       	std	Z+1, r25	; 0x01
    12a2:	a2 83       	std	Z+2, r26	; 0x02
    12a4:	b3 83       	std	Z+3, r27	; 0x03

000012a6 <.LBB176>:
	__tmp = ((F_CPU) / 4e3) * __ms;
    12a6:	8e 01       	movw	r16, r28
    12a8:	05 5b       	subi	r16, 0xB5	; 181
    12aa:	1f 4f       	sbci	r17, 0xFF	; 255
    12ac:	ce 01       	movw	r24, r28
    12ae:	89 5b       	subi	r24, 0xB9	; 185
    12b0:	9f 4f       	sbci	r25, 0xFF	; 255
    12b2:	20 e0       	ldi	r18, 0x00	; 0
    12b4:	30 e0       	ldi	r19, 0x00	; 0
    12b6:	4a e7       	ldi	r20, 0x7A	; 122
    12b8:	55 e4       	ldi	r21, 0x45	; 69
    12ba:	dc 01       	movw	r26, r24
    12bc:	6d 91       	ld	r22, X+
    12be:	7d 91       	ld	r23, X+
    12c0:	8d 91       	ld	r24, X+
    12c2:	9c 91       	ld	r25, X
    12c4:	0e 94 57 20 	call	0x40ae	; 0x40ae <__mulsf3>
    12c8:	c1 51       	subi	r28, 0x11	; 17
    12ca:	de 4f       	sbci	r29, 0xFE	; 254
    12cc:	68 83       	st	Y, r22
    12ce:	79 83       	std	Y+1, r23	; 0x01
    12d0:	8a 83       	std	Y+2, r24	; 0x02
    12d2:	9b 83       	std	Y+3, r25	; 0x03
    12d4:	cf 5e       	subi	r28, 0xEF	; 239
    12d6:	d1 40       	sbci	r29, 0x01	; 1
    12d8:	c1 51       	subi	r28, 0x11	; 17
    12da:	de 4f       	sbci	r29, 0xFE	; 254
    12dc:	28 81       	ld	r18, Y
    12de:	39 81       	ldd	r19, Y+1	; 0x01
    12e0:	4a 81       	ldd	r20, Y+2	; 0x02
    12e2:	5b 81       	ldd	r21, Y+3	; 0x03
    12e4:	cf 5e       	subi	r28, 0xEF	; 239
    12e6:	d1 40       	sbci	r29, 0x01	; 1
    12e8:	d8 01       	movw	r26, r16
    12ea:	2d 93       	st	X+, r18
    12ec:	3d 93       	st	X+, r19
    12ee:	4d 93       	st	X+, r20
    12f0:	5c 93       	st	X, r21
    12f2:	13 97       	sbiw	r26, 0x03	; 3

000012f4 <.Loc.363>:
	if (__tmp < 1.0)
    12f4:	ce 01       	movw	r24, r28
    12f6:	85 5b       	subi	r24, 0xB5	; 181
    12f8:	9f 4f       	sbci	r25, 0xFF	; 255
    12fa:	20 e0       	ldi	r18, 0x00	; 0
    12fc:	30 e0       	ldi	r19, 0x00	; 0
    12fe:	40 e8       	ldi	r20, 0x80	; 128
    1300:	5f e3       	ldi	r21, 0x3F	; 63
    1302:	fc 01       	movw	r30, r24
    1304:	60 81       	ld	r22, Z
    1306:	71 81       	ldd	r23, Z+1	; 0x01
    1308:	82 81       	ldd	r24, Z+2	; 0x02
    130a:	93 81       	ldd	r25, Z+3	; 0x03
    130c:	0e 94 d1 1f 	call	0x3fa2	; 0x3fa2 <__cmpsf2>
    1310:	88 23       	and	r24, r24
    1312:	54 f4       	brge	.+20     	; 0x1328 <.L331>

00001314 <.Loc.364>:
		__ticks = 1;
    1314:	ce 01       	movw	r24, r28
    1316:	81 5b       	subi	r24, 0xB1	; 177
    1318:	9f 4f       	sbci	r25, 0xFF	; 255
    131a:	21 e0       	ldi	r18, 0x01	; 1
    131c:	30 e0       	ldi	r19, 0x00	; 0
    131e:	dc 01       	movw	r26, r24
    1320:	11 96       	adiw	r26, 0x01	; 1
    1322:	3c 93       	st	X, r19
    1324:	2e 93       	st	-X, r18
    1326:	a5 c0       	rjmp	.+330    	; 0x1472 <.L106>

00001328 <.L331>:
	else if (__tmp > 65535)
    1328:	ce 01       	movw	r24, r28
    132a:	85 5b       	subi	r24, 0xB5	; 181
    132c:	9f 4f       	sbci	r25, 0xFF	; 255
    132e:	20 e0       	ldi	r18, 0x00	; 0
    1330:	3f ef       	ldi	r19, 0xFF	; 255
    1332:	4f e7       	ldi	r20, 0x7F	; 127
    1334:	57 e4       	ldi	r21, 0x47	; 71
    1336:	fc 01       	movw	r30, r24
    1338:	60 81       	ld	r22, Z
    133a:	71 81       	ldd	r23, Z+1	; 0x01
    133c:	82 81       	ldd	r24, Z+2	; 0x02
    133e:	93 81       	ldd	r25, Z+3	; 0x03
    1340:	0e 94 52 20 	call	0x40a4	; 0x40a4 <__gesf2>
    1344:	88 23       	and	r24, r24
    1346:	09 f0       	breq	.+2      	; 0x134a <L0^A>

00001348 <L0^A>:
    1348:	0c f4       	brge	.+2      	; 0x134c <.Loc.366>

0000134a <L0^A>:
    134a:	75 c0       	rjmp	.+234    	; 0x1436 <.L332>

0000134c <.Loc.366>:
		__ticks = (uint16_t) (__ms * 10.0);
    134c:	ce 01       	movw	r24, r28
    134e:	89 5b       	subi	r24, 0xB9	; 185
    1350:	9f 4f       	sbci	r25, 0xFF	; 255
    1352:	20 e0       	ldi	r18, 0x00	; 0
    1354:	30 e0       	ldi	r19, 0x00	; 0
    1356:	40 e2       	ldi	r20, 0x20	; 32
    1358:	51 e4       	ldi	r21, 0x41	; 65
    135a:	dc 01       	movw	r26, r24
    135c:	6d 91       	ld	r22, X+
    135e:	7d 91       	ld	r23, X+
    1360:	8d 91       	ld	r24, X+
    1362:	9c 91       	ld	r25, X
    1364:	0e 94 57 20 	call	0x40ae	; 0x40ae <__mulsf3>
    1368:	cd 50       	subi	r28, 0x0D	; 13
    136a:	de 4f       	sbci	r29, 0xFE	; 254
    136c:	68 83       	st	Y, r22
    136e:	79 83       	std	Y+1, r23	; 0x01
    1370:	8a 83       	std	Y+2, r24	; 0x02
    1372:	9b 83       	std	Y+3, r25	; 0x03
    1374:	c3 5f       	subi	r28, 0xF3	; 243
    1376:	d1 40       	sbci	r29, 0x01	; 1
    1378:	cd 50       	subi	r28, 0x0D	; 13
    137a:	de 4f       	sbci	r29, 0xFE	; 254
    137c:	28 81       	ld	r18, Y
    137e:	39 81       	ldd	r19, Y+1	; 0x01
    1380:	4a 81       	ldd	r20, Y+2	; 0x02
    1382:	5b 81       	ldd	r21, Y+3	; 0x03
    1384:	c3 5f       	subi	r28, 0xF3	; 243
    1386:	d1 40       	sbci	r29, 0x01	; 1
    1388:	c9 5a       	subi	r28, 0xA9	; 169
    138a:	de 4f       	sbci	r29, 0xFE	; 254
    138c:	28 83       	st	Y, r18
    138e:	39 83       	std	Y+1, r19	; 0x01
    1390:	4a 83       	std	Y+2, r20	; 0x02
    1392:	5b 83       	std	Y+3, r21	; 0x03
    1394:	c7 55       	subi	r28, 0x57	; 87
    1396:	d1 40       	sbci	r29, 0x01	; 1

00001398 <.Loc.367>:
    1398:	8e 01       	movw	r16, r28
    139a:	01 5b       	subi	r16, 0xB1	; 177
    139c:	1f 4f       	sbci	r17, 0xFF	; 255
    139e:	c9 5a       	subi	r28, 0xA9	; 169
    13a0:	de 4f       	sbci	r29, 0xFE	; 254
    13a2:	68 81       	ld	r22, Y
    13a4:	79 81       	ldd	r23, Y+1	; 0x01
    13a6:	8a 81       	ldd	r24, Y+2	; 0x02
    13a8:	9b 81       	ldd	r25, Y+3	; 0x03
    13aa:	c7 55       	subi	r28, 0x57	; 87
    13ac:	d1 40       	sbci	r29, 0x01	; 1
    13ae:	0e 94 d6 1f 	call	0x3fac	; 0x3fac <__fixunssfsi>
    13b2:	c9 50       	subi	r28, 0x09	; 9
    13b4:	de 4f       	sbci	r29, 0xFE	; 254
    13b6:	68 83       	st	Y, r22
    13b8:	79 83       	std	Y+1, r23	; 0x01
    13ba:	8a 83       	std	Y+2, r24	; 0x02
    13bc:	9b 83       	std	Y+3, r25	; 0x03
    13be:	c7 5f       	subi	r28, 0xF7	; 247
    13c0:	d1 40       	sbci	r29, 0x01	; 1
    13c2:	c9 50       	subi	r28, 0x09	; 9
    13c4:	de 4f       	sbci	r29, 0xFE	; 254
    13c6:	e8 81       	ld	r30, Y
    13c8:	f9 81       	ldd	r31, Y+1	; 0x01
    13ca:	c7 5f       	subi	r28, 0xF7	; 247
    13cc:	d1 40       	sbci	r29, 0x01	; 1
    13ce:	d8 01       	movw	r26, r16
    13d0:	11 96       	adiw	r26, 0x01	; 1
    13d2:	fc 93       	st	X, r31
    13d4:	ee 93       	st	-X, r30

000013d6 <.Loc.368>:
		while(__ticks)
    13d6:	26 c0       	rjmp	.+76     	; 0x1424 <.L109>

000013d8 <.L110>:
    13d8:	ce 01       	movw	r24, r28
    13da:	8f 5a       	subi	r24, 0xAF	; 175
    13dc:	9f 4f       	sbci	r25, 0xFF	; 255
    13de:	20 e9       	ldi	r18, 0x90	; 144
    13e0:	31 e0       	ldi	r19, 0x01	; 1
    13e2:	dc 01       	movw	r26, r24
    13e4:	2d 93       	st	X+, r18
    13e6:	3c 93       	st	X, r19

000013e8 <.LBB178>:
    13e8:	ce 01       	movw	r24, r28
    13ea:	8f 5a       	subi	r24, 0xAF	; 175
    13ec:	9f 4f       	sbci	r25, 0xFF	; 255
    13ee:	fc 01       	movw	r30, r24
    13f0:	80 81       	ld	r24, Z
    13f2:	91 81       	ldd	r25, Z+1	; 0x01

000013f4 <.L1^B12>:
    13f4:	01 97       	sbiw	r24, 0x01	; 1
    13f6:	f1 f7       	brne	.-4      	; 0x13f4 <.L1^B12>
    13f8:	9e 01       	movw	r18, r28
    13fa:	2f 5a       	subi	r18, 0xAF	; 175
    13fc:	3f 4f       	sbci	r19, 0xFF	; 255
    13fe:	d9 01       	movw	r26, r18
    1400:	8d 93       	st	X+, r24
    1402:	9c 93       	st	X, r25

00001404 <.Loc.370>:
	...

00001406 <.LBE178>:
			__ticks --;
    1406:	ce 01       	movw	r24, r28
    1408:	81 5b       	subi	r24, 0xB1	; 177
    140a:	9f 4f       	sbci	r25, 0xFF	; 255
    140c:	9e 01       	movw	r18, r28
    140e:	21 5b       	subi	r18, 0xB1	; 177
    1410:	3f 4f       	sbci	r19, 0xFF	; 255
    1412:	f9 01       	movw	r30, r18
    1414:	20 81       	ld	r18, Z
    1416:	31 81       	ldd	r19, Z+1	; 0x01
    1418:	21 50       	subi	r18, 0x01	; 1
    141a:	31 09       	sbc	r19, r1
    141c:	dc 01       	movw	r26, r24
    141e:	11 96       	adiw	r26, 0x01	; 1
    1420:	3c 93       	st	X, r19
    1422:	2e 93       	st	-X, r18

00001424 <.L109>:
		while(__ticks)
    1424:	ce 01       	movw	r24, r28
    1426:	81 5b       	subi	r24, 0xB1	; 177
    1428:	9f 4f       	sbci	r25, 0xFF	; 255
    142a:	fc 01       	movw	r30, r24
    142c:	80 81       	ld	r24, Z
    142e:	91 81       	ldd	r25, Z+1	; 0x01
    1430:	00 97       	sbiw	r24, 0x00	; 0
    1432:	91 f6       	brne	.-92     	; 0x13d8 <.L110>

00001434 <.Loc.373>:
		return;
    1434:	3a c0       	rjmp	.+116    	; 0x14aa <.L111>

00001436 <.L332>:
		__ticks = (uint16_t)__tmp;
    1436:	8e 01       	movw	r16, r28
    1438:	01 5b       	subi	r16, 0xB1	; 177
    143a:	1f 4f       	sbci	r17, 0xFF	; 255
    143c:	ce 01       	movw	r24, r28
    143e:	85 5b       	subi	r24, 0xB5	; 181
    1440:	9f 4f       	sbci	r25, 0xFF	; 255
    1442:	dc 01       	movw	r26, r24
    1444:	6d 91       	ld	r22, X+
    1446:	7d 91       	ld	r23, X+
    1448:	8d 91       	ld	r24, X+
    144a:	9c 91       	ld	r25, X
    144c:	0e 94 d6 1f 	call	0x3fac	; 0x3fac <__fixunssfsi>
    1450:	c5 50       	subi	r28, 0x05	; 5
    1452:	de 4f       	sbci	r29, 0xFE	; 254
    1454:	68 83       	st	Y, r22
    1456:	79 83       	std	Y+1, r23	; 0x01
    1458:	8a 83       	std	Y+2, r24	; 0x02
    145a:	9b 83       	std	Y+3, r25	; 0x03
    145c:	cb 5f       	subi	r28, 0xFB	; 251
    145e:	d1 40       	sbci	r29, 0x01	; 1
    1460:	c5 50       	subi	r28, 0x05	; 5
    1462:	de 4f       	sbci	r29, 0xFE	; 254
    1464:	28 81       	ld	r18, Y
    1466:	39 81       	ldd	r19, Y+1	; 0x01
    1468:	cb 5f       	subi	r28, 0xFB	; 251
    146a:	d1 40       	sbci	r29, 0x01	; 1
    146c:	f8 01       	movw	r30, r16
    146e:	31 83       	std	Z+1, r19	; 0x01
    1470:	20 83       	st	Z, r18

00001472 <.L106>:
    1472:	ce 01       	movw	r24, r28
    1474:	8d 5a       	subi	r24, 0xAD	; 173
    1476:	9f 4f       	sbci	r25, 0xFF	; 255
    1478:	9e 01       	movw	r18, r28
    147a:	21 5b       	subi	r18, 0xB1	; 177
    147c:	3f 4f       	sbci	r19, 0xFF	; 255
    147e:	d9 01       	movw	r26, r18
    1480:	2d 91       	ld	r18, X+
    1482:	3c 91       	ld	r19, X
    1484:	fc 01       	movw	r30, r24
    1486:	31 83       	std	Z+1, r19	; 0x01
    1488:	20 83       	st	Z, r18

0000148a <.LBB180>:
    148a:	ce 01       	movw	r24, r28
    148c:	8d 5a       	subi	r24, 0xAD	; 173
    148e:	9f 4f       	sbci	r25, 0xFF	; 255
    1490:	dc 01       	movw	r26, r24
    1492:	8d 91       	ld	r24, X+
    1494:	9c 91       	ld	r25, X
    1496:	11 97       	sbiw	r26, 0x01	; 1

00001498 <.L1^B13>:
    1498:	01 97       	sbiw	r24, 0x01	; 1
    149a:	f1 f7       	brne	.-4      	; 0x1498 <.L1^B13>
    149c:	9e 01       	movw	r18, r28
    149e:	2d 5a       	subi	r18, 0xAD	; 173
    14a0:	3f 4f       	sbci	r19, 0xFF	; 255
    14a2:	f9 01       	movw	r30, r18
    14a4:	91 83       	std	Z+1, r25	; 0x01
    14a6:	80 83       	st	Z, r24

000014a8 <.Loc.376>:
	...

000014aa <.L111>:
                            {
                                _delay_ms(30);
                                StepCounterX=n;
    14aa:	80 91 0e 02 	lds	r24, 0x020E	; 0x80020e <n>
    14ae:	90 91 0f 02 	lds	r25, 0x020F	; 0x80020f <n+0x1>
    14b2:	90 93 1f 02 	sts	0x021F, r25	; 0x80021f <StepCounterX+0x1>
    14b6:	80 93 1e 02 	sts	0x021E, r24	; 0x80021e <StepCounterX>

000014ba <.Loc.378>:
                                MenuLayer = 25; //Switch to Y-as
    14ba:	89 e1       	ldi	r24, 0x19	; 25
    14bc:	90 e0       	ldi	r25, 0x00	; 0
    14be:	90 93 01 02 	sts	0x0201, r25	; 0x800201 <MenuLayer+0x1>
    14c2:	80 93 00 02 	sts	0x0200, r24	; 0x800200 <MenuLayer>

000014c6 <.Loc.379>:
                                n=StepCounterY; //New axis starts from 0.
    14c6:	80 91 1c 02 	lds	r24, 0x021C	; 0x80021c <StepCounterY>
    14ca:	90 91 1d 02 	lds	r25, 0x021D	; 0x80021d <StepCounterY+0x1>
    14ce:	90 93 0f 02 	sts	0x020F, r25	; 0x80020f <n+0x1>
    14d2:	80 93 0e 02 	sts	0x020E, r24	; 0x80020e <n>

000014d6 <.Loc.380>:
                                knop2_ingedrukt = 1;
    14d6:	81 e0       	ldi	r24, 0x01	; 1
    14d8:	90 e0       	ldi	r25, 0x00	; 0
    14da:	90 93 17 02 	sts	0x0217, r25	; 0x800217 <knop2_ingedrukt+0x1>
    14de:	80 93 16 02 	sts	0x0216, r24	; 0x800216 <knop2_ingedrukt>
    14e2:	18 c1       	rjmp	.+560    	; 0x1714 <.L103>

000014e4 <.L102>:
                            }
                        }
                    else
                        {
                        if (knop2_ingedrukt != 0) // knop is zojuist losgelaten
    14e4:	80 91 16 02 	lds	r24, 0x0216	; 0x800216 <knop2_ingedrukt>
    14e8:	90 91 17 02 	lds	r25, 0x0217	; 0x800217 <knop2_ingedrukt+0x1>

000014ec <.Loc.382>:
    14ec:	00 97       	sbiw	r24, 0x00	; 0
    14ee:	09 f4       	brne	.+2      	; 0x14f2 <L0^A+0x2>

000014f0 <L0^A>:
    14f0:	11 c1       	rjmp	.+546    	; 0x1714 <.L103>
    14f2:	9e 01       	movw	r18, r28
    14f4:	2b 5a       	subi	r18, 0xAB	; 171
    14f6:	3f 4f       	sbci	r19, 0xFF	; 255
    14f8:	80 e0       	ldi	r24, 0x00	; 0
    14fa:	90 e0       	ldi	r25, 0x00	; 0
    14fc:	a0 ef       	ldi	r26, 0xF0	; 240
    14fe:	b1 e4       	ldi	r27, 0x41	; 65
    1500:	f9 01       	movw	r30, r18
    1502:	80 83       	st	Z, r24
    1504:	91 83       	std	Z+1, r25	; 0x01
    1506:	a2 83       	std	Z+2, r26	; 0x02
    1508:	b3 83       	std	Z+3, r27	; 0x03

0000150a <.LBB182>:
	__tmp = ((F_CPU) / 4e3) * __ms;
    150a:	8e 01       	movw	r16, r28
    150c:	07 5a       	subi	r16, 0xA7	; 167
    150e:	1f 4f       	sbci	r17, 0xFF	; 255
    1510:	ce 01       	movw	r24, r28
    1512:	8b 5a       	subi	r24, 0xAB	; 171
    1514:	9f 4f       	sbci	r25, 0xFF	; 255
    1516:	20 e0       	ldi	r18, 0x00	; 0
    1518:	30 e0       	ldi	r19, 0x00	; 0
    151a:	4a e7       	ldi	r20, 0x7A	; 122
    151c:	55 e4       	ldi	r21, 0x45	; 69
    151e:	dc 01       	movw	r26, r24
    1520:	6d 91       	ld	r22, X+
    1522:	7d 91       	ld	r23, X+
    1524:	8d 91       	ld	r24, X+
    1526:	9c 91       	ld	r25, X
    1528:	0e 94 57 20 	call	0x40ae	; 0x40ae <__mulsf3>
    152c:	c1 50       	subi	r28, 0x01	; 1
    152e:	de 4f       	sbci	r29, 0xFE	; 254
    1530:	68 83       	st	Y, r22
    1532:	79 83       	std	Y+1, r23	; 0x01
    1534:	8a 83       	std	Y+2, r24	; 0x02
    1536:	9b 83       	std	Y+3, r25	; 0x03
    1538:	cf 5f       	subi	r28, 0xFF	; 255
    153a:	d1 40       	sbci	r29, 0x01	; 1
    153c:	c1 50       	subi	r28, 0x01	; 1
    153e:	de 4f       	sbci	r29, 0xFE	; 254
    1540:	28 81       	ld	r18, Y
    1542:	39 81       	ldd	r19, Y+1	; 0x01
    1544:	4a 81       	ldd	r20, Y+2	; 0x02
    1546:	5b 81       	ldd	r21, Y+3	; 0x03
    1548:	cf 5f       	subi	r28, 0xFF	; 255
    154a:	d1 40       	sbci	r29, 0x01	; 1
    154c:	d8 01       	movw	r26, r16
    154e:	2d 93       	st	X+, r18
    1550:	3d 93       	st	X+, r19
    1552:	4d 93       	st	X+, r20
    1554:	5c 93       	st	X, r21
    1556:	13 97       	sbiw	r26, 0x03	; 3

00001558 <.Loc.384>:
	if (__tmp < 1.0)
    1558:	ce 01       	movw	r24, r28
    155a:	87 5a       	subi	r24, 0xA7	; 167
    155c:	9f 4f       	sbci	r25, 0xFF	; 255
    155e:	20 e0       	ldi	r18, 0x00	; 0
    1560:	30 e0       	ldi	r19, 0x00	; 0
    1562:	40 e8       	ldi	r20, 0x80	; 128
    1564:	5f e3       	ldi	r21, 0x3F	; 63
    1566:	fc 01       	movw	r30, r24
    1568:	60 81       	ld	r22, Z
    156a:	71 81       	ldd	r23, Z+1	; 0x01
    156c:	82 81       	ldd	r24, Z+2	; 0x02
    156e:	93 81       	ldd	r25, Z+3	; 0x03
    1570:	0e 94 d1 1f 	call	0x3fa2	; 0x3fa2 <__cmpsf2>
    1574:	88 23       	and	r24, r24
    1576:	54 f4       	brge	.+20     	; 0x158c <.L333>

00001578 <.Loc.385>:
		__ticks = 1;
    1578:	ce 01       	movw	r24, r28
    157a:	83 5a       	subi	r24, 0xA3	; 163
    157c:	9f 4f       	sbci	r25, 0xFF	; 255
    157e:	21 e0       	ldi	r18, 0x01	; 1
    1580:	30 e0       	ldi	r19, 0x00	; 0
    1582:	dc 01       	movw	r26, r24
    1584:	11 96       	adiw	r26, 0x01	; 1
    1586:	3c 93       	st	X, r19
    1588:	2e 93       	st	-X, r18
    158a:	a5 c0       	rjmp	.+330    	; 0x16d6 <.L114>

0000158c <.L333>:
	else if (__tmp > 65535)
    158c:	ce 01       	movw	r24, r28
    158e:	87 5a       	subi	r24, 0xA7	; 167
    1590:	9f 4f       	sbci	r25, 0xFF	; 255
    1592:	20 e0       	ldi	r18, 0x00	; 0
    1594:	3f ef       	ldi	r19, 0xFF	; 255
    1596:	4f e7       	ldi	r20, 0x7F	; 127
    1598:	57 e4       	ldi	r21, 0x47	; 71
    159a:	fc 01       	movw	r30, r24
    159c:	60 81       	ld	r22, Z
    159e:	71 81       	ldd	r23, Z+1	; 0x01
    15a0:	82 81       	ldd	r24, Z+2	; 0x02
    15a2:	93 81       	ldd	r25, Z+3	; 0x03
    15a4:	0e 94 52 20 	call	0x40a4	; 0x40a4 <__gesf2>
    15a8:	88 23       	and	r24, r24
    15aa:	09 f0       	breq	.+2      	; 0x15ae <L0^A>

000015ac <L0^A>:
    15ac:	0c f4       	brge	.+2      	; 0x15b0 <.Loc.387>

000015ae <L0^A>:
    15ae:	75 c0       	rjmp	.+234    	; 0x169a <.L334>

000015b0 <.Loc.387>:
		__ticks = (uint16_t) (__ms * 10.0);
    15b0:	ce 01       	movw	r24, r28
    15b2:	8b 5a       	subi	r24, 0xAB	; 171
    15b4:	9f 4f       	sbci	r25, 0xFF	; 255
    15b6:	20 e0       	ldi	r18, 0x00	; 0
    15b8:	30 e0       	ldi	r19, 0x00	; 0
    15ba:	40 e2       	ldi	r20, 0x20	; 32
    15bc:	51 e4       	ldi	r21, 0x41	; 65
    15be:	dc 01       	movw	r26, r24
    15c0:	6d 91       	ld	r22, X+
    15c2:	7d 91       	ld	r23, X+
    15c4:	8d 91       	ld	r24, X+
    15c6:	9c 91       	ld	r25, X
    15c8:	0e 94 57 20 	call	0x40ae	; 0x40ae <__mulsf3>
    15cc:	cd 5f       	subi	r28, 0xFD	; 253
    15ce:	dd 4f       	sbci	r29, 0xFD	; 253
    15d0:	68 83       	st	Y, r22
    15d2:	79 83       	std	Y+1, r23	; 0x01
    15d4:	8a 83       	std	Y+2, r24	; 0x02
    15d6:	9b 83       	std	Y+3, r25	; 0x03
    15d8:	c3 50       	subi	r28, 0x03	; 3
    15da:	d2 40       	sbci	r29, 0x02	; 2
    15dc:	cd 5f       	subi	r28, 0xFD	; 253
    15de:	dd 4f       	sbci	r29, 0xFD	; 253
    15e0:	28 81       	ld	r18, Y
    15e2:	39 81       	ldd	r19, Y+1	; 0x01
    15e4:	4a 81       	ldd	r20, Y+2	; 0x02
    15e6:	5b 81       	ldd	r21, Y+3	; 0x03
    15e8:	c3 50       	subi	r28, 0x03	; 3
    15ea:	d2 40       	sbci	r29, 0x02	; 2
    15ec:	c5 5a       	subi	r28, 0xA5	; 165
    15ee:	de 4f       	sbci	r29, 0xFE	; 254
    15f0:	28 83       	st	Y, r18
    15f2:	39 83       	std	Y+1, r19	; 0x01
    15f4:	4a 83       	std	Y+2, r20	; 0x02
    15f6:	5b 83       	std	Y+3, r21	; 0x03
    15f8:	cb 55       	subi	r28, 0x5B	; 91
    15fa:	d1 40       	sbci	r29, 0x01	; 1

000015fc <.Loc.388>:
    15fc:	8e 01       	movw	r16, r28
    15fe:	03 5a       	subi	r16, 0xA3	; 163
    1600:	1f 4f       	sbci	r17, 0xFF	; 255
    1602:	c5 5a       	subi	r28, 0xA5	; 165
    1604:	de 4f       	sbci	r29, 0xFE	; 254
    1606:	68 81       	ld	r22, Y
    1608:	79 81       	ldd	r23, Y+1	; 0x01
    160a:	8a 81       	ldd	r24, Y+2	; 0x02
    160c:	9b 81       	ldd	r25, Y+3	; 0x03
    160e:	cb 55       	subi	r28, 0x5B	; 91
    1610:	d1 40       	sbci	r29, 0x01	; 1
    1612:	0e 94 d6 1f 	call	0x3fac	; 0x3fac <__fixunssfsi>
    1616:	c9 5f       	subi	r28, 0xF9	; 249
    1618:	dd 4f       	sbci	r29, 0xFD	; 253
    161a:	68 83       	st	Y, r22
    161c:	79 83       	std	Y+1, r23	; 0x01
    161e:	8a 83       	std	Y+2, r24	; 0x02
    1620:	9b 83       	std	Y+3, r25	; 0x03
    1622:	c7 50       	subi	r28, 0x07	; 7
    1624:	d2 40       	sbci	r29, 0x02	; 2
    1626:	c9 5f       	subi	r28, 0xF9	; 249
    1628:	dd 4f       	sbci	r29, 0xFD	; 253
    162a:	e8 81       	ld	r30, Y
    162c:	f9 81       	ldd	r31, Y+1	; 0x01
    162e:	c7 50       	subi	r28, 0x07	; 7
    1630:	d2 40       	sbci	r29, 0x02	; 2
    1632:	d8 01       	movw	r26, r16
    1634:	11 96       	adiw	r26, 0x01	; 1
    1636:	fc 93       	st	X, r31
    1638:	ee 93       	st	-X, r30

0000163a <.Loc.389>:
		while(__ticks)
    163a:	26 c0       	rjmp	.+76     	; 0x1688 <.L117>

0000163c <.L118>:
    163c:	ce 01       	movw	r24, r28
    163e:	81 5a       	subi	r24, 0xA1	; 161
    1640:	9f 4f       	sbci	r25, 0xFF	; 255
    1642:	20 e9       	ldi	r18, 0x90	; 144
    1644:	31 e0       	ldi	r19, 0x01	; 1
    1646:	dc 01       	movw	r26, r24
    1648:	2d 93       	st	X+, r18
    164a:	3c 93       	st	X, r19

0000164c <.LBB184>:
    164c:	ce 01       	movw	r24, r28
    164e:	81 5a       	subi	r24, 0xA1	; 161
    1650:	9f 4f       	sbci	r25, 0xFF	; 255
    1652:	fc 01       	movw	r30, r24
    1654:	80 81       	ld	r24, Z
    1656:	91 81       	ldd	r25, Z+1	; 0x01

00001658 <.L1^B14>:
    1658:	01 97       	sbiw	r24, 0x01	; 1
    165a:	f1 f7       	brne	.-4      	; 0x1658 <.L1^B14>
    165c:	9e 01       	movw	r18, r28
    165e:	21 5a       	subi	r18, 0xA1	; 161
    1660:	3f 4f       	sbci	r19, 0xFF	; 255
    1662:	d9 01       	movw	r26, r18
    1664:	8d 93       	st	X+, r24
    1666:	9c 93       	st	X, r25

00001668 <.Loc.391>:
	...

0000166a <.LBE184>:
			__ticks --;
    166a:	ce 01       	movw	r24, r28
    166c:	83 5a       	subi	r24, 0xA3	; 163
    166e:	9f 4f       	sbci	r25, 0xFF	; 255
    1670:	9e 01       	movw	r18, r28
    1672:	23 5a       	subi	r18, 0xA3	; 163
    1674:	3f 4f       	sbci	r19, 0xFF	; 255
    1676:	f9 01       	movw	r30, r18
    1678:	20 81       	ld	r18, Z
    167a:	31 81       	ldd	r19, Z+1	; 0x01
    167c:	21 50       	subi	r18, 0x01	; 1
    167e:	31 09       	sbc	r19, r1
    1680:	dc 01       	movw	r26, r24
    1682:	11 96       	adiw	r26, 0x01	; 1
    1684:	3c 93       	st	X, r19
    1686:	2e 93       	st	-X, r18

00001688 <.L117>:
		while(__ticks)
    1688:	ce 01       	movw	r24, r28
    168a:	83 5a       	subi	r24, 0xA3	; 163
    168c:	9f 4f       	sbci	r25, 0xFF	; 255
    168e:	fc 01       	movw	r30, r24
    1690:	80 81       	ld	r24, Z
    1692:	91 81       	ldd	r25, Z+1	; 0x01
    1694:	00 97       	sbiw	r24, 0x00	; 0
    1696:	91 f6       	brne	.-92     	; 0x163c <.L118>

00001698 <.Loc.394>:
		return;
    1698:	39 c0       	rjmp	.+114    	; 0x170c <.L119>

0000169a <.L334>:
		__ticks = (uint16_t)__tmp;
    169a:	8e 01       	movw	r16, r28
    169c:	03 5a       	subi	r16, 0xA3	; 163
    169e:	1f 4f       	sbci	r17, 0xFF	; 255
    16a0:	ce 01       	movw	r24, r28
    16a2:	87 5a       	subi	r24, 0xA7	; 167
    16a4:	9f 4f       	sbci	r25, 0xFF	; 255
    16a6:	dc 01       	movw	r26, r24
    16a8:	6d 91       	ld	r22, X+
    16aa:	7d 91       	ld	r23, X+
    16ac:	8d 91       	ld	r24, X+
    16ae:	9c 91       	ld	r25, X
    16b0:	0e 94 d6 1f 	call	0x3fac	; 0x3fac <__fixunssfsi>
    16b4:	c5 5f       	subi	r28, 0xF5	; 245
    16b6:	dd 4f       	sbci	r29, 0xFD	; 253
    16b8:	68 83       	st	Y, r22
    16ba:	79 83       	std	Y+1, r23	; 0x01
    16bc:	8a 83       	std	Y+2, r24	; 0x02
    16be:	9b 83       	std	Y+3, r25	; 0x03
    16c0:	cb 50       	subi	r28, 0x0B	; 11
    16c2:	d2 40       	sbci	r29, 0x02	; 2
    16c4:	c5 5f       	subi	r28, 0xF5	; 245
    16c6:	dd 4f       	sbci	r29, 0xFD	; 253
    16c8:	28 81       	ld	r18, Y
    16ca:	39 81       	ldd	r19, Y+1	; 0x01
    16cc:	cb 50       	subi	r28, 0x0B	; 11
    16ce:	d2 40       	sbci	r29, 0x02	; 2
    16d0:	f8 01       	movw	r30, r16
    16d2:	31 83       	std	Z+1, r19	; 0x01
    16d4:	20 83       	st	Z, r18

000016d6 <.L114>:
    16d6:	ce 01       	movw	r24, r28
    16d8:	8f 59       	subi	r24, 0x9F	; 159
    16da:	9f 4f       	sbci	r25, 0xFF	; 255
    16dc:	9e 01       	movw	r18, r28
    16de:	23 5a       	subi	r18, 0xA3	; 163
    16e0:	3f 4f       	sbci	r19, 0xFF	; 255
    16e2:	d9 01       	movw	r26, r18
    16e4:	2d 91       	ld	r18, X+
    16e6:	3c 91       	ld	r19, X
    16e8:	fc 01       	movw	r30, r24
    16ea:	31 83       	std	Z+1, r19	; 0x01
    16ec:	20 83       	st	Z, r18

000016ee <.LBB186>:
    16ee:	ce 01       	movw	r24, r28
    16f0:	8f 59       	subi	r24, 0x9F	; 159
    16f2:	9f 4f       	sbci	r25, 0xFF	; 255
    16f4:	dc 01       	movw	r26, r24
    16f6:	8d 91       	ld	r24, X+
    16f8:	9c 91       	ld	r25, X

000016fa <.L1^B15>:
    16fa:	01 97       	sbiw	r24, 0x01	; 1
    16fc:	f1 f7       	brne	.-4      	; 0x16fa <.L1^B15>
    16fe:	9e 01       	movw	r18, r28
    1700:	2f 59       	subi	r18, 0x9F	; 159
    1702:	3f 4f       	sbci	r19, 0xFF	; 255
    1704:	f9 01       	movw	r30, r18
    1706:	91 83       	std	Z+1, r25	; 0x01
    1708:	80 83       	st	Z, r24

0000170a <.Loc.397>:
	...

0000170c <.L119>:
                            {
                                _delay_ms(30);
                                knop2_ingedrukt = 0;
    170c:	10 92 17 02 	sts	0x0217, r1	; 0x800217 <knop2_ingedrukt+0x1>
    1710:	10 92 16 02 	sts	0x0216, r1	; 0x800216 <knop2_ingedrukt>

00001714 <.L103>:
                            }
                        }



                     if (PINL & (1 << confirm))  //executeer
    1714:	89 e0       	ldi	r24, 0x09	; 9
    1716:	91 e0       	ldi	r25, 0x01	; 1
    1718:	dc 01       	movw	r26, r24
    171a:	8c 91       	ld	r24, X

0000171c <.Loc.400>:
    171c:	88 2f       	mov	r24, r24
    171e:	90 e0       	ldi	r25, 0x00	; 0
    1720:	88 70       	andi	r24, 0x08	; 8
    1722:	99 27       	eor	r25, r25

00001724 <.Loc.401>:
    1724:	00 97       	sbiw	r24, 0x00	; 0
    1726:	09 f4       	brne	.+2      	; 0x172a <.Loc.402>

00001728 <L0^A>:
    1728:	2e c1       	rjmp	.+604    	; 0x1986 <.L120>

0000172a <.Loc.402>:
                        {
                            if (knop4_ingedrukt == 0) // knop is niet al eerder ingedrukt
    172a:	80 91 1a 02 	lds	r24, 0x021A	; 0x80021a <knop4_ingedrukt>
    172e:	90 91 1b 02 	lds	r25, 0x021B	; 0x80021b <knop4_ingedrukt+0x1>

00001732 <.Loc.403>:
    1732:	00 97       	sbiw	r24, 0x00	; 0
    1734:	09 f0       	breq	.+2      	; 0x1738 <L0^A+0x2>

00001736 <L0^A>:
    1736:	3f c2       	rjmp	.+1150   	; 0x1bb6 <.L121>
    1738:	9e 01       	movw	r18, r28
    173a:	2d 59       	subi	r18, 0x9D	; 157
    173c:	3f 4f       	sbci	r19, 0xFF	; 255
    173e:	80 e0       	ldi	r24, 0x00	; 0
    1740:	90 e0       	ldi	r25, 0x00	; 0
    1742:	a0 ef       	ldi	r26, 0xF0	; 240
    1744:	b1 e4       	ldi	r27, 0x41	; 65
    1746:	f9 01       	movw	r30, r18
    1748:	80 83       	st	Z, r24
    174a:	91 83       	std	Z+1, r25	; 0x01
    174c:	a2 83       	std	Z+2, r26	; 0x02
    174e:	b3 83       	std	Z+3, r27	; 0x03

00001750 <.LBB188>:
	__tmp = ((F_CPU) / 4e3) * __ms;
    1750:	8e 01       	movw	r16, r28
    1752:	09 59       	subi	r16, 0x99	; 153
    1754:	1f 4f       	sbci	r17, 0xFF	; 255
    1756:	ce 01       	movw	r24, r28
    1758:	8d 59       	subi	r24, 0x9D	; 157
    175a:	9f 4f       	sbci	r25, 0xFF	; 255
    175c:	20 e0       	ldi	r18, 0x00	; 0
    175e:	30 e0       	ldi	r19, 0x00	; 0
    1760:	4a e7       	ldi	r20, 0x7A	; 122
    1762:	55 e4       	ldi	r21, 0x45	; 69
    1764:	dc 01       	movw	r26, r24
    1766:	6d 91       	ld	r22, X+
    1768:	7d 91       	ld	r23, X+
    176a:	8d 91       	ld	r24, X+
    176c:	9c 91       	ld	r25, X
    176e:	0e 94 57 20 	call	0x40ae	; 0x40ae <__mulsf3>
    1772:	c1 5f       	subi	r28, 0xF1	; 241
    1774:	dd 4f       	sbci	r29, 0xFD	; 253
    1776:	68 83       	st	Y, r22
    1778:	79 83       	std	Y+1, r23	; 0x01
    177a:	8a 83       	std	Y+2, r24	; 0x02
    177c:	9b 83       	std	Y+3, r25	; 0x03
    177e:	cf 50       	subi	r28, 0x0F	; 15
    1780:	d2 40       	sbci	r29, 0x02	; 2
    1782:	c1 5f       	subi	r28, 0xF1	; 241
    1784:	dd 4f       	sbci	r29, 0xFD	; 253
    1786:	28 81       	ld	r18, Y
    1788:	39 81       	ldd	r19, Y+1	; 0x01
    178a:	4a 81       	ldd	r20, Y+2	; 0x02
    178c:	5b 81       	ldd	r21, Y+3	; 0x03
    178e:	cf 50       	subi	r28, 0x0F	; 15
    1790:	d2 40       	sbci	r29, 0x02	; 2
    1792:	d8 01       	movw	r26, r16
    1794:	2d 93       	st	X+, r18
    1796:	3d 93       	st	X+, r19
    1798:	4d 93       	st	X+, r20
    179a:	5c 93       	st	X, r21
    179c:	13 97       	sbiw	r26, 0x03	; 3

0000179e <.Loc.405>:
	if (__tmp < 1.0)
    179e:	ce 01       	movw	r24, r28
    17a0:	89 59       	subi	r24, 0x99	; 153
    17a2:	9f 4f       	sbci	r25, 0xFF	; 255
    17a4:	20 e0       	ldi	r18, 0x00	; 0
    17a6:	30 e0       	ldi	r19, 0x00	; 0
    17a8:	40 e8       	ldi	r20, 0x80	; 128
    17aa:	5f e3       	ldi	r21, 0x3F	; 63
    17ac:	fc 01       	movw	r30, r24
    17ae:	60 81       	ld	r22, Z
    17b0:	71 81       	ldd	r23, Z+1	; 0x01
    17b2:	82 81       	ldd	r24, Z+2	; 0x02
    17b4:	93 81       	ldd	r25, Z+3	; 0x03
    17b6:	0e 94 d1 1f 	call	0x3fa2	; 0x3fa2 <__cmpsf2>
    17ba:	88 23       	and	r24, r24
    17bc:	54 f4       	brge	.+20     	; 0x17d2 <.L335>

000017be <.Loc.406>:
		__ticks = 1;
    17be:	ce 01       	movw	r24, r28
    17c0:	85 59       	subi	r24, 0x95	; 149
    17c2:	9f 4f       	sbci	r25, 0xFF	; 255
    17c4:	21 e0       	ldi	r18, 0x01	; 1
    17c6:	30 e0       	ldi	r19, 0x00	; 0
    17c8:	dc 01       	movw	r26, r24
    17ca:	11 96       	adiw	r26, 0x01	; 1
    17cc:	3c 93       	st	X, r19
    17ce:	2e 93       	st	-X, r18
    17d0:	a5 c0       	rjmp	.+330    	; 0x191c <.L124>

000017d2 <.L335>:
	else if (__tmp > 65535)
    17d2:	ce 01       	movw	r24, r28
    17d4:	89 59       	subi	r24, 0x99	; 153
    17d6:	9f 4f       	sbci	r25, 0xFF	; 255
    17d8:	20 e0       	ldi	r18, 0x00	; 0
    17da:	3f ef       	ldi	r19, 0xFF	; 255
    17dc:	4f e7       	ldi	r20, 0x7F	; 127
    17de:	57 e4       	ldi	r21, 0x47	; 71
    17e0:	fc 01       	movw	r30, r24
    17e2:	60 81       	ld	r22, Z
    17e4:	71 81       	ldd	r23, Z+1	; 0x01
    17e6:	82 81       	ldd	r24, Z+2	; 0x02
    17e8:	93 81       	ldd	r25, Z+3	; 0x03
    17ea:	0e 94 52 20 	call	0x40a4	; 0x40a4 <__gesf2>
    17ee:	88 23       	and	r24, r24
    17f0:	09 f0       	breq	.+2      	; 0x17f4 <L0^A>

000017f2 <L0^A>:
    17f2:	0c f4       	brge	.+2      	; 0x17f6 <.Loc.408>

000017f4 <L0^A>:
    17f4:	75 c0       	rjmp	.+234    	; 0x18e0 <.L336>

000017f6 <.Loc.408>:
		__ticks = (uint16_t) (__ms * 10.0);
    17f6:	ce 01       	movw	r24, r28
    17f8:	8d 59       	subi	r24, 0x9D	; 157
    17fa:	9f 4f       	sbci	r25, 0xFF	; 255
    17fc:	20 e0       	ldi	r18, 0x00	; 0
    17fe:	30 e0       	ldi	r19, 0x00	; 0
    1800:	40 e2       	ldi	r20, 0x20	; 32
    1802:	51 e4       	ldi	r21, 0x41	; 65
    1804:	dc 01       	movw	r26, r24
    1806:	6d 91       	ld	r22, X+
    1808:	7d 91       	ld	r23, X+
    180a:	8d 91       	ld	r24, X+
    180c:	9c 91       	ld	r25, X
    180e:	0e 94 57 20 	call	0x40ae	; 0x40ae <__mulsf3>
    1812:	cd 5e       	subi	r28, 0xED	; 237
    1814:	dd 4f       	sbci	r29, 0xFD	; 253
    1816:	68 83       	st	Y, r22
    1818:	79 83       	std	Y+1, r23	; 0x01
    181a:	8a 83       	std	Y+2, r24	; 0x02
    181c:	9b 83       	std	Y+3, r25	; 0x03
    181e:	c3 51       	subi	r28, 0x13	; 19
    1820:	d2 40       	sbci	r29, 0x02	; 2
    1822:	cd 5e       	subi	r28, 0xED	; 237
    1824:	dd 4f       	sbci	r29, 0xFD	; 253
    1826:	28 81       	ld	r18, Y
    1828:	39 81       	ldd	r19, Y+1	; 0x01
    182a:	4a 81       	ldd	r20, Y+2	; 0x02
    182c:	5b 81       	ldd	r21, Y+3	; 0x03
    182e:	c3 51       	subi	r28, 0x13	; 19
    1830:	d2 40       	sbci	r29, 0x02	; 2
    1832:	c1 5a       	subi	r28, 0xA1	; 161
    1834:	de 4f       	sbci	r29, 0xFE	; 254
    1836:	28 83       	st	Y, r18
    1838:	39 83       	std	Y+1, r19	; 0x01
    183a:	4a 83       	std	Y+2, r20	; 0x02
    183c:	5b 83       	std	Y+3, r21	; 0x03
    183e:	cf 55       	subi	r28, 0x5F	; 95
    1840:	d1 40       	sbci	r29, 0x01	; 1

00001842 <.Loc.409>:
    1842:	8e 01       	movw	r16, r28
    1844:	05 59       	subi	r16, 0x95	; 149
    1846:	1f 4f       	sbci	r17, 0xFF	; 255
    1848:	c1 5a       	subi	r28, 0xA1	; 161
    184a:	de 4f       	sbci	r29, 0xFE	; 254
    184c:	68 81       	ld	r22, Y
    184e:	79 81       	ldd	r23, Y+1	; 0x01
    1850:	8a 81       	ldd	r24, Y+2	; 0x02
    1852:	9b 81       	ldd	r25, Y+3	; 0x03
    1854:	cf 55       	subi	r28, 0x5F	; 95
    1856:	d1 40       	sbci	r29, 0x01	; 1
    1858:	0e 94 d6 1f 	call	0x3fac	; 0x3fac <__fixunssfsi>
    185c:	c9 5e       	subi	r28, 0xE9	; 233
    185e:	dd 4f       	sbci	r29, 0xFD	; 253
    1860:	68 83       	st	Y, r22
    1862:	79 83       	std	Y+1, r23	; 0x01
    1864:	8a 83       	std	Y+2, r24	; 0x02
    1866:	9b 83       	std	Y+3, r25	; 0x03
    1868:	c7 51       	subi	r28, 0x17	; 23
    186a:	d2 40       	sbci	r29, 0x02	; 2
    186c:	c9 5e       	subi	r28, 0xE9	; 233
    186e:	dd 4f       	sbci	r29, 0xFD	; 253
    1870:	e8 81       	ld	r30, Y
    1872:	f9 81       	ldd	r31, Y+1	; 0x01
    1874:	c7 51       	subi	r28, 0x17	; 23
    1876:	d2 40       	sbci	r29, 0x02	; 2
    1878:	d8 01       	movw	r26, r16
    187a:	11 96       	adiw	r26, 0x01	; 1
    187c:	fc 93       	st	X, r31
    187e:	ee 93       	st	-X, r30

00001880 <.Loc.410>:
		while(__ticks)
    1880:	26 c0       	rjmp	.+76     	; 0x18ce <.L127>

00001882 <.L128>:
    1882:	ce 01       	movw	r24, r28
    1884:	83 59       	subi	r24, 0x93	; 147
    1886:	9f 4f       	sbci	r25, 0xFF	; 255
    1888:	20 e9       	ldi	r18, 0x90	; 144
    188a:	31 e0       	ldi	r19, 0x01	; 1
    188c:	dc 01       	movw	r26, r24
    188e:	2d 93       	st	X+, r18
    1890:	3c 93       	st	X, r19

00001892 <.LBB190>:
    1892:	ce 01       	movw	r24, r28
    1894:	83 59       	subi	r24, 0x93	; 147
    1896:	9f 4f       	sbci	r25, 0xFF	; 255
    1898:	fc 01       	movw	r30, r24
    189a:	80 81       	ld	r24, Z
    189c:	91 81       	ldd	r25, Z+1	; 0x01

0000189e <.L1^B16>:
    189e:	01 97       	sbiw	r24, 0x01	; 1
    18a0:	f1 f7       	brne	.-4      	; 0x189e <.L1^B16>
    18a2:	9e 01       	movw	r18, r28
    18a4:	23 59       	subi	r18, 0x93	; 147
    18a6:	3f 4f       	sbci	r19, 0xFF	; 255
    18a8:	d9 01       	movw	r26, r18
    18aa:	8d 93       	st	X+, r24
    18ac:	9c 93       	st	X, r25

000018ae <.Loc.412>:
	...

000018b0 <.LBE190>:
			__ticks --;
    18b0:	ce 01       	movw	r24, r28
    18b2:	85 59       	subi	r24, 0x95	; 149
    18b4:	9f 4f       	sbci	r25, 0xFF	; 255
    18b6:	9e 01       	movw	r18, r28
    18b8:	25 59       	subi	r18, 0x95	; 149
    18ba:	3f 4f       	sbci	r19, 0xFF	; 255
    18bc:	f9 01       	movw	r30, r18
    18be:	20 81       	ld	r18, Z
    18c0:	31 81       	ldd	r19, Z+1	; 0x01
    18c2:	21 50       	subi	r18, 0x01	; 1
    18c4:	31 09       	sbc	r19, r1
    18c6:	dc 01       	movw	r26, r24
    18c8:	11 96       	adiw	r26, 0x01	; 1
    18ca:	3c 93       	st	X, r19
    18cc:	2e 93       	st	-X, r18

000018ce <.L127>:
		while(__ticks)
    18ce:	ce 01       	movw	r24, r28
    18d0:	85 59       	subi	r24, 0x95	; 149
    18d2:	9f 4f       	sbci	r25, 0xFF	; 255
    18d4:	fc 01       	movw	r30, r24
    18d6:	80 81       	ld	r24, Z
    18d8:	91 81       	ldd	r25, Z+1	; 0x01
    18da:	00 97       	sbiw	r24, 0x00	; 0
    18dc:	91 f6       	brne	.-92     	; 0x1882 <.L128>

000018de <.Loc.415>:
		return;
    18de:	3a c0       	rjmp	.+116    	; 0x1954 <.L129>

000018e0 <.L336>:
		__ticks = (uint16_t)__tmp;
    18e0:	8e 01       	movw	r16, r28
    18e2:	05 59       	subi	r16, 0x95	; 149
    18e4:	1f 4f       	sbci	r17, 0xFF	; 255
    18e6:	ce 01       	movw	r24, r28
    18e8:	89 59       	subi	r24, 0x99	; 153
    18ea:	9f 4f       	sbci	r25, 0xFF	; 255
    18ec:	dc 01       	movw	r26, r24
    18ee:	6d 91       	ld	r22, X+
    18f0:	7d 91       	ld	r23, X+
    18f2:	8d 91       	ld	r24, X+
    18f4:	9c 91       	ld	r25, X
    18f6:	0e 94 d6 1f 	call	0x3fac	; 0x3fac <__fixunssfsi>
    18fa:	c5 5e       	subi	r28, 0xE5	; 229
    18fc:	dd 4f       	sbci	r29, 0xFD	; 253
    18fe:	68 83       	st	Y, r22
    1900:	79 83       	std	Y+1, r23	; 0x01
    1902:	8a 83       	std	Y+2, r24	; 0x02
    1904:	9b 83       	std	Y+3, r25	; 0x03
    1906:	cb 51       	subi	r28, 0x1B	; 27
    1908:	d2 40       	sbci	r29, 0x02	; 2
    190a:	c5 5e       	subi	r28, 0xE5	; 229
    190c:	dd 4f       	sbci	r29, 0xFD	; 253
    190e:	28 81       	ld	r18, Y
    1910:	39 81       	ldd	r19, Y+1	; 0x01
    1912:	cb 51       	subi	r28, 0x1B	; 27
    1914:	d2 40       	sbci	r29, 0x02	; 2
    1916:	f8 01       	movw	r30, r16
    1918:	31 83       	std	Z+1, r19	; 0x01
    191a:	20 83       	st	Z, r18

0000191c <.L124>:
    191c:	ce 01       	movw	r24, r28
    191e:	81 59       	subi	r24, 0x91	; 145
    1920:	9f 4f       	sbci	r25, 0xFF	; 255
    1922:	9e 01       	movw	r18, r28
    1924:	25 59       	subi	r18, 0x95	; 149
    1926:	3f 4f       	sbci	r19, 0xFF	; 255
    1928:	d9 01       	movw	r26, r18
    192a:	2d 91       	ld	r18, X+
    192c:	3c 91       	ld	r19, X
    192e:	fc 01       	movw	r30, r24
    1930:	31 83       	std	Z+1, r19	; 0x01
    1932:	20 83       	st	Z, r18

00001934 <.LBB192>:
    1934:	ce 01       	movw	r24, r28
    1936:	81 59       	subi	r24, 0x91	; 145
    1938:	9f 4f       	sbci	r25, 0xFF	; 255
    193a:	dc 01       	movw	r26, r24
    193c:	8d 91       	ld	r24, X+
    193e:	9c 91       	ld	r25, X
    1940:	11 97       	sbiw	r26, 0x01	; 1

00001942 <.L1^B17>:
    1942:	01 97       	sbiw	r24, 0x01	; 1
    1944:	f1 f7       	brne	.-4      	; 0x1942 <.L1^B17>
    1946:	9e 01       	movw	r18, r28
    1948:	21 59       	subi	r18, 0x91	; 145
    194a:	3f 4f       	sbci	r19, 0xFF	; 255
    194c:	f9 01       	movw	r30, r18
    194e:	91 83       	std	Z+1, r25	; 0x01
    1950:	80 83       	st	Z, r24

00001952 <.Loc.418>:
	...

00001954 <.L129>:
                            {
                                _delay_ms(30);
                                StepCounterX=n;
    1954:	80 91 0e 02 	lds	r24, 0x020E	; 0x80020e <n>
    1958:	90 91 0f 02 	lds	r25, 0x020F	; 0x80020f <n+0x1>
    195c:	90 93 1f 02 	sts	0x021F, r25	; 0x80021f <StepCounterX+0x1>
    1960:	80 93 1e 02 	sts	0x021E, r24	; 0x80021e <StepCounterX>

00001964 <.Loc.420>:
                                MenuLayer = 30; //Switch to execution of code
    1964:	8e e1       	ldi	r24, 0x1E	; 30
    1966:	90 e0       	ldi	r25, 0x00	; 0
    1968:	90 93 01 02 	sts	0x0201, r25	; 0x800201 <MenuLayer+0x1>
    196c:	80 93 00 02 	sts	0x0200, r24	; 0x800200 <MenuLayer>

00001970 <.Loc.421>:
                                n=0; //New axis starts from 0.
    1970:	10 92 0f 02 	sts	0x020F, r1	; 0x80020f <n+0x1>
    1974:	10 92 0e 02 	sts	0x020E, r1	; 0x80020e <n>

00001978 <.Loc.422>:
                                knop4_ingedrukt = 1;
    1978:	81 e0       	ldi	r24, 0x01	; 1
    197a:	90 e0       	ldi	r25, 0x00	; 0
    197c:	90 93 1b 02 	sts	0x021B, r25	; 0x80021b <knop4_ingedrukt+0x1>
    1980:	80 93 1a 02 	sts	0x021A, r24	; 0x80021a <knop4_ingedrukt>
    1984:	18 c1       	rjmp	.+560    	; 0x1bb6 <.L121>

00001986 <.L120>:
                            }
                        }
                    else
                        {
                        if (knop4_ingedrukt != 0) // knop is zojuist losgelaten
    1986:	80 91 1a 02 	lds	r24, 0x021A	; 0x80021a <knop4_ingedrukt>
    198a:	90 91 1b 02 	lds	r25, 0x021B	; 0x80021b <knop4_ingedrukt+0x1>

0000198e <.Loc.424>:
    198e:	00 97       	sbiw	r24, 0x00	; 0
    1990:	09 f4       	brne	.+2      	; 0x1994 <L0^A+0x2>

00001992 <L0^A>:
    1992:	11 c1       	rjmp	.+546    	; 0x1bb6 <.L121>
    1994:	9e 01       	movw	r18, r28
    1996:	2f 58       	subi	r18, 0x8F	; 143
    1998:	3f 4f       	sbci	r19, 0xFF	; 255
    199a:	80 e0       	ldi	r24, 0x00	; 0
    199c:	90 e0       	ldi	r25, 0x00	; 0
    199e:	a0 ef       	ldi	r26, 0xF0	; 240
    19a0:	b1 e4       	ldi	r27, 0x41	; 65
    19a2:	f9 01       	movw	r30, r18
    19a4:	80 83       	st	Z, r24
    19a6:	91 83       	std	Z+1, r25	; 0x01
    19a8:	a2 83       	std	Z+2, r26	; 0x02
    19aa:	b3 83       	std	Z+3, r27	; 0x03

000019ac <.LBB194>:
	__tmp = ((F_CPU) / 4e3) * __ms;
    19ac:	8e 01       	movw	r16, r28
    19ae:	0b 58       	subi	r16, 0x8B	; 139
    19b0:	1f 4f       	sbci	r17, 0xFF	; 255
    19b2:	ce 01       	movw	r24, r28
    19b4:	8f 58       	subi	r24, 0x8F	; 143
    19b6:	9f 4f       	sbci	r25, 0xFF	; 255
    19b8:	20 e0       	ldi	r18, 0x00	; 0
    19ba:	30 e0       	ldi	r19, 0x00	; 0
    19bc:	4a e7       	ldi	r20, 0x7A	; 122
    19be:	55 e4       	ldi	r21, 0x45	; 69
    19c0:	dc 01       	movw	r26, r24
    19c2:	6d 91       	ld	r22, X+
    19c4:	7d 91       	ld	r23, X+
    19c6:	8d 91       	ld	r24, X+
    19c8:	9c 91       	ld	r25, X
    19ca:	0e 94 57 20 	call	0x40ae	; 0x40ae <__mulsf3>
    19ce:	c1 5e       	subi	r28, 0xE1	; 225
    19d0:	dd 4f       	sbci	r29, 0xFD	; 253
    19d2:	68 83       	st	Y, r22
    19d4:	79 83       	std	Y+1, r23	; 0x01
    19d6:	8a 83       	std	Y+2, r24	; 0x02
    19d8:	9b 83       	std	Y+3, r25	; 0x03
    19da:	cf 51       	subi	r28, 0x1F	; 31
    19dc:	d2 40       	sbci	r29, 0x02	; 2
    19de:	c1 5e       	subi	r28, 0xE1	; 225
    19e0:	dd 4f       	sbci	r29, 0xFD	; 253
    19e2:	28 81       	ld	r18, Y
    19e4:	39 81       	ldd	r19, Y+1	; 0x01
    19e6:	4a 81       	ldd	r20, Y+2	; 0x02
    19e8:	5b 81       	ldd	r21, Y+3	; 0x03
    19ea:	cf 51       	subi	r28, 0x1F	; 31
    19ec:	d2 40       	sbci	r29, 0x02	; 2
    19ee:	d8 01       	movw	r26, r16
    19f0:	2d 93       	st	X+, r18
    19f2:	3d 93       	st	X+, r19
    19f4:	4d 93       	st	X+, r20
    19f6:	5c 93       	st	X, r21
    19f8:	13 97       	sbiw	r26, 0x03	; 3

000019fa <.Loc.426>:
	if (__tmp < 1.0)
    19fa:	ce 01       	movw	r24, r28
    19fc:	8b 58       	subi	r24, 0x8B	; 139
    19fe:	9f 4f       	sbci	r25, 0xFF	; 255
    1a00:	20 e0       	ldi	r18, 0x00	; 0
    1a02:	30 e0       	ldi	r19, 0x00	; 0
    1a04:	40 e8       	ldi	r20, 0x80	; 128
    1a06:	5f e3       	ldi	r21, 0x3F	; 63
    1a08:	fc 01       	movw	r30, r24
    1a0a:	60 81       	ld	r22, Z
    1a0c:	71 81       	ldd	r23, Z+1	; 0x01
    1a0e:	82 81       	ldd	r24, Z+2	; 0x02
    1a10:	93 81       	ldd	r25, Z+3	; 0x03
    1a12:	0e 94 d1 1f 	call	0x3fa2	; 0x3fa2 <__cmpsf2>
    1a16:	88 23       	and	r24, r24
    1a18:	54 f4       	brge	.+20     	; 0x1a2e <.L337>

00001a1a <.Loc.427>:
		__ticks = 1;
    1a1a:	ce 01       	movw	r24, r28
    1a1c:	87 58       	subi	r24, 0x87	; 135
    1a1e:	9f 4f       	sbci	r25, 0xFF	; 255
    1a20:	21 e0       	ldi	r18, 0x01	; 1
    1a22:	30 e0       	ldi	r19, 0x00	; 0
    1a24:	dc 01       	movw	r26, r24
    1a26:	11 96       	adiw	r26, 0x01	; 1
    1a28:	3c 93       	st	X, r19
    1a2a:	2e 93       	st	-X, r18
    1a2c:	a5 c0       	rjmp	.+330    	; 0x1b78 <.L132>

00001a2e <.L337>:
	else if (__tmp > 65535)
    1a2e:	ce 01       	movw	r24, r28
    1a30:	8b 58       	subi	r24, 0x8B	; 139
    1a32:	9f 4f       	sbci	r25, 0xFF	; 255
    1a34:	20 e0       	ldi	r18, 0x00	; 0
    1a36:	3f ef       	ldi	r19, 0xFF	; 255
    1a38:	4f e7       	ldi	r20, 0x7F	; 127
    1a3a:	57 e4       	ldi	r21, 0x47	; 71
    1a3c:	fc 01       	movw	r30, r24
    1a3e:	60 81       	ld	r22, Z
    1a40:	71 81       	ldd	r23, Z+1	; 0x01
    1a42:	82 81       	ldd	r24, Z+2	; 0x02
    1a44:	93 81       	ldd	r25, Z+3	; 0x03
    1a46:	0e 94 52 20 	call	0x40a4	; 0x40a4 <__gesf2>
    1a4a:	88 23       	and	r24, r24
    1a4c:	09 f0       	breq	.+2      	; 0x1a50 <L0^A>

00001a4e <L0^A>:
    1a4e:	0c f4       	brge	.+2      	; 0x1a52 <.Loc.429>

00001a50 <L0^A>:
    1a50:	75 c0       	rjmp	.+234    	; 0x1b3c <.L338>

00001a52 <.Loc.429>:
		__ticks = (uint16_t) (__ms * 10.0);
    1a52:	ce 01       	movw	r24, r28
    1a54:	8f 58       	subi	r24, 0x8F	; 143
    1a56:	9f 4f       	sbci	r25, 0xFF	; 255
    1a58:	20 e0       	ldi	r18, 0x00	; 0
    1a5a:	30 e0       	ldi	r19, 0x00	; 0
    1a5c:	40 e2       	ldi	r20, 0x20	; 32
    1a5e:	51 e4       	ldi	r21, 0x41	; 65
    1a60:	dc 01       	movw	r26, r24
    1a62:	6d 91       	ld	r22, X+
    1a64:	7d 91       	ld	r23, X+
    1a66:	8d 91       	ld	r24, X+
    1a68:	9c 91       	ld	r25, X
    1a6a:	0e 94 57 20 	call	0x40ae	; 0x40ae <__mulsf3>
    1a6e:	cd 5d       	subi	r28, 0xDD	; 221
    1a70:	dd 4f       	sbci	r29, 0xFD	; 253
    1a72:	68 83       	st	Y, r22
    1a74:	79 83       	std	Y+1, r23	; 0x01
    1a76:	8a 83       	std	Y+2, r24	; 0x02
    1a78:	9b 83       	std	Y+3, r25	; 0x03
    1a7a:	c3 52       	subi	r28, 0x23	; 35
    1a7c:	d2 40       	sbci	r29, 0x02	; 2
    1a7e:	cd 5d       	subi	r28, 0xDD	; 221
    1a80:	dd 4f       	sbci	r29, 0xFD	; 253
    1a82:	28 81       	ld	r18, Y
    1a84:	39 81       	ldd	r19, Y+1	; 0x01
    1a86:	4a 81       	ldd	r20, Y+2	; 0x02
    1a88:	5b 81       	ldd	r21, Y+3	; 0x03
    1a8a:	c3 52       	subi	r28, 0x23	; 35
    1a8c:	d2 40       	sbci	r29, 0x02	; 2
    1a8e:	cd 59       	subi	r28, 0x9D	; 157
    1a90:	de 4f       	sbci	r29, 0xFE	; 254
    1a92:	28 83       	st	Y, r18
    1a94:	39 83       	std	Y+1, r19	; 0x01
    1a96:	4a 83       	std	Y+2, r20	; 0x02
    1a98:	5b 83       	std	Y+3, r21	; 0x03
    1a9a:	c3 56       	subi	r28, 0x63	; 99
    1a9c:	d1 40       	sbci	r29, 0x01	; 1

00001a9e <.Loc.430>:
    1a9e:	8e 01       	movw	r16, r28
    1aa0:	07 58       	subi	r16, 0x87	; 135
    1aa2:	1f 4f       	sbci	r17, 0xFF	; 255
    1aa4:	cd 59       	subi	r28, 0x9D	; 157
    1aa6:	de 4f       	sbci	r29, 0xFE	; 254
    1aa8:	68 81       	ld	r22, Y
    1aaa:	79 81       	ldd	r23, Y+1	; 0x01
    1aac:	8a 81       	ldd	r24, Y+2	; 0x02
    1aae:	9b 81       	ldd	r25, Y+3	; 0x03
    1ab0:	c3 56       	subi	r28, 0x63	; 99
    1ab2:	d1 40       	sbci	r29, 0x01	; 1
    1ab4:	0e 94 d6 1f 	call	0x3fac	; 0x3fac <__fixunssfsi>
    1ab8:	c9 5d       	subi	r28, 0xD9	; 217
    1aba:	dd 4f       	sbci	r29, 0xFD	; 253
    1abc:	68 83       	st	Y, r22
    1abe:	79 83       	std	Y+1, r23	; 0x01
    1ac0:	8a 83       	std	Y+2, r24	; 0x02
    1ac2:	9b 83       	std	Y+3, r25	; 0x03
    1ac4:	c7 52       	subi	r28, 0x27	; 39
    1ac6:	d2 40       	sbci	r29, 0x02	; 2
    1ac8:	c9 5d       	subi	r28, 0xD9	; 217
    1aca:	dd 4f       	sbci	r29, 0xFD	; 253
    1acc:	e8 81       	ld	r30, Y
    1ace:	f9 81       	ldd	r31, Y+1	; 0x01
    1ad0:	c7 52       	subi	r28, 0x27	; 39
    1ad2:	d2 40       	sbci	r29, 0x02	; 2
    1ad4:	d8 01       	movw	r26, r16
    1ad6:	11 96       	adiw	r26, 0x01	; 1
    1ad8:	fc 93       	st	X, r31
    1ada:	ee 93       	st	-X, r30

00001adc <.Loc.431>:
		while(__ticks)
    1adc:	26 c0       	rjmp	.+76     	; 0x1b2a <.L135>

00001ade <.L136>:
    1ade:	ce 01       	movw	r24, r28
    1ae0:	85 58       	subi	r24, 0x85	; 133
    1ae2:	9f 4f       	sbci	r25, 0xFF	; 255
    1ae4:	20 e9       	ldi	r18, 0x90	; 144
    1ae6:	31 e0       	ldi	r19, 0x01	; 1
    1ae8:	dc 01       	movw	r26, r24
    1aea:	2d 93       	st	X+, r18
    1aec:	3c 93       	st	X, r19

00001aee <.LBB196>:
    1aee:	ce 01       	movw	r24, r28
    1af0:	85 58       	subi	r24, 0x85	; 133
    1af2:	9f 4f       	sbci	r25, 0xFF	; 255
    1af4:	fc 01       	movw	r30, r24
    1af6:	80 81       	ld	r24, Z
    1af8:	91 81       	ldd	r25, Z+1	; 0x01

00001afa <.L1^B18>:
    1afa:	01 97       	sbiw	r24, 0x01	; 1
    1afc:	f1 f7       	brne	.-4      	; 0x1afa <.L1^B18>
    1afe:	9e 01       	movw	r18, r28
    1b00:	25 58       	subi	r18, 0x85	; 133
    1b02:	3f 4f       	sbci	r19, 0xFF	; 255
    1b04:	d9 01       	movw	r26, r18
    1b06:	8d 93       	st	X+, r24
    1b08:	9c 93       	st	X, r25

00001b0a <.Loc.433>:
	...

00001b0c <.LBE196>:
			__ticks --;
    1b0c:	ce 01       	movw	r24, r28
    1b0e:	87 58       	subi	r24, 0x87	; 135
    1b10:	9f 4f       	sbci	r25, 0xFF	; 255
    1b12:	9e 01       	movw	r18, r28
    1b14:	27 58       	subi	r18, 0x87	; 135
    1b16:	3f 4f       	sbci	r19, 0xFF	; 255
    1b18:	f9 01       	movw	r30, r18
    1b1a:	20 81       	ld	r18, Z
    1b1c:	31 81       	ldd	r19, Z+1	; 0x01
    1b1e:	21 50       	subi	r18, 0x01	; 1
    1b20:	31 09       	sbc	r19, r1
    1b22:	dc 01       	movw	r26, r24
    1b24:	11 96       	adiw	r26, 0x01	; 1
    1b26:	3c 93       	st	X, r19
    1b28:	2e 93       	st	-X, r18

00001b2a <.L135>:
		while(__ticks)
    1b2a:	ce 01       	movw	r24, r28
    1b2c:	87 58       	subi	r24, 0x87	; 135
    1b2e:	9f 4f       	sbci	r25, 0xFF	; 255
    1b30:	fc 01       	movw	r30, r24
    1b32:	80 81       	ld	r24, Z
    1b34:	91 81       	ldd	r25, Z+1	; 0x01
    1b36:	00 97       	sbiw	r24, 0x00	; 0
    1b38:	91 f6       	brne	.-92     	; 0x1ade <.L136>

00001b3a <.Loc.436>:
		return;
    1b3a:	39 c0       	rjmp	.+114    	; 0x1bae <.L137>

00001b3c <.L338>:
		__ticks = (uint16_t)__tmp;
    1b3c:	8e 01       	movw	r16, r28
    1b3e:	07 58       	subi	r16, 0x87	; 135
    1b40:	1f 4f       	sbci	r17, 0xFF	; 255
    1b42:	ce 01       	movw	r24, r28
    1b44:	8b 58       	subi	r24, 0x8B	; 139
    1b46:	9f 4f       	sbci	r25, 0xFF	; 255
    1b48:	dc 01       	movw	r26, r24
    1b4a:	6d 91       	ld	r22, X+
    1b4c:	7d 91       	ld	r23, X+
    1b4e:	8d 91       	ld	r24, X+
    1b50:	9c 91       	ld	r25, X
    1b52:	0e 94 d6 1f 	call	0x3fac	; 0x3fac <__fixunssfsi>
    1b56:	c5 5d       	subi	r28, 0xD5	; 213
    1b58:	dd 4f       	sbci	r29, 0xFD	; 253
    1b5a:	68 83       	st	Y, r22
    1b5c:	79 83       	std	Y+1, r23	; 0x01
    1b5e:	8a 83       	std	Y+2, r24	; 0x02
    1b60:	9b 83       	std	Y+3, r25	; 0x03
    1b62:	cb 52       	subi	r28, 0x2B	; 43
    1b64:	d2 40       	sbci	r29, 0x02	; 2
    1b66:	c5 5d       	subi	r28, 0xD5	; 213
    1b68:	dd 4f       	sbci	r29, 0xFD	; 253
    1b6a:	28 81       	ld	r18, Y
    1b6c:	39 81       	ldd	r19, Y+1	; 0x01
    1b6e:	cb 52       	subi	r28, 0x2B	; 43
    1b70:	d2 40       	sbci	r29, 0x02	; 2
    1b72:	f8 01       	movw	r30, r16
    1b74:	31 83       	std	Z+1, r19	; 0x01
    1b76:	20 83       	st	Z, r18

00001b78 <.L132>:
    1b78:	ce 01       	movw	r24, r28
    1b7a:	83 58       	subi	r24, 0x83	; 131
    1b7c:	9f 4f       	sbci	r25, 0xFF	; 255
    1b7e:	9e 01       	movw	r18, r28
    1b80:	27 58       	subi	r18, 0x87	; 135
    1b82:	3f 4f       	sbci	r19, 0xFF	; 255
    1b84:	d9 01       	movw	r26, r18
    1b86:	2d 91       	ld	r18, X+
    1b88:	3c 91       	ld	r19, X
    1b8a:	fc 01       	movw	r30, r24
    1b8c:	31 83       	std	Z+1, r19	; 0x01
    1b8e:	20 83       	st	Z, r18

00001b90 <.LBB198>:
    1b90:	ce 01       	movw	r24, r28
    1b92:	83 58       	subi	r24, 0x83	; 131
    1b94:	9f 4f       	sbci	r25, 0xFF	; 255
    1b96:	dc 01       	movw	r26, r24
    1b98:	8d 91       	ld	r24, X+
    1b9a:	9c 91       	ld	r25, X

00001b9c <.L1^B19>:
    1b9c:	01 97       	sbiw	r24, 0x01	; 1
    1b9e:	f1 f7       	brne	.-4      	; 0x1b9c <.L1^B19>
    1ba0:	9e 01       	movw	r18, r28
    1ba2:	23 58       	subi	r18, 0x83	; 131
    1ba4:	3f 4f       	sbci	r19, 0xFF	; 255
    1ba6:	f9 01       	movw	r30, r18
    1ba8:	91 83       	std	Z+1, r25	; 0x01
    1baa:	80 83       	st	Z, r24

00001bac <.Loc.439>:
	...

00001bae <.L137>:
                            {
                                _delay_ms(30);
                                knop4_ingedrukt = 0;
    1bae:	10 92 1b 02 	sts	0x021B, r1	; 0x80021b <knop4_ingedrukt+0x1>
    1bb2:	10 92 1a 02 	sts	0x021A, r1	; 0x80021a <knop4_ingedrukt>

00001bb6 <.L121>:
                        }




                Refresh();
    1bb6:	0e 94 2e 03 	call	0x65c	; 0x65c <Refresh>

00001bba <.Loc.442>:
                }break;
    1bba:	0c 94 62 1f 	jmp	0x3ec4	; 0x3ec4 <.L59>

00001bbe <.L53>:

                case 25:{ //Select Y
                DisplayState = 'Y';
    1bbe:	89 e5       	ldi	r24, 0x59	; 89
    1bc0:	80 93 02 02 	sts	0x0202, r24	; 0x800202 <DisplayState>

00001bc4 <.Loc.444>:
                    if (PINL & (1 << min))                        {
    1bc4:	89 e0       	ldi	r24, 0x09	; 9
    1bc6:	91 e0       	ldi	r25, 0x01	; 1
    1bc8:	dc 01       	movw	r26, r24
    1bca:	8c 91       	ld	r24, X

00001bcc <.Loc.445>:
    1bcc:	88 2f       	mov	r24, r24
    1bce:	90 e0       	ldi	r25, 0x00	; 0
    1bd0:	81 70       	andi	r24, 0x01	; 1
    1bd2:	99 27       	eor	r25, r25

00001bd4 <.Loc.446>:
    1bd4:	00 97       	sbiw	r24, 0x00	; 0
    1bd6:	09 f4       	brne	.+2      	; 0x1bda <.Loc.447>

00001bd8 <L0^A>:
    1bd8:	33 c1       	rjmp	.+614    	; 0x1e40 <.L138>

00001bda <.Loc.447>:
                            if (knop1_ingedrukt == 0) // knop is niet al eerder ingedrukt
    1bda:	80 91 14 02 	lds	r24, 0x0214	; 0x800214 <knop1_ingedrukt>
    1bde:	90 91 15 02 	lds	r25, 0x0215	; 0x800215 <knop1_ingedrukt+0x1>

00001be2 <.Loc.448>:
    1be2:	00 97       	sbiw	r24, 0x00	; 0
    1be4:	09 f0       	breq	.+2      	; 0x1be8 <L0^A+0x2>

00001be6 <L0^A>:
    1be6:	44 c2       	rjmp	.+1160   	; 0x2070 <.L139>
    1be8:	9e 01       	movw	r18, r28
    1bea:	21 58       	subi	r18, 0x81	; 129
    1bec:	3f 4f       	sbci	r19, 0xFF	; 255
    1bee:	80 e0       	ldi	r24, 0x00	; 0
    1bf0:	90 e0       	ldi	r25, 0x00	; 0
    1bf2:	a0 ef       	ldi	r26, 0xF0	; 240
    1bf4:	b1 e4       	ldi	r27, 0x41	; 65
    1bf6:	f9 01       	movw	r30, r18
    1bf8:	80 83       	st	Z, r24
    1bfa:	91 83       	std	Z+1, r25	; 0x01
    1bfc:	a2 83       	std	Z+2, r26	; 0x02
    1bfe:	b3 83       	std	Z+3, r27	; 0x03

00001c00 <.LBB200>:
	__tmp = ((F_CPU) / 4e3) * __ms;
    1c00:	8e 01       	movw	r16, r28
    1c02:	0d 57       	subi	r16, 0x7D	; 125
    1c04:	1f 4f       	sbci	r17, 0xFF	; 255
    1c06:	ce 01       	movw	r24, r28
    1c08:	81 58       	subi	r24, 0x81	; 129
    1c0a:	9f 4f       	sbci	r25, 0xFF	; 255
    1c0c:	20 e0       	ldi	r18, 0x00	; 0
    1c0e:	30 e0       	ldi	r19, 0x00	; 0
    1c10:	4a e7       	ldi	r20, 0x7A	; 122
    1c12:	55 e4       	ldi	r21, 0x45	; 69
    1c14:	dc 01       	movw	r26, r24
    1c16:	6d 91       	ld	r22, X+
    1c18:	7d 91       	ld	r23, X+
    1c1a:	8d 91       	ld	r24, X+
    1c1c:	9c 91       	ld	r25, X
    1c1e:	0e 94 57 20 	call	0x40ae	; 0x40ae <__mulsf3>
    1c22:	c1 5d       	subi	r28, 0xD1	; 209
    1c24:	dd 4f       	sbci	r29, 0xFD	; 253
    1c26:	68 83       	st	Y, r22
    1c28:	79 83       	std	Y+1, r23	; 0x01
    1c2a:	8a 83       	std	Y+2, r24	; 0x02
    1c2c:	9b 83       	std	Y+3, r25	; 0x03
    1c2e:	cf 52       	subi	r28, 0x2F	; 47
    1c30:	d2 40       	sbci	r29, 0x02	; 2
    1c32:	c1 5d       	subi	r28, 0xD1	; 209
    1c34:	dd 4f       	sbci	r29, 0xFD	; 253
    1c36:	28 81       	ld	r18, Y
    1c38:	39 81       	ldd	r19, Y+1	; 0x01
    1c3a:	4a 81       	ldd	r20, Y+2	; 0x02
    1c3c:	5b 81       	ldd	r21, Y+3	; 0x03
    1c3e:	cf 52       	subi	r28, 0x2F	; 47
    1c40:	d2 40       	sbci	r29, 0x02	; 2
    1c42:	d8 01       	movw	r26, r16
    1c44:	2d 93       	st	X+, r18
    1c46:	3d 93       	st	X+, r19
    1c48:	4d 93       	st	X+, r20
    1c4a:	5c 93       	st	X, r21
    1c4c:	13 97       	sbiw	r26, 0x03	; 3

00001c4e <.Loc.450>:
	if (__tmp < 1.0)
    1c4e:	ce 01       	movw	r24, r28
    1c50:	8d 57       	subi	r24, 0x7D	; 125
    1c52:	9f 4f       	sbci	r25, 0xFF	; 255
    1c54:	20 e0       	ldi	r18, 0x00	; 0
    1c56:	30 e0       	ldi	r19, 0x00	; 0
    1c58:	40 e8       	ldi	r20, 0x80	; 128
    1c5a:	5f e3       	ldi	r21, 0x3F	; 63
    1c5c:	fc 01       	movw	r30, r24
    1c5e:	60 81       	ld	r22, Z
    1c60:	71 81       	ldd	r23, Z+1	; 0x01
    1c62:	82 81       	ldd	r24, Z+2	; 0x02
    1c64:	93 81       	ldd	r25, Z+3	; 0x03
    1c66:	0e 94 d1 1f 	call	0x3fa2	; 0x3fa2 <__cmpsf2>
    1c6a:	88 23       	and	r24, r24
    1c6c:	54 f4       	brge	.+20     	; 0x1c82 <.L339>

00001c6e <.Loc.451>:
		__ticks = 1;
    1c6e:	ce 01       	movw	r24, r28
    1c70:	89 57       	subi	r24, 0x79	; 121
    1c72:	9f 4f       	sbci	r25, 0xFF	; 255
    1c74:	21 e0       	ldi	r18, 0x01	; 1
    1c76:	30 e0       	ldi	r19, 0x00	; 0
    1c78:	dc 01       	movw	r26, r24
    1c7a:	11 96       	adiw	r26, 0x01	; 1
    1c7c:	3c 93       	st	X, r19
    1c7e:	2e 93       	st	-X, r18
    1c80:	a5 c0       	rjmp	.+330    	; 0x1dcc <.L142>

00001c82 <.L339>:
	else if (__tmp > 65535)
    1c82:	ce 01       	movw	r24, r28
    1c84:	8d 57       	subi	r24, 0x7D	; 125
    1c86:	9f 4f       	sbci	r25, 0xFF	; 255
    1c88:	20 e0       	ldi	r18, 0x00	; 0
    1c8a:	3f ef       	ldi	r19, 0xFF	; 255
    1c8c:	4f e7       	ldi	r20, 0x7F	; 127
    1c8e:	57 e4       	ldi	r21, 0x47	; 71
    1c90:	fc 01       	movw	r30, r24
    1c92:	60 81       	ld	r22, Z
    1c94:	71 81       	ldd	r23, Z+1	; 0x01
    1c96:	82 81       	ldd	r24, Z+2	; 0x02
    1c98:	93 81       	ldd	r25, Z+3	; 0x03
    1c9a:	0e 94 52 20 	call	0x40a4	; 0x40a4 <__gesf2>
    1c9e:	88 23       	and	r24, r24
    1ca0:	09 f0       	breq	.+2      	; 0x1ca4 <L0^A>

00001ca2 <L0^A>:
    1ca2:	0c f4       	brge	.+2      	; 0x1ca6 <.Loc.453>

00001ca4 <L0^A>:
    1ca4:	75 c0       	rjmp	.+234    	; 0x1d90 <.L340>

00001ca6 <.Loc.453>:
		__ticks = (uint16_t) (__ms * 10.0);
    1ca6:	ce 01       	movw	r24, r28
    1ca8:	81 58       	subi	r24, 0x81	; 129
    1caa:	9f 4f       	sbci	r25, 0xFF	; 255
    1cac:	20 e0       	ldi	r18, 0x00	; 0
    1cae:	30 e0       	ldi	r19, 0x00	; 0
    1cb0:	40 e2       	ldi	r20, 0x20	; 32
    1cb2:	51 e4       	ldi	r21, 0x41	; 65
    1cb4:	dc 01       	movw	r26, r24
    1cb6:	6d 91       	ld	r22, X+
    1cb8:	7d 91       	ld	r23, X+
    1cba:	8d 91       	ld	r24, X+
    1cbc:	9c 91       	ld	r25, X
    1cbe:	0e 94 57 20 	call	0x40ae	; 0x40ae <__mulsf3>
    1cc2:	cd 5c       	subi	r28, 0xCD	; 205
    1cc4:	dd 4f       	sbci	r29, 0xFD	; 253
    1cc6:	68 83       	st	Y, r22
    1cc8:	79 83       	std	Y+1, r23	; 0x01
    1cca:	8a 83       	std	Y+2, r24	; 0x02
    1ccc:	9b 83       	std	Y+3, r25	; 0x03
    1cce:	c3 53       	subi	r28, 0x33	; 51
    1cd0:	d2 40       	sbci	r29, 0x02	; 2
    1cd2:	cd 5c       	subi	r28, 0xCD	; 205
    1cd4:	dd 4f       	sbci	r29, 0xFD	; 253
    1cd6:	28 81       	ld	r18, Y
    1cd8:	39 81       	ldd	r19, Y+1	; 0x01
    1cda:	4a 81       	ldd	r20, Y+2	; 0x02
    1cdc:	5b 81       	ldd	r21, Y+3	; 0x03
    1cde:	c3 53       	subi	r28, 0x33	; 51
    1ce0:	d2 40       	sbci	r29, 0x02	; 2
    1ce2:	c9 59       	subi	r28, 0x99	; 153
    1ce4:	de 4f       	sbci	r29, 0xFE	; 254
    1ce6:	28 83       	st	Y, r18
    1ce8:	39 83       	std	Y+1, r19	; 0x01
    1cea:	4a 83       	std	Y+2, r20	; 0x02
    1cec:	5b 83       	std	Y+3, r21	; 0x03
    1cee:	c7 56       	subi	r28, 0x67	; 103
    1cf0:	d1 40       	sbci	r29, 0x01	; 1

00001cf2 <.Loc.454>:
    1cf2:	8e 01       	movw	r16, r28
    1cf4:	09 57       	subi	r16, 0x79	; 121
    1cf6:	1f 4f       	sbci	r17, 0xFF	; 255
    1cf8:	c9 59       	subi	r28, 0x99	; 153
    1cfa:	de 4f       	sbci	r29, 0xFE	; 254
    1cfc:	68 81       	ld	r22, Y
    1cfe:	79 81       	ldd	r23, Y+1	; 0x01
    1d00:	8a 81       	ldd	r24, Y+2	; 0x02
    1d02:	9b 81       	ldd	r25, Y+3	; 0x03
    1d04:	c7 56       	subi	r28, 0x67	; 103
    1d06:	d1 40       	sbci	r29, 0x01	; 1
    1d08:	0e 94 d6 1f 	call	0x3fac	; 0x3fac <__fixunssfsi>
    1d0c:	c9 5c       	subi	r28, 0xC9	; 201
    1d0e:	dd 4f       	sbci	r29, 0xFD	; 253
    1d10:	68 83       	st	Y, r22
    1d12:	79 83       	std	Y+1, r23	; 0x01
    1d14:	8a 83       	std	Y+2, r24	; 0x02
    1d16:	9b 83       	std	Y+3, r25	; 0x03
    1d18:	c7 53       	subi	r28, 0x37	; 55
    1d1a:	d2 40       	sbci	r29, 0x02	; 2
    1d1c:	c9 5c       	subi	r28, 0xC9	; 201
    1d1e:	dd 4f       	sbci	r29, 0xFD	; 253
    1d20:	e8 81       	ld	r30, Y
    1d22:	f9 81       	ldd	r31, Y+1	; 0x01
    1d24:	c7 53       	subi	r28, 0x37	; 55
    1d26:	d2 40       	sbci	r29, 0x02	; 2
    1d28:	d8 01       	movw	r26, r16
    1d2a:	11 96       	adiw	r26, 0x01	; 1
    1d2c:	fc 93       	st	X, r31
    1d2e:	ee 93       	st	-X, r30

00001d30 <.Loc.455>:
		while(__ticks)
    1d30:	26 c0       	rjmp	.+76     	; 0x1d7e <.L145>

00001d32 <.L146>:
    1d32:	ce 01       	movw	r24, r28
    1d34:	87 57       	subi	r24, 0x77	; 119
    1d36:	9f 4f       	sbci	r25, 0xFF	; 255
    1d38:	20 e9       	ldi	r18, 0x90	; 144
    1d3a:	31 e0       	ldi	r19, 0x01	; 1
    1d3c:	dc 01       	movw	r26, r24
    1d3e:	2d 93       	st	X+, r18
    1d40:	3c 93       	st	X, r19

00001d42 <.LBB202>:
    1d42:	ce 01       	movw	r24, r28
    1d44:	87 57       	subi	r24, 0x77	; 119
    1d46:	9f 4f       	sbci	r25, 0xFF	; 255
    1d48:	fc 01       	movw	r30, r24
    1d4a:	80 81       	ld	r24, Z
    1d4c:	91 81       	ldd	r25, Z+1	; 0x01

00001d4e <.L1^B20>:
    1d4e:	01 97       	sbiw	r24, 0x01	; 1
    1d50:	f1 f7       	brne	.-4      	; 0x1d4e <.L1^B20>
    1d52:	9e 01       	movw	r18, r28
    1d54:	27 57       	subi	r18, 0x77	; 119
    1d56:	3f 4f       	sbci	r19, 0xFF	; 255
    1d58:	d9 01       	movw	r26, r18
    1d5a:	8d 93       	st	X+, r24
    1d5c:	9c 93       	st	X, r25

00001d5e <.Loc.457>:
	...

00001d60 <.LBE202>:
			__ticks --;
    1d60:	ce 01       	movw	r24, r28
    1d62:	89 57       	subi	r24, 0x79	; 121
    1d64:	9f 4f       	sbci	r25, 0xFF	; 255
    1d66:	9e 01       	movw	r18, r28
    1d68:	29 57       	subi	r18, 0x79	; 121
    1d6a:	3f 4f       	sbci	r19, 0xFF	; 255
    1d6c:	f9 01       	movw	r30, r18
    1d6e:	20 81       	ld	r18, Z
    1d70:	31 81       	ldd	r19, Z+1	; 0x01
    1d72:	21 50       	subi	r18, 0x01	; 1
    1d74:	31 09       	sbc	r19, r1
    1d76:	dc 01       	movw	r26, r24
    1d78:	11 96       	adiw	r26, 0x01	; 1
    1d7a:	3c 93       	st	X, r19
    1d7c:	2e 93       	st	-X, r18

00001d7e <.L145>:
		while(__ticks)
    1d7e:	ce 01       	movw	r24, r28
    1d80:	89 57       	subi	r24, 0x79	; 121
    1d82:	9f 4f       	sbci	r25, 0xFF	; 255
    1d84:	fc 01       	movw	r30, r24
    1d86:	80 81       	ld	r24, Z
    1d88:	91 81       	ldd	r25, Z+1	; 0x01
    1d8a:	00 97       	sbiw	r24, 0x00	; 0
    1d8c:	91 f6       	brne	.-92     	; 0x1d32 <.L146>

00001d8e <.Loc.460>:
		return;
    1d8e:	3a c0       	rjmp	.+116    	; 0x1e04 <.L147>

00001d90 <.L340>:
		__ticks = (uint16_t)__tmp;
    1d90:	8e 01       	movw	r16, r28
    1d92:	09 57       	subi	r16, 0x79	; 121
    1d94:	1f 4f       	sbci	r17, 0xFF	; 255
    1d96:	ce 01       	movw	r24, r28
    1d98:	8d 57       	subi	r24, 0x7D	; 125
    1d9a:	9f 4f       	sbci	r25, 0xFF	; 255
    1d9c:	dc 01       	movw	r26, r24
    1d9e:	6d 91       	ld	r22, X+
    1da0:	7d 91       	ld	r23, X+
    1da2:	8d 91       	ld	r24, X+
    1da4:	9c 91       	ld	r25, X
    1da6:	0e 94 d6 1f 	call	0x3fac	; 0x3fac <__fixunssfsi>
    1daa:	c5 5c       	subi	r28, 0xC5	; 197
    1dac:	dd 4f       	sbci	r29, 0xFD	; 253
    1dae:	68 83       	st	Y, r22
    1db0:	79 83       	std	Y+1, r23	; 0x01
    1db2:	8a 83       	std	Y+2, r24	; 0x02
    1db4:	9b 83       	std	Y+3, r25	; 0x03
    1db6:	cb 53       	subi	r28, 0x3B	; 59
    1db8:	d2 40       	sbci	r29, 0x02	; 2
    1dba:	c5 5c       	subi	r28, 0xC5	; 197
    1dbc:	dd 4f       	sbci	r29, 0xFD	; 253
    1dbe:	28 81       	ld	r18, Y
    1dc0:	39 81       	ldd	r19, Y+1	; 0x01
    1dc2:	cb 53       	subi	r28, 0x3B	; 59
    1dc4:	d2 40       	sbci	r29, 0x02	; 2
    1dc6:	f8 01       	movw	r30, r16
    1dc8:	31 83       	std	Z+1, r19	; 0x01
    1dca:	20 83       	st	Z, r18

00001dcc <.L142>:
    1dcc:	ce 01       	movw	r24, r28
    1dce:	85 57       	subi	r24, 0x75	; 117
    1dd0:	9f 4f       	sbci	r25, 0xFF	; 255
    1dd2:	9e 01       	movw	r18, r28
    1dd4:	29 57       	subi	r18, 0x79	; 121
    1dd6:	3f 4f       	sbci	r19, 0xFF	; 255
    1dd8:	d9 01       	movw	r26, r18
    1dda:	2d 91       	ld	r18, X+
    1ddc:	3c 91       	ld	r19, X
    1dde:	fc 01       	movw	r30, r24
    1de0:	31 83       	std	Z+1, r19	; 0x01
    1de2:	20 83       	st	Z, r18

00001de4 <.LBB204>:
    1de4:	ce 01       	movw	r24, r28
    1de6:	85 57       	subi	r24, 0x75	; 117
    1de8:	9f 4f       	sbci	r25, 0xFF	; 255
    1dea:	dc 01       	movw	r26, r24
    1dec:	8d 91       	ld	r24, X+
    1dee:	9c 91       	ld	r25, X
    1df0:	11 97       	sbiw	r26, 0x01	; 1

00001df2 <.L1^B21>:
    1df2:	01 97       	sbiw	r24, 0x01	; 1
    1df4:	f1 f7       	brne	.-4      	; 0x1df2 <.L1^B21>
    1df6:	9e 01       	movw	r18, r28
    1df8:	25 57       	subi	r18, 0x75	; 117
    1dfa:	3f 4f       	sbci	r19, 0xFF	; 255
    1dfc:	f9 01       	movw	r30, r18
    1dfe:	91 83       	std	Z+1, r25	; 0x01
    1e00:	80 83       	st	Z, r24

00001e02 <.Loc.463>:
	...

00001e04 <.L147>:
                            {
                                _delay_ms(30);
                                if (n>0)
    1e04:	80 91 0e 02 	lds	r24, 0x020E	; 0x80020e <n>
    1e08:	90 91 0f 02 	lds	r25, 0x020F	; 0x80020f <n+0x1>

00001e0c <.Loc.465>:
    1e0c:	00 97       	sbiw	r24, 0x00	; 0
    1e0e:	59 f0       	breq	.+22     	; 0x1e26 <.L148>
    1e10:	54 f0       	brlt	.+20     	; 0x1e26 <.L148>

00001e12 <.Loc.466>:
                                    {
                                    n-=1;
    1e12:	80 91 0e 02 	lds	r24, 0x020E	; 0x80020e <n>
    1e16:	90 91 0f 02 	lds	r25, 0x020F	; 0x80020f <n+0x1>
    1e1a:	01 97       	sbiw	r24, 0x01	; 1
    1e1c:	90 93 0f 02 	sts	0x020F, r25	; 0x80020f <n+0x1>
    1e20:	80 93 0e 02 	sts	0x020E, r24	; 0x80020e <n>
    1e24:	06 c0       	rjmp	.+12     	; 0x1e32 <.L149>

00001e26 <.L148>:
                                    }
                                else {  //Wraparound Action baybee!
                                        n=9;
    1e26:	89 e0       	ldi	r24, 0x09	; 9
    1e28:	90 e0       	ldi	r25, 0x00	; 0
    1e2a:	90 93 0f 02 	sts	0x020F, r25	; 0x80020f <n+0x1>
    1e2e:	80 93 0e 02 	sts	0x020E, r24	; 0x80020e <n>

00001e32 <.L149>:
                                     }
                                knop1_ingedrukt = 1;
    1e32:	81 e0       	ldi	r24, 0x01	; 1
    1e34:	90 e0       	ldi	r25, 0x00	; 0
    1e36:	90 93 15 02 	sts	0x0215, r25	; 0x800215 <knop1_ingedrukt+0x1>
    1e3a:	80 93 14 02 	sts	0x0214, r24	; 0x800214 <knop1_ingedrukt>
    1e3e:	18 c1       	rjmp	.+560    	; 0x2070 <.L139>

00001e40 <.L138>:
                            }
                        }
                    else
                        {
                        if (knop1_ingedrukt != 0) // knop is zojuist losgelaten
    1e40:	80 91 14 02 	lds	r24, 0x0214	; 0x800214 <knop1_ingedrukt>
    1e44:	90 91 15 02 	lds	r25, 0x0215	; 0x800215 <knop1_ingedrukt+0x1>

00001e48 <.Loc.470>:
    1e48:	00 97       	sbiw	r24, 0x00	; 0
    1e4a:	09 f4       	brne	.+2      	; 0x1e4e <L0^A+0x2>

00001e4c <L0^A>:
    1e4c:	11 c1       	rjmp	.+546    	; 0x2070 <.L139>
    1e4e:	9e 01       	movw	r18, r28
    1e50:	23 57       	subi	r18, 0x73	; 115
    1e52:	3f 4f       	sbci	r19, 0xFF	; 255
    1e54:	80 e0       	ldi	r24, 0x00	; 0
    1e56:	90 e0       	ldi	r25, 0x00	; 0
    1e58:	a0 ef       	ldi	r26, 0xF0	; 240
    1e5a:	b1 e4       	ldi	r27, 0x41	; 65
    1e5c:	f9 01       	movw	r30, r18
    1e5e:	80 83       	st	Z, r24
    1e60:	91 83       	std	Z+1, r25	; 0x01
    1e62:	a2 83       	std	Z+2, r26	; 0x02
    1e64:	b3 83       	std	Z+3, r27	; 0x03

00001e66 <.LBB206>:
	__tmp = ((F_CPU) / 4e3) * __ms;
    1e66:	8e 01       	movw	r16, r28
    1e68:	0f 56       	subi	r16, 0x6F	; 111
    1e6a:	1f 4f       	sbci	r17, 0xFF	; 255
    1e6c:	ce 01       	movw	r24, r28
    1e6e:	83 57       	subi	r24, 0x73	; 115
    1e70:	9f 4f       	sbci	r25, 0xFF	; 255
    1e72:	20 e0       	ldi	r18, 0x00	; 0
    1e74:	30 e0       	ldi	r19, 0x00	; 0
    1e76:	4a e7       	ldi	r20, 0x7A	; 122
    1e78:	55 e4       	ldi	r21, 0x45	; 69
    1e7a:	dc 01       	movw	r26, r24
    1e7c:	6d 91       	ld	r22, X+
    1e7e:	7d 91       	ld	r23, X+
    1e80:	8d 91       	ld	r24, X+
    1e82:	9c 91       	ld	r25, X
    1e84:	0e 94 57 20 	call	0x40ae	; 0x40ae <__mulsf3>
    1e88:	c1 5c       	subi	r28, 0xC1	; 193
    1e8a:	dd 4f       	sbci	r29, 0xFD	; 253
    1e8c:	68 83       	st	Y, r22
    1e8e:	79 83       	std	Y+1, r23	; 0x01
    1e90:	8a 83       	std	Y+2, r24	; 0x02
    1e92:	9b 83       	std	Y+3, r25	; 0x03
    1e94:	cf 53       	subi	r28, 0x3F	; 63
    1e96:	d2 40       	sbci	r29, 0x02	; 2
    1e98:	c1 5c       	subi	r28, 0xC1	; 193
    1e9a:	dd 4f       	sbci	r29, 0xFD	; 253
    1e9c:	28 81       	ld	r18, Y
    1e9e:	39 81       	ldd	r19, Y+1	; 0x01
    1ea0:	4a 81       	ldd	r20, Y+2	; 0x02
    1ea2:	5b 81       	ldd	r21, Y+3	; 0x03
    1ea4:	cf 53       	subi	r28, 0x3F	; 63
    1ea6:	d2 40       	sbci	r29, 0x02	; 2
    1ea8:	d8 01       	movw	r26, r16
    1eaa:	2d 93       	st	X+, r18
    1eac:	3d 93       	st	X+, r19
    1eae:	4d 93       	st	X+, r20
    1eb0:	5c 93       	st	X, r21
    1eb2:	13 97       	sbiw	r26, 0x03	; 3

00001eb4 <.Loc.472>:
	if (__tmp < 1.0)
    1eb4:	ce 01       	movw	r24, r28
    1eb6:	8f 56       	subi	r24, 0x6F	; 111
    1eb8:	9f 4f       	sbci	r25, 0xFF	; 255
    1eba:	20 e0       	ldi	r18, 0x00	; 0
    1ebc:	30 e0       	ldi	r19, 0x00	; 0
    1ebe:	40 e8       	ldi	r20, 0x80	; 128
    1ec0:	5f e3       	ldi	r21, 0x3F	; 63
    1ec2:	fc 01       	movw	r30, r24
    1ec4:	60 81       	ld	r22, Z
    1ec6:	71 81       	ldd	r23, Z+1	; 0x01
    1ec8:	82 81       	ldd	r24, Z+2	; 0x02
    1eca:	93 81       	ldd	r25, Z+3	; 0x03
    1ecc:	0e 94 d1 1f 	call	0x3fa2	; 0x3fa2 <__cmpsf2>
    1ed0:	88 23       	and	r24, r24
    1ed2:	54 f4       	brge	.+20     	; 0x1ee8 <.L341>

00001ed4 <.Loc.473>:
		__ticks = 1;
    1ed4:	ce 01       	movw	r24, r28
    1ed6:	8b 56       	subi	r24, 0x6B	; 107
    1ed8:	9f 4f       	sbci	r25, 0xFF	; 255
    1eda:	21 e0       	ldi	r18, 0x01	; 1
    1edc:	30 e0       	ldi	r19, 0x00	; 0
    1ede:	dc 01       	movw	r26, r24
    1ee0:	11 96       	adiw	r26, 0x01	; 1
    1ee2:	3c 93       	st	X, r19
    1ee4:	2e 93       	st	-X, r18
    1ee6:	a5 c0       	rjmp	.+330    	; 0x2032 <.L152>

00001ee8 <.L341>:
	else if (__tmp > 65535)
    1ee8:	ce 01       	movw	r24, r28
    1eea:	8f 56       	subi	r24, 0x6F	; 111
    1eec:	9f 4f       	sbci	r25, 0xFF	; 255
    1eee:	20 e0       	ldi	r18, 0x00	; 0
    1ef0:	3f ef       	ldi	r19, 0xFF	; 255
    1ef2:	4f e7       	ldi	r20, 0x7F	; 127
    1ef4:	57 e4       	ldi	r21, 0x47	; 71
    1ef6:	fc 01       	movw	r30, r24
    1ef8:	60 81       	ld	r22, Z
    1efa:	71 81       	ldd	r23, Z+1	; 0x01
    1efc:	82 81       	ldd	r24, Z+2	; 0x02
    1efe:	93 81       	ldd	r25, Z+3	; 0x03
    1f00:	0e 94 52 20 	call	0x40a4	; 0x40a4 <__gesf2>
    1f04:	88 23       	and	r24, r24
    1f06:	09 f0       	breq	.+2      	; 0x1f0a <L0^A>

00001f08 <L0^A>:
    1f08:	0c f4       	brge	.+2      	; 0x1f0c <.Loc.475>

00001f0a <L0^A>:
    1f0a:	75 c0       	rjmp	.+234    	; 0x1ff6 <.L342>

00001f0c <.Loc.475>:
		__ticks = (uint16_t) (__ms * 10.0);
    1f0c:	ce 01       	movw	r24, r28
    1f0e:	83 57       	subi	r24, 0x73	; 115
    1f10:	9f 4f       	sbci	r25, 0xFF	; 255
    1f12:	20 e0       	ldi	r18, 0x00	; 0
    1f14:	30 e0       	ldi	r19, 0x00	; 0
    1f16:	40 e2       	ldi	r20, 0x20	; 32
    1f18:	51 e4       	ldi	r21, 0x41	; 65
    1f1a:	dc 01       	movw	r26, r24
    1f1c:	6d 91       	ld	r22, X+
    1f1e:	7d 91       	ld	r23, X+
    1f20:	8d 91       	ld	r24, X+
    1f22:	9c 91       	ld	r25, X
    1f24:	0e 94 57 20 	call	0x40ae	; 0x40ae <__mulsf3>
    1f28:	cd 5b       	subi	r28, 0xBD	; 189
    1f2a:	dd 4f       	sbci	r29, 0xFD	; 253
    1f2c:	68 83       	st	Y, r22
    1f2e:	79 83       	std	Y+1, r23	; 0x01
    1f30:	8a 83       	std	Y+2, r24	; 0x02
    1f32:	9b 83       	std	Y+3, r25	; 0x03
    1f34:	c3 54       	subi	r28, 0x43	; 67
    1f36:	d2 40       	sbci	r29, 0x02	; 2
    1f38:	cd 5b       	subi	r28, 0xBD	; 189
    1f3a:	dd 4f       	sbci	r29, 0xFD	; 253
    1f3c:	28 81       	ld	r18, Y
    1f3e:	39 81       	ldd	r19, Y+1	; 0x01
    1f40:	4a 81       	ldd	r20, Y+2	; 0x02
    1f42:	5b 81       	ldd	r21, Y+3	; 0x03
    1f44:	c3 54       	subi	r28, 0x43	; 67
    1f46:	d2 40       	sbci	r29, 0x02	; 2
    1f48:	c5 59       	subi	r28, 0x95	; 149
    1f4a:	de 4f       	sbci	r29, 0xFE	; 254
    1f4c:	28 83       	st	Y, r18
    1f4e:	39 83       	std	Y+1, r19	; 0x01
    1f50:	4a 83       	std	Y+2, r20	; 0x02
    1f52:	5b 83       	std	Y+3, r21	; 0x03
    1f54:	cb 56       	subi	r28, 0x6B	; 107
    1f56:	d1 40       	sbci	r29, 0x01	; 1

00001f58 <.Loc.476>:
    1f58:	8e 01       	movw	r16, r28
    1f5a:	0b 56       	subi	r16, 0x6B	; 107
    1f5c:	1f 4f       	sbci	r17, 0xFF	; 255
    1f5e:	c5 59       	subi	r28, 0x95	; 149
    1f60:	de 4f       	sbci	r29, 0xFE	; 254
    1f62:	68 81       	ld	r22, Y
    1f64:	79 81       	ldd	r23, Y+1	; 0x01
    1f66:	8a 81       	ldd	r24, Y+2	; 0x02
    1f68:	9b 81       	ldd	r25, Y+3	; 0x03
    1f6a:	cb 56       	subi	r28, 0x6B	; 107
    1f6c:	d1 40       	sbci	r29, 0x01	; 1
    1f6e:	0e 94 d6 1f 	call	0x3fac	; 0x3fac <__fixunssfsi>
    1f72:	c9 5b       	subi	r28, 0xB9	; 185
    1f74:	dd 4f       	sbci	r29, 0xFD	; 253
    1f76:	68 83       	st	Y, r22
    1f78:	79 83       	std	Y+1, r23	; 0x01
    1f7a:	8a 83       	std	Y+2, r24	; 0x02
    1f7c:	9b 83       	std	Y+3, r25	; 0x03
    1f7e:	c7 54       	subi	r28, 0x47	; 71
    1f80:	d2 40       	sbci	r29, 0x02	; 2
    1f82:	c9 5b       	subi	r28, 0xB9	; 185
    1f84:	dd 4f       	sbci	r29, 0xFD	; 253
    1f86:	e8 81       	ld	r30, Y
    1f88:	f9 81       	ldd	r31, Y+1	; 0x01
    1f8a:	c7 54       	subi	r28, 0x47	; 71
    1f8c:	d2 40       	sbci	r29, 0x02	; 2
    1f8e:	d8 01       	movw	r26, r16
    1f90:	11 96       	adiw	r26, 0x01	; 1
    1f92:	fc 93       	st	X, r31
    1f94:	ee 93       	st	-X, r30

00001f96 <.Loc.477>:
		while(__ticks)
    1f96:	26 c0       	rjmp	.+76     	; 0x1fe4 <.L155>

00001f98 <.L156>:
    1f98:	ce 01       	movw	r24, r28
    1f9a:	89 56       	subi	r24, 0x69	; 105
    1f9c:	9f 4f       	sbci	r25, 0xFF	; 255
    1f9e:	20 e9       	ldi	r18, 0x90	; 144
    1fa0:	31 e0       	ldi	r19, 0x01	; 1
    1fa2:	dc 01       	movw	r26, r24
    1fa4:	2d 93       	st	X+, r18
    1fa6:	3c 93       	st	X, r19

00001fa8 <.LBB208>:
    1fa8:	ce 01       	movw	r24, r28
    1faa:	89 56       	subi	r24, 0x69	; 105
    1fac:	9f 4f       	sbci	r25, 0xFF	; 255
    1fae:	fc 01       	movw	r30, r24
    1fb0:	80 81       	ld	r24, Z
    1fb2:	91 81       	ldd	r25, Z+1	; 0x01

00001fb4 <.L1^B22>:
    1fb4:	01 97       	sbiw	r24, 0x01	; 1
    1fb6:	f1 f7       	brne	.-4      	; 0x1fb4 <.L1^B22>
    1fb8:	9e 01       	movw	r18, r28
    1fba:	29 56       	subi	r18, 0x69	; 105
    1fbc:	3f 4f       	sbci	r19, 0xFF	; 255
    1fbe:	d9 01       	movw	r26, r18
    1fc0:	8d 93       	st	X+, r24
    1fc2:	9c 93       	st	X, r25

00001fc4 <.Loc.479>:
	...

00001fc6 <.LBE208>:
			__ticks --;
    1fc6:	ce 01       	movw	r24, r28
    1fc8:	8b 56       	subi	r24, 0x6B	; 107
    1fca:	9f 4f       	sbci	r25, 0xFF	; 255
    1fcc:	9e 01       	movw	r18, r28
    1fce:	2b 56       	subi	r18, 0x6B	; 107
    1fd0:	3f 4f       	sbci	r19, 0xFF	; 255
    1fd2:	f9 01       	movw	r30, r18
    1fd4:	20 81       	ld	r18, Z
    1fd6:	31 81       	ldd	r19, Z+1	; 0x01
    1fd8:	21 50       	subi	r18, 0x01	; 1
    1fda:	31 09       	sbc	r19, r1
    1fdc:	dc 01       	movw	r26, r24
    1fde:	11 96       	adiw	r26, 0x01	; 1
    1fe0:	3c 93       	st	X, r19
    1fe2:	2e 93       	st	-X, r18

00001fe4 <.L155>:
		while(__ticks)
    1fe4:	ce 01       	movw	r24, r28
    1fe6:	8b 56       	subi	r24, 0x6B	; 107
    1fe8:	9f 4f       	sbci	r25, 0xFF	; 255
    1fea:	fc 01       	movw	r30, r24
    1fec:	80 81       	ld	r24, Z
    1fee:	91 81       	ldd	r25, Z+1	; 0x01
    1ff0:	00 97       	sbiw	r24, 0x00	; 0
    1ff2:	91 f6       	brne	.-92     	; 0x1f98 <.L156>

00001ff4 <.Loc.482>:
		return;
    1ff4:	39 c0       	rjmp	.+114    	; 0x2068 <.L157>

00001ff6 <.L342>:
		__ticks = (uint16_t)__tmp;
    1ff6:	8e 01       	movw	r16, r28
    1ff8:	0b 56       	subi	r16, 0x6B	; 107
    1ffa:	1f 4f       	sbci	r17, 0xFF	; 255
    1ffc:	ce 01       	movw	r24, r28
    1ffe:	8f 56       	subi	r24, 0x6F	; 111
    2000:	9f 4f       	sbci	r25, 0xFF	; 255
    2002:	dc 01       	movw	r26, r24
    2004:	6d 91       	ld	r22, X+
    2006:	7d 91       	ld	r23, X+
    2008:	8d 91       	ld	r24, X+
    200a:	9c 91       	ld	r25, X
    200c:	0e 94 d6 1f 	call	0x3fac	; 0x3fac <__fixunssfsi>
    2010:	c5 5b       	subi	r28, 0xB5	; 181
    2012:	dd 4f       	sbci	r29, 0xFD	; 253
    2014:	68 83       	st	Y, r22
    2016:	79 83       	std	Y+1, r23	; 0x01
    2018:	8a 83       	std	Y+2, r24	; 0x02
    201a:	9b 83       	std	Y+3, r25	; 0x03
    201c:	cb 54       	subi	r28, 0x4B	; 75
    201e:	d2 40       	sbci	r29, 0x02	; 2
    2020:	c5 5b       	subi	r28, 0xB5	; 181
    2022:	dd 4f       	sbci	r29, 0xFD	; 253
    2024:	28 81       	ld	r18, Y
    2026:	39 81       	ldd	r19, Y+1	; 0x01
    2028:	cb 54       	subi	r28, 0x4B	; 75
    202a:	d2 40       	sbci	r29, 0x02	; 2
    202c:	f8 01       	movw	r30, r16
    202e:	31 83       	std	Z+1, r19	; 0x01
    2030:	20 83       	st	Z, r18

00002032 <.L152>:
    2032:	ce 01       	movw	r24, r28
    2034:	87 56       	subi	r24, 0x67	; 103
    2036:	9f 4f       	sbci	r25, 0xFF	; 255
    2038:	9e 01       	movw	r18, r28
    203a:	2b 56       	subi	r18, 0x6B	; 107
    203c:	3f 4f       	sbci	r19, 0xFF	; 255
    203e:	d9 01       	movw	r26, r18
    2040:	2d 91       	ld	r18, X+
    2042:	3c 91       	ld	r19, X
    2044:	fc 01       	movw	r30, r24
    2046:	31 83       	std	Z+1, r19	; 0x01
    2048:	20 83       	st	Z, r18

0000204a <.LBB210>:
    204a:	ce 01       	movw	r24, r28
    204c:	87 56       	subi	r24, 0x67	; 103
    204e:	9f 4f       	sbci	r25, 0xFF	; 255
    2050:	dc 01       	movw	r26, r24
    2052:	8d 91       	ld	r24, X+
    2054:	9c 91       	ld	r25, X

00002056 <.L1^B23>:
    2056:	01 97       	sbiw	r24, 0x01	; 1
    2058:	f1 f7       	brne	.-4      	; 0x2056 <.L1^B23>
    205a:	9e 01       	movw	r18, r28
    205c:	27 56       	subi	r18, 0x67	; 103
    205e:	3f 4f       	sbci	r19, 0xFF	; 255
    2060:	f9 01       	movw	r30, r18
    2062:	91 83       	std	Z+1, r25	; 0x01
    2064:	80 83       	st	Z, r24

00002066 <.Loc.485>:
	...

00002068 <.L157>:
                            {
                                _delay_ms(30);
                                knop1_ingedrukt = 0;
    2068:	10 92 15 02 	sts	0x0215, r1	; 0x800215 <knop1_ingedrukt+0x1>
    206c:	10 92 14 02 	sts	0x0214, r1	; 0x800214 <knop1_ingedrukt>

00002070 <.L139>:
                            }
                        }


                    if (PINL & (1 << plus))
    2070:	89 e0       	ldi	r24, 0x09	; 9
    2072:	91 e0       	ldi	r25, 0x01	; 1
    2074:	dc 01       	movw	r26, r24
    2076:	8c 91       	ld	r24, X

00002078 <.Loc.488>:
    2078:	88 2f       	mov	r24, r24
    207a:	90 e0       	ldi	r25, 0x00	; 0
    207c:	84 70       	andi	r24, 0x04	; 4
    207e:	99 27       	eor	r25, r25

00002080 <.Loc.489>:
    2080:	00 97       	sbiw	r24, 0x00	; 0
    2082:	09 f4       	brne	.+2      	; 0x2086 <.Loc.490>

00002084 <L0^A>:
    2084:	32 c1       	rjmp	.+612    	; 0x22ea <.L158>

00002086 <.Loc.490>:
                        {
                            if (knop3_ingedrukt == 0) // knop is niet al eerder ingedrukt
    2086:	80 91 18 02 	lds	r24, 0x0218	; 0x800218 <knop3_ingedrukt>
    208a:	90 91 19 02 	lds	r25, 0x0219	; 0x800219 <knop3_ingedrukt+0x1>

0000208e <.Loc.491>:
    208e:	00 97       	sbiw	r24, 0x00	; 0
    2090:	09 f0       	breq	.+2      	; 0x2094 <L0^A+0x2>

00002092 <L0^A>:
    2092:	43 c2       	rjmp	.+1158   	; 0x251a <.L159>
    2094:	9e 01       	movw	r18, r28
    2096:	25 56       	subi	r18, 0x65	; 101
    2098:	3f 4f       	sbci	r19, 0xFF	; 255
    209a:	80 e0       	ldi	r24, 0x00	; 0
    209c:	90 e0       	ldi	r25, 0x00	; 0
    209e:	a0 ef       	ldi	r26, 0xF0	; 240
    20a0:	b1 e4       	ldi	r27, 0x41	; 65
    20a2:	f9 01       	movw	r30, r18
    20a4:	80 83       	st	Z, r24
    20a6:	91 83       	std	Z+1, r25	; 0x01
    20a8:	a2 83       	std	Z+2, r26	; 0x02
    20aa:	b3 83       	std	Z+3, r27	; 0x03

000020ac <.LBB212>:
	__tmp = ((F_CPU) / 4e3) * __ms;
    20ac:	8e 01       	movw	r16, r28
    20ae:	01 56       	subi	r16, 0x61	; 97
    20b0:	1f 4f       	sbci	r17, 0xFF	; 255
    20b2:	ce 01       	movw	r24, r28
    20b4:	85 56       	subi	r24, 0x65	; 101
    20b6:	9f 4f       	sbci	r25, 0xFF	; 255
    20b8:	20 e0       	ldi	r18, 0x00	; 0
    20ba:	30 e0       	ldi	r19, 0x00	; 0
    20bc:	4a e7       	ldi	r20, 0x7A	; 122
    20be:	55 e4       	ldi	r21, 0x45	; 69
    20c0:	dc 01       	movw	r26, r24
    20c2:	6d 91       	ld	r22, X+
    20c4:	7d 91       	ld	r23, X+
    20c6:	8d 91       	ld	r24, X+
    20c8:	9c 91       	ld	r25, X
    20ca:	0e 94 57 20 	call	0x40ae	; 0x40ae <__mulsf3>
    20ce:	c1 5b       	subi	r28, 0xB1	; 177
    20d0:	dd 4f       	sbci	r29, 0xFD	; 253
    20d2:	68 83       	st	Y, r22
    20d4:	79 83       	std	Y+1, r23	; 0x01
    20d6:	8a 83       	std	Y+2, r24	; 0x02
    20d8:	9b 83       	std	Y+3, r25	; 0x03
    20da:	cf 54       	subi	r28, 0x4F	; 79
    20dc:	d2 40       	sbci	r29, 0x02	; 2
    20de:	c1 5b       	subi	r28, 0xB1	; 177
    20e0:	dd 4f       	sbci	r29, 0xFD	; 253
    20e2:	28 81       	ld	r18, Y
    20e4:	39 81       	ldd	r19, Y+1	; 0x01
    20e6:	4a 81       	ldd	r20, Y+2	; 0x02
    20e8:	5b 81       	ldd	r21, Y+3	; 0x03
    20ea:	cf 54       	subi	r28, 0x4F	; 79
    20ec:	d2 40       	sbci	r29, 0x02	; 2
    20ee:	d8 01       	movw	r26, r16
    20f0:	2d 93       	st	X+, r18
    20f2:	3d 93       	st	X+, r19
    20f4:	4d 93       	st	X+, r20
    20f6:	5c 93       	st	X, r21
    20f8:	13 97       	sbiw	r26, 0x03	; 3

000020fa <.Loc.493>:
	if (__tmp < 1.0)
    20fa:	ce 01       	movw	r24, r28
    20fc:	81 56       	subi	r24, 0x61	; 97
    20fe:	9f 4f       	sbci	r25, 0xFF	; 255
    2100:	20 e0       	ldi	r18, 0x00	; 0
    2102:	30 e0       	ldi	r19, 0x00	; 0
    2104:	40 e8       	ldi	r20, 0x80	; 128
    2106:	5f e3       	ldi	r21, 0x3F	; 63
    2108:	fc 01       	movw	r30, r24
    210a:	60 81       	ld	r22, Z
    210c:	71 81       	ldd	r23, Z+1	; 0x01
    210e:	82 81       	ldd	r24, Z+2	; 0x02
    2110:	93 81       	ldd	r25, Z+3	; 0x03
    2112:	0e 94 d1 1f 	call	0x3fa2	; 0x3fa2 <__cmpsf2>
    2116:	88 23       	and	r24, r24
    2118:	54 f4       	brge	.+20     	; 0x212e <.L343>

0000211a <.Loc.494>:
		__ticks = 1;
    211a:	ce 01       	movw	r24, r28
    211c:	8d 55       	subi	r24, 0x5D	; 93
    211e:	9f 4f       	sbci	r25, 0xFF	; 255
    2120:	21 e0       	ldi	r18, 0x01	; 1
    2122:	30 e0       	ldi	r19, 0x00	; 0
    2124:	dc 01       	movw	r26, r24
    2126:	11 96       	adiw	r26, 0x01	; 1
    2128:	3c 93       	st	X, r19
    212a:	2e 93       	st	-X, r18
    212c:	a5 c0       	rjmp	.+330    	; 0x2278 <.L162>

0000212e <.L343>:
	else if (__tmp > 65535)
    212e:	ce 01       	movw	r24, r28
    2130:	81 56       	subi	r24, 0x61	; 97
    2132:	9f 4f       	sbci	r25, 0xFF	; 255
    2134:	20 e0       	ldi	r18, 0x00	; 0
    2136:	3f ef       	ldi	r19, 0xFF	; 255
    2138:	4f e7       	ldi	r20, 0x7F	; 127
    213a:	57 e4       	ldi	r21, 0x47	; 71
    213c:	fc 01       	movw	r30, r24
    213e:	60 81       	ld	r22, Z
    2140:	71 81       	ldd	r23, Z+1	; 0x01
    2142:	82 81       	ldd	r24, Z+2	; 0x02
    2144:	93 81       	ldd	r25, Z+3	; 0x03
    2146:	0e 94 52 20 	call	0x40a4	; 0x40a4 <__gesf2>
    214a:	88 23       	and	r24, r24
    214c:	09 f0       	breq	.+2      	; 0x2150 <L0^A>

0000214e <L0^A>:
    214e:	0c f4       	brge	.+2      	; 0x2152 <.Loc.496>

00002150 <L0^A>:
    2150:	75 c0       	rjmp	.+234    	; 0x223c <.L344>

00002152 <.Loc.496>:
		__ticks = (uint16_t) (__ms * 10.0);
    2152:	ce 01       	movw	r24, r28
    2154:	85 56       	subi	r24, 0x65	; 101
    2156:	9f 4f       	sbci	r25, 0xFF	; 255
    2158:	20 e0       	ldi	r18, 0x00	; 0
    215a:	30 e0       	ldi	r19, 0x00	; 0
    215c:	40 e2       	ldi	r20, 0x20	; 32
    215e:	51 e4       	ldi	r21, 0x41	; 65
    2160:	dc 01       	movw	r26, r24
    2162:	6d 91       	ld	r22, X+
    2164:	7d 91       	ld	r23, X+
    2166:	8d 91       	ld	r24, X+
    2168:	9c 91       	ld	r25, X
    216a:	0e 94 57 20 	call	0x40ae	; 0x40ae <__mulsf3>
    216e:	cd 5a       	subi	r28, 0xAD	; 173
    2170:	dd 4f       	sbci	r29, 0xFD	; 253
    2172:	68 83       	st	Y, r22
    2174:	79 83       	std	Y+1, r23	; 0x01
    2176:	8a 83       	std	Y+2, r24	; 0x02
    2178:	9b 83       	std	Y+3, r25	; 0x03
    217a:	c3 55       	subi	r28, 0x53	; 83
    217c:	d2 40       	sbci	r29, 0x02	; 2
    217e:	cd 5a       	subi	r28, 0xAD	; 173
    2180:	dd 4f       	sbci	r29, 0xFD	; 253
    2182:	28 81       	ld	r18, Y
    2184:	39 81       	ldd	r19, Y+1	; 0x01
    2186:	4a 81       	ldd	r20, Y+2	; 0x02
    2188:	5b 81       	ldd	r21, Y+3	; 0x03
    218a:	c3 55       	subi	r28, 0x53	; 83
    218c:	d2 40       	sbci	r29, 0x02	; 2
    218e:	c1 59       	subi	r28, 0x91	; 145
    2190:	de 4f       	sbci	r29, 0xFE	; 254
    2192:	28 83       	st	Y, r18
    2194:	39 83       	std	Y+1, r19	; 0x01
    2196:	4a 83       	std	Y+2, r20	; 0x02
    2198:	5b 83       	std	Y+3, r21	; 0x03
    219a:	cf 56       	subi	r28, 0x6F	; 111
    219c:	d1 40       	sbci	r29, 0x01	; 1

0000219e <.Loc.497>:
    219e:	8e 01       	movw	r16, r28
    21a0:	0d 55       	subi	r16, 0x5D	; 93
    21a2:	1f 4f       	sbci	r17, 0xFF	; 255
    21a4:	c1 59       	subi	r28, 0x91	; 145
    21a6:	de 4f       	sbci	r29, 0xFE	; 254
    21a8:	68 81       	ld	r22, Y
    21aa:	79 81       	ldd	r23, Y+1	; 0x01
    21ac:	8a 81       	ldd	r24, Y+2	; 0x02
    21ae:	9b 81       	ldd	r25, Y+3	; 0x03
    21b0:	cf 56       	subi	r28, 0x6F	; 111
    21b2:	d1 40       	sbci	r29, 0x01	; 1
    21b4:	0e 94 d6 1f 	call	0x3fac	; 0x3fac <__fixunssfsi>
    21b8:	c9 5a       	subi	r28, 0xA9	; 169
    21ba:	dd 4f       	sbci	r29, 0xFD	; 253
    21bc:	68 83       	st	Y, r22
    21be:	79 83       	std	Y+1, r23	; 0x01
    21c0:	8a 83       	std	Y+2, r24	; 0x02
    21c2:	9b 83       	std	Y+3, r25	; 0x03
    21c4:	c7 55       	subi	r28, 0x57	; 87
    21c6:	d2 40       	sbci	r29, 0x02	; 2
    21c8:	c9 5a       	subi	r28, 0xA9	; 169
    21ca:	dd 4f       	sbci	r29, 0xFD	; 253
    21cc:	e8 81       	ld	r30, Y
    21ce:	f9 81       	ldd	r31, Y+1	; 0x01
    21d0:	c7 55       	subi	r28, 0x57	; 87
    21d2:	d2 40       	sbci	r29, 0x02	; 2
    21d4:	d8 01       	movw	r26, r16
    21d6:	11 96       	adiw	r26, 0x01	; 1
    21d8:	fc 93       	st	X, r31
    21da:	ee 93       	st	-X, r30

000021dc <.Loc.498>:
		while(__ticks)
    21dc:	26 c0       	rjmp	.+76     	; 0x222a <.L165>

000021de <.L166>:
    21de:	ce 01       	movw	r24, r28
    21e0:	8b 55       	subi	r24, 0x5B	; 91
    21e2:	9f 4f       	sbci	r25, 0xFF	; 255
    21e4:	20 e9       	ldi	r18, 0x90	; 144
    21e6:	31 e0       	ldi	r19, 0x01	; 1
    21e8:	dc 01       	movw	r26, r24
    21ea:	2d 93       	st	X+, r18
    21ec:	3c 93       	st	X, r19

000021ee <.LBB214>:
    21ee:	ce 01       	movw	r24, r28
    21f0:	8b 55       	subi	r24, 0x5B	; 91
    21f2:	9f 4f       	sbci	r25, 0xFF	; 255
    21f4:	fc 01       	movw	r30, r24
    21f6:	80 81       	ld	r24, Z
    21f8:	91 81       	ldd	r25, Z+1	; 0x01

000021fa <.L1^B24>:
    21fa:	01 97       	sbiw	r24, 0x01	; 1
    21fc:	f1 f7       	brne	.-4      	; 0x21fa <.L1^B24>
    21fe:	9e 01       	movw	r18, r28
    2200:	2b 55       	subi	r18, 0x5B	; 91
    2202:	3f 4f       	sbci	r19, 0xFF	; 255
    2204:	d9 01       	movw	r26, r18
    2206:	8d 93       	st	X+, r24
    2208:	9c 93       	st	X, r25

0000220a <.Loc.500>:
	...

0000220c <.LBE214>:
			__ticks --;
    220c:	ce 01       	movw	r24, r28
    220e:	8d 55       	subi	r24, 0x5D	; 93
    2210:	9f 4f       	sbci	r25, 0xFF	; 255
    2212:	9e 01       	movw	r18, r28
    2214:	2d 55       	subi	r18, 0x5D	; 93
    2216:	3f 4f       	sbci	r19, 0xFF	; 255
    2218:	f9 01       	movw	r30, r18
    221a:	20 81       	ld	r18, Z
    221c:	31 81       	ldd	r19, Z+1	; 0x01
    221e:	21 50       	subi	r18, 0x01	; 1
    2220:	31 09       	sbc	r19, r1
    2222:	dc 01       	movw	r26, r24
    2224:	11 96       	adiw	r26, 0x01	; 1
    2226:	3c 93       	st	X, r19
    2228:	2e 93       	st	-X, r18

0000222a <.L165>:
		while(__ticks)
    222a:	ce 01       	movw	r24, r28
    222c:	8d 55       	subi	r24, 0x5D	; 93
    222e:	9f 4f       	sbci	r25, 0xFF	; 255
    2230:	fc 01       	movw	r30, r24
    2232:	80 81       	ld	r24, Z
    2234:	91 81       	ldd	r25, Z+1	; 0x01
    2236:	00 97       	sbiw	r24, 0x00	; 0
    2238:	91 f6       	brne	.-92     	; 0x21de <.L166>

0000223a <.Loc.503>:
		return;
    223a:	3a c0       	rjmp	.+116    	; 0x22b0 <.L167>

0000223c <.L344>:
		__ticks = (uint16_t)__tmp;
    223c:	8e 01       	movw	r16, r28
    223e:	0d 55       	subi	r16, 0x5D	; 93
    2240:	1f 4f       	sbci	r17, 0xFF	; 255
    2242:	ce 01       	movw	r24, r28
    2244:	81 56       	subi	r24, 0x61	; 97
    2246:	9f 4f       	sbci	r25, 0xFF	; 255
    2248:	dc 01       	movw	r26, r24
    224a:	6d 91       	ld	r22, X+
    224c:	7d 91       	ld	r23, X+
    224e:	8d 91       	ld	r24, X+
    2250:	9c 91       	ld	r25, X
    2252:	0e 94 d6 1f 	call	0x3fac	; 0x3fac <__fixunssfsi>
    2256:	c5 5a       	subi	r28, 0xA5	; 165
    2258:	dd 4f       	sbci	r29, 0xFD	; 253
    225a:	68 83       	st	Y, r22
    225c:	79 83       	std	Y+1, r23	; 0x01
    225e:	8a 83       	std	Y+2, r24	; 0x02
    2260:	9b 83       	std	Y+3, r25	; 0x03
    2262:	cb 55       	subi	r28, 0x5B	; 91
    2264:	d2 40       	sbci	r29, 0x02	; 2
    2266:	c5 5a       	subi	r28, 0xA5	; 165
    2268:	dd 4f       	sbci	r29, 0xFD	; 253
    226a:	28 81       	ld	r18, Y
    226c:	39 81       	ldd	r19, Y+1	; 0x01
    226e:	cb 55       	subi	r28, 0x5B	; 91
    2270:	d2 40       	sbci	r29, 0x02	; 2
    2272:	f8 01       	movw	r30, r16
    2274:	31 83       	std	Z+1, r19	; 0x01
    2276:	20 83       	st	Z, r18

00002278 <.L162>:
    2278:	ce 01       	movw	r24, r28
    227a:	89 55       	subi	r24, 0x59	; 89
    227c:	9f 4f       	sbci	r25, 0xFF	; 255
    227e:	9e 01       	movw	r18, r28
    2280:	2d 55       	subi	r18, 0x5D	; 93
    2282:	3f 4f       	sbci	r19, 0xFF	; 255
    2284:	d9 01       	movw	r26, r18
    2286:	2d 91       	ld	r18, X+
    2288:	3c 91       	ld	r19, X
    228a:	fc 01       	movw	r30, r24
    228c:	31 83       	std	Z+1, r19	; 0x01
    228e:	20 83       	st	Z, r18

00002290 <.LBB216>:
    2290:	ce 01       	movw	r24, r28
    2292:	89 55       	subi	r24, 0x59	; 89
    2294:	9f 4f       	sbci	r25, 0xFF	; 255
    2296:	dc 01       	movw	r26, r24
    2298:	8d 91       	ld	r24, X+
    229a:	9c 91       	ld	r25, X
    229c:	11 97       	sbiw	r26, 0x01	; 1

0000229e <.L1^B25>:
    229e:	01 97       	sbiw	r24, 0x01	; 1
    22a0:	f1 f7       	brne	.-4      	; 0x229e <.L1^B25>
    22a2:	9e 01       	movw	r18, r28
    22a4:	29 55       	subi	r18, 0x59	; 89
    22a6:	3f 4f       	sbci	r19, 0xFF	; 255
    22a8:	f9 01       	movw	r30, r18
    22aa:	91 83       	std	Z+1, r25	; 0x01
    22ac:	80 83       	st	Z, r24

000022ae <.Loc.506>:
	...

000022b0 <.L167>:
                            {
                                _delay_ms(30);


                                if (n<9)
    22b0:	80 91 0e 02 	lds	r24, 0x020E	; 0x80020e <n>
    22b4:	90 91 0f 02 	lds	r25, 0x020F	; 0x80020f <n+0x1>

000022b8 <.Loc.508>:
    22b8:	88 30       	cpi	r24, 0x08	; 8
    22ba:	91 05       	cpc	r25, r1
    22bc:	09 f0       	breq	.+2      	; 0x22c0 <.Loc.509>

000022be <L0^A>:
    22be:	54 f4       	brge	.+20     	; 0x22d4 <.L168>

000022c0 <.Loc.509>:
                                    {
                                    n+=1;
    22c0:	80 91 0e 02 	lds	r24, 0x020E	; 0x80020e <n>
    22c4:	90 91 0f 02 	lds	r25, 0x020F	; 0x80020f <n+0x1>
    22c8:	01 96       	adiw	r24, 0x01	; 1
    22ca:	90 93 0f 02 	sts	0x020F, r25	; 0x80020f <n+0x1>
    22ce:	80 93 0e 02 	sts	0x020E, r24	; 0x80020e <n>
    22d2:	04 c0       	rjmp	.+8      	; 0x22dc <.L169>

000022d4 <.L168>:
                                    }
                                else {  //Wraparound Action baybee!
                                        n=0;
    22d4:	10 92 0f 02 	sts	0x020F, r1	; 0x80020f <n+0x1>
    22d8:	10 92 0e 02 	sts	0x020E, r1	; 0x80020e <n>

000022dc <.L169>:
                                     }
                                knop3_ingedrukt = 1;
    22dc:	81 e0       	ldi	r24, 0x01	; 1
    22de:	90 e0       	ldi	r25, 0x00	; 0
    22e0:	90 93 19 02 	sts	0x0219, r25	; 0x800219 <knop3_ingedrukt+0x1>
    22e4:	80 93 18 02 	sts	0x0218, r24	; 0x800218 <knop3_ingedrukt>
    22e8:	18 c1       	rjmp	.+560    	; 0x251a <.L159>

000022ea <.L158>:
                            }
                        }
                    else
                        {
                        if (knop3_ingedrukt != 0) // knop is zojuist losgelaten
    22ea:	80 91 18 02 	lds	r24, 0x0218	; 0x800218 <knop3_ingedrukt>
    22ee:	90 91 19 02 	lds	r25, 0x0219	; 0x800219 <knop3_ingedrukt+0x1>

000022f2 <.Loc.513>:
    22f2:	00 97       	sbiw	r24, 0x00	; 0
    22f4:	09 f4       	brne	.+2      	; 0x22f8 <L0^A+0x2>

000022f6 <L0^A>:
    22f6:	11 c1       	rjmp	.+546    	; 0x251a <.L159>
    22f8:	9e 01       	movw	r18, r28
    22fa:	27 55       	subi	r18, 0x57	; 87
    22fc:	3f 4f       	sbci	r19, 0xFF	; 255
    22fe:	80 e0       	ldi	r24, 0x00	; 0
    2300:	90 e0       	ldi	r25, 0x00	; 0
    2302:	a0 ef       	ldi	r26, 0xF0	; 240
    2304:	b1 e4       	ldi	r27, 0x41	; 65
    2306:	f9 01       	movw	r30, r18
    2308:	80 83       	st	Z, r24
    230a:	91 83       	std	Z+1, r25	; 0x01
    230c:	a2 83       	std	Z+2, r26	; 0x02
    230e:	b3 83       	std	Z+3, r27	; 0x03

00002310 <.LBB218>:
	__tmp = ((F_CPU) / 4e3) * __ms;
    2310:	8e 01       	movw	r16, r28
    2312:	03 55       	subi	r16, 0x53	; 83
    2314:	1f 4f       	sbci	r17, 0xFF	; 255
    2316:	ce 01       	movw	r24, r28
    2318:	87 55       	subi	r24, 0x57	; 87
    231a:	9f 4f       	sbci	r25, 0xFF	; 255
    231c:	20 e0       	ldi	r18, 0x00	; 0
    231e:	30 e0       	ldi	r19, 0x00	; 0
    2320:	4a e7       	ldi	r20, 0x7A	; 122
    2322:	55 e4       	ldi	r21, 0x45	; 69
    2324:	dc 01       	movw	r26, r24
    2326:	6d 91       	ld	r22, X+
    2328:	7d 91       	ld	r23, X+
    232a:	8d 91       	ld	r24, X+
    232c:	9c 91       	ld	r25, X
    232e:	0e 94 57 20 	call	0x40ae	; 0x40ae <__mulsf3>
    2332:	c1 5a       	subi	r28, 0xA1	; 161
    2334:	dd 4f       	sbci	r29, 0xFD	; 253
    2336:	68 83       	st	Y, r22
    2338:	79 83       	std	Y+1, r23	; 0x01
    233a:	8a 83       	std	Y+2, r24	; 0x02
    233c:	9b 83       	std	Y+3, r25	; 0x03
    233e:	cf 55       	subi	r28, 0x5F	; 95
    2340:	d2 40       	sbci	r29, 0x02	; 2
    2342:	c1 5a       	subi	r28, 0xA1	; 161
    2344:	dd 4f       	sbci	r29, 0xFD	; 253
    2346:	28 81       	ld	r18, Y
    2348:	39 81       	ldd	r19, Y+1	; 0x01
    234a:	4a 81       	ldd	r20, Y+2	; 0x02
    234c:	5b 81       	ldd	r21, Y+3	; 0x03
    234e:	cf 55       	subi	r28, 0x5F	; 95
    2350:	d2 40       	sbci	r29, 0x02	; 2
    2352:	d8 01       	movw	r26, r16
    2354:	2d 93       	st	X+, r18
    2356:	3d 93       	st	X+, r19
    2358:	4d 93       	st	X+, r20
    235a:	5c 93       	st	X, r21
    235c:	13 97       	sbiw	r26, 0x03	; 3

0000235e <.Loc.515>:
	if (__tmp < 1.0)
    235e:	ce 01       	movw	r24, r28
    2360:	83 55       	subi	r24, 0x53	; 83
    2362:	9f 4f       	sbci	r25, 0xFF	; 255
    2364:	20 e0       	ldi	r18, 0x00	; 0
    2366:	30 e0       	ldi	r19, 0x00	; 0
    2368:	40 e8       	ldi	r20, 0x80	; 128
    236a:	5f e3       	ldi	r21, 0x3F	; 63
    236c:	fc 01       	movw	r30, r24
    236e:	60 81       	ld	r22, Z
    2370:	71 81       	ldd	r23, Z+1	; 0x01
    2372:	82 81       	ldd	r24, Z+2	; 0x02
    2374:	93 81       	ldd	r25, Z+3	; 0x03
    2376:	0e 94 d1 1f 	call	0x3fa2	; 0x3fa2 <__cmpsf2>
    237a:	88 23       	and	r24, r24
    237c:	54 f4       	brge	.+20     	; 0x2392 <.L345>

0000237e <.Loc.516>:
		__ticks = 1;
    237e:	ce 01       	movw	r24, r28
    2380:	8f 54       	subi	r24, 0x4F	; 79
    2382:	9f 4f       	sbci	r25, 0xFF	; 255
    2384:	21 e0       	ldi	r18, 0x01	; 1
    2386:	30 e0       	ldi	r19, 0x00	; 0
    2388:	dc 01       	movw	r26, r24
    238a:	11 96       	adiw	r26, 0x01	; 1
    238c:	3c 93       	st	X, r19
    238e:	2e 93       	st	-X, r18
    2390:	a5 c0       	rjmp	.+330    	; 0x24dc <.L172>

00002392 <.L345>:
	else if (__tmp > 65535)
    2392:	ce 01       	movw	r24, r28
    2394:	83 55       	subi	r24, 0x53	; 83
    2396:	9f 4f       	sbci	r25, 0xFF	; 255
    2398:	20 e0       	ldi	r18, 0x00	; 0
    239a:	3f ef       	ldi	r19, 0xFF	; 255
    239c:	4f e7       	ldi	r20, 0x7F	; 127
    239e:	57 e4       	ldi	r21, 0x47	; 71
    23a0:	fc 01       	movw	r30, r24
    23a2:	60 81       	ld	r22, Z
    23a4:	71 81       	ldd	r23, Z+1	; 0x01
    23a6:	82 81       	ldd	r24, Z+2	; 0x02
    23a8:	93 81       	ldd	r25, Z+3	; 0x03
    23aa:	0e 94 52 20 	call	0x40a4	; 0x40a4 <__gesf2>
    23ae:	88 23       	and	r24, r24
    23b0:	09 f0       	breq	.+2      	; 0x23b4 <L0^A>

000023b2 <L0^A>:
    23b2:	0c f4       	brge	.+2      	; 0x23b6 <.Loc.518>

000023b4 <L0^A>:
    23b4:	75 c0       	rjmp	.+234    	; 0x24a0 <.L346>

000023b6 <.Loc.518>:
		__ticks = (uint16_t) (__ms * 10.0);
    23b6:	ce 01       	movw	r24, r28
    23b8:	87 55       	subi	r24, 0x57	; 87
    23ba:	9f 4f       	sbci	r25, 0xFF	; 255
    23bc:	20 e0       	ldi	r18, 0x00	; 0
    23be:	30 e0       	ldi	r19, 0x00	; 0
    23c0:	40 e2       	ldi	r20, 0x20	; 32
    23c2:	51 e4       	ldi	r21, 0x41	; 65
    23c4:	dc 01       	movw	r26, r24
    23c6:	6d 91       	ld	r22, X+
    23c8:	7d 91       	ld	r23, X+
    23ca:	8d 91       	ld	r24, X+
    23cc:	9c 91       	ld	r25, X
    23ce:	0e 94 57 20 	call	0x40ae	; 0x40ae <__mulsf3>
    23d2:	cd 59       	subi	r28, 0x9D	; 157
    23d4:	dd 4f       	sbci	r29, 0xFD	; 253
    23d6:	68 83       	st	Y, r22
    23d8:	79 83       	std	Y+1, r23	; 0x01
    23da:	8a 83       	std	Y+2, r24	; 0x02
    23dc:	9b 83       	std	Y+3, r25	; 0x03
    23de:	c3 56       	subi	r28, 0x63	; 99
    23e0:	d2 40       	sbci	r29, 0x02	; 2
    23e2:	cd 59       	subi	r28, 0x9D	; 157
    23e4:	dd 4f       	sbci	r29, 0xFD	; 253
    23e6:	28 81       	ld	r18, Y
    23e8:	39 81       	ldd	r19, Y+1	; 0x01
    23ea:	4a 81       	ldd	r20, Y+2	; 0x02
    23ec:	5b 81       	ldd	r21, Y+3	; 0x03
    23ee:	c3 56       	subi	r28, 0x63	; 99
    23f0:	d2 40       	sbci	r29, 0x02	; 2
    23f2:	cd 58       	subi	r28, 0x8D	; 141
    23f4:	de 4f       	sbci	r29, 0xFE	; 254
    23f6:	28 83       	st	Y, r18
    23f8:	39 83       	std	Y+1, r19	; 0x01
    23fa:	4a 83       	std	Y+2, r20	; 0x02
    23fc:	5b 83       	std	Y+3, r21	; 0x03
    23fe:	c3 57       	subi	r28, 0x73	; 115
    2400:	d1 40       	sbci	r29, 0x01	; 1

00002402 <.Loc.519>:
    2402:	8e 01       	movw	r16, r28
    2404:	0f 54       	subi	r16, 0x4F	; 79
    2406:	1f 4f       	sbci	r17, 0xFF	; 255
    2408:	cd 58       	subi	r28, 0x8D	; 141
    240a:	de 4f       	sbci	r29, 0xFE	; 254
    240c:	68 81       	ld	r22, Y
    240e:	79 81       	ldd	r23, Y+1	; 0x01
    2410:	8a 81       	ldd	r24, Y+2	; 0x02
    2412:	9b 81       	ldd	r25, Y+3	; 0x03
    2414:	c3 57       	subi	r28, 0x73	; 115
    2416:	d1 40       	sbci	r29, 0x01	; 1
    2418:	0e 94 d6 1f 	call	0x3fac	; 0x3fac <__fixunssfsi>
    241c:	c9 59       	subi	r28, 0x99	; 153
    241e:	dd 4f       	sbci	r29, 0xFD	; 253
    2420:	68 83       	st	Y, r22
    2422:	79 83       	std	Y+1, r23	; 0x01
    2424:	8a 83       	std	Y+2, r24	; 0x02
    2426:	9b 83       	std	Y+3, r25	; 0x03
    2428:	c7 56       	subi	r28, 0x67	; 103
    242a:	d2 40       	sbci	r29, 0x02	; 2
    242c:	c9 59       	subi	r28, 0x99	; 153
    242e:	dd 4f       	sbci	r29, 0xFD	; 253
    2430:	e8 81       	ld	r30, Y
    2432:	f9 81       	ldd	r31, Y+1	; 0x01
    2434:	c7 56       	subi	r28, 0x67	; 103
    2436:	d2 40       	sbci	r29, 0x02	; 2
    2438:	d8 01       	movw	r26, r16
    243a:	11 96       	adiw	r26, 0x01	; 1
    243c:	fc 93       	st	X, r31
    243e:	ee 93       	st	-X, r30

00002440 <.Loc.520>:
		while(__ticks)
    2440:	26 c0       	rjmp	.+76     	; 0x248e <.L175>

00002442 <.L176>:
    2442:	ce 01       	movw	r24, r28
    2444:	8d 54       	subi	r24, 0x4D	; 77
    2446:	9f 4f       	sbci	r25, 0xFF	; 255
    2448:	20 e9       	ldi	r18, 0x90	; 144
    244a:	31 e0       	ldi	r19, 0x01	; 1
    244c:	dc 01       	movw	r26, r24
    244e:	2d 93       	st	X+, r18
    2450:	3c 93       	st	X, r19

00002452 <.LBB220>:
    2452:	ce 01       	movw	r24, r28
    2454:	8d 54       	subi	r24, 0x4D	; 77
    2456:	9f 4f       	sbci	r25, 0xFF	; 255
    2458:	fc 01       	movw	r30, r24
    245a:	80 81       	ld	r24, Z
    245c:	91 81       	ldd	r25, Z+1	; 0x01

0000245e <.L1^B26>:
    245e:	01 97       	sbiw	r24, 0x01	; 1
    2460:	f1 f7       	brne	.-4      	; 0x245e <.L1^B26>
    2462:	9e 01       	movw	r18, r28
    2464:	2d 54       	subi	r18, 0x4D	; 77
    2466:	3f 4f       	sbci	r19, 0xFF	; 255
    2468:	d9 01       	movw	r26, r18
    246a:	8d 93       	st	X+, r24
    246c:	9c 93       	st	X, r25

0000246e <.Loc.522>:
	...

00002470 <.LBE220>:
			__ticks --;
    2470:	ce 01       	movw	r24, r28
    2472:	8f 54       	subi	r24, 0x4F	; 79
    2474:	9f 4f       	sbci	r25, 0xFF	; 255
    2476:	9e 01       	movw	r18, r28
    2478:	2f 54       	subi	r18, 0x4F	; 79
    247a:	3f 4f       	sbci	r19, 0xFF	; 255
    247c:	f9 01       	movw	r30, r18
    247e:	20 81       	ld	r18, Z
    2480:	31 81       	ldd	r19, Z+1	; 0x01
    2482:	21 50       	subi	r18, 0x01	; 1
    2484:	31 09       	sbc	r19, r1
    2486:	dc 01       	movw	r26, r24
    2488:	11 96       	adiw	r26, 0x01	; 1
    248a:	3c 93       	st	X, r19
    248c:	2e 93       	st	-X, r18

0000248e <.L175>:
		while(__ticks)
    248e:	ce 01       	movw	r24, r28
    2490:	8f 54       	subi	r24, 0x4F	; 79
    2492:	9f 4f       	sbci	r25, 0xFF	; 255
    2494:	fc 01       	movw	r30, r24
    2496:	80 81       	ld	r24, Z
    2498:	91 81       	ldd	r25, Z+1	; 0x01
    249a:	00 97       	sbiw	r24, 0x00	; 0
    249c:	91 f6       	brne	.-92     	; 0x2442 <.L176>

0000249e <.Loc.525>:
		return;
    249e:	39 c0       	rjmp	.+114    	; 0x2512 <.L177>

000024a0 <.L346>:
		__ticks = (uint16_t)__tmp;
    24a0:	8e 01       	movw	r16, r28
    24a2:	0f 54       	subi	r16, 0x4F	; 79
    24a4:	1f 4f       	sbci	r17, 0xFF	; 255
    24a6:	ce 01       	movw	r24, r28
    24a8:	83 55       	subi	r24, 0x53	; 83
    24aa:	9f 4f       	sbci	r25, 0xFF	; 255
    24ac:	dc 01       	movw	r26, r24
    24ae:	6d 91       	ld	r22, X+
    24b0:	7d 91       	ld	r23, X+
    24b2:	8d 91       	ld	r24, X+
    24b4:	9c 91       	ld	r25, X
    24b6:	0e 94 d6 1f 	call	0x3fac	; 0x3fac <__fixunssfsi>
    24ba:	c5 59       	subi	r28, 0x95	; 149
    24bc:	dd 4f       	sbci	r29, 0xFD	; 253
    24be:	68 83       	st	Y, r22
    24c0:	79 83       	std	Y+1, r23	; 0x01
    24c2:	8a 83       	std	Y+2, r24	; 0x02
    24c4:	9b 83       	std	Y+3, r25	; 0x03
    24c6:	cb 56       	subi	r28, 0x6B	; 107
    24c8:	d2 40       	sbci	r29, 0x02	; 2
    24ca:	c5 59       	subi	r28, 0x95	; 149
    24cc:	dd 4f       	sbci	r29, 0xFD	; 253
    24ce:	28 81       	ld	r18, Y
    24d0:	39 81       	ldd	r19, Y+1	; 0x01
    24d2:	cb 56       	subi	r28, 0x6B	; 107
    24d4:	d2 40       	sbci	r29, 0x02	; 2
    24d6:	f8 01       	movw	r30, r16
    24d8:	31 83       	std	Z+1, r19	; 0x01
    24da:	20 83       	st	Z, r18

000024dc <.L172>:
    24dc:	ce 01       	movw	r24, r28
    24de:	8b 54       	subi	r24, 0x4B	; 75
    24e0:	9f 4f       	sbci	r25, 0xFF	; 255
    24e2:	9e 01       	movw	r18, r28
    24e4:	2f 54       	subi	r18, 0x4F	; 79
    24e6:	3f 4f       	sbci	r19, 0xFF	; 255
    24e8:	d9 01       	movw	r26, r18
    24ea:	2d 91       	ld	r18, X+
    24ec:	3c 91       	ld	r19, X
    24ee:	fc 01       	movw	r30, r24
    24f0:	31 83       	std	Z+1, r19	; 0x01
    24f2:	20 83       	st	Z, r18

000024f4 <.LBB222>:
    24f4:	ce 01       	movw	r24, r28
    24f6:	8b 54       	subi	r24, 0x4B	; 75
    24f8:	9f 4f       	sbci	r25, 0xFF	; 255
    24fa:	dc 01       	movw	r26, r24
    24fc:	8d 91       	ld	r24, X+
    24fe:	9c 91       	ld	r25, X

00002500 <.L1^B27>:
    2500:	01 97       	sbiw	r24, 0x01	; 1
    2502:	f1 f7       	brne	.-4      	; 0x2500 <.L1^B27>
    2504:	9e 01       	movw	r18, r28
    2506:	2b 54       	subi	r18, 0x4B	; 75
    2508:	3f 4f       	sbci	r19, 0xFF	; 255
    250a:	f9 01       	movw	r30, r18
    250c:	91 83       	std	Z+1, r25	; 0x01
    250e:	80 83       	st	Z, r24

00002510 <.Loc.528>:
	...

00002512 <.L177>:
                            {
                                _delay_ms(30);
                                knop3_ingedrukt = 0;
    2512:	10 92 19 02 	sts	0x0219, r1	; 0x800219 <knop3_ingedrukt+0x1>
    2516:	10 92 18 02 	sts	0x0218, r1	; 0x800218 <knop3_ingedrukt>

0000251a <.L159>:
                            }
                        }


                     if (PINL & (1 << swatch))  //switcher
    251a:	89 e0       	ldi	r24, 0x09	; 9
    251c:	91 e0       	ldi	r25, 0x01	; 1
    251e:	dc 01       	movw	r26, r24
    2520:	8c 91       	ld	r24, X

00002522 <.Loc.531>:
    2522:	88 2f       	mov	r24, r24
    2524:	90 e0       	ldi	r25, 0x00	; 0
    2526:	80 71       	andi	r24, 0x10	; 16
    2528:	99 27       	eor	r25, r25

0000252a <.Loc.532>:
    252a:	00 97       	sbiw	r24, 0x00	; 0
    252c:	09 f4       	brne	.+2      	; 0x2530 <.Loc.533>

0000252e <L0^A>:
    252e:	32 c1       	rjmp	.+612    	; 0x2794 <.L178>

00002530 <.Loc.533>:
                        {
                            if (knop2_ingedrukt == 0) // knop is niet al eerder ingedrukt
    2530:	80 91 16 02 	lds	r24, 0x0216	; 0x800216 <knop2_ingedrukt>
    2534:	90 91 17 02 	lds	r25, 0x0217	; 0x800217 <knop2_ingedrukt+0x1>

00002538 <.Loc.534>:
    2538:	00 97       	sbiw	r24, 0x00	; 0
    253a:	09 f0       	breq	.+2      	; 0x253e <L0^A+0x2>

0000253c <L0^A>:
    253c:	43 c2       	rjmp	.+1158   	; 0x29c4 <.L179>
    253e:	9e 01       	movw	r18, r28
    2540:	29 54       	subi	r18, 0x49	; 73
    2542:	3f 4f       	sbci	r19, 0xFF	; 255
    2544:	80 e0       	ldi	r24, 0x00	; 0
    2546:	90 e0       	ldi	r25, 0x00	; 0
    2548:	a0 ef       	ldi	r26, 0xF0	; 240
    254a:	b1 e4       	ldi	r27, 0x41	; 65
    254c:	f9 01       	movw	r30, r18
    254e:	80 83       	st	Z, r24
    2550:	91 83       	std	Z+1, r25	; 0x01
    2552:	a2 83       	std	Z+2, r26	; 0x02
    2554:	b3 83       	std	Z+3, r27	; 0x03

00002556 <.LBB224>:
	__tmp = ((F_CPU) / 4e3) * __ms;
    2556:	8e 01       	movw	r16, r28
    2558:	05 54       	subi	r16, 0x45	; 69
    255a:	1f 4f       	sbci	r17, 0xFF	; 255
    255c:	ce 01       	movw	r24, r28
    255e:	89 54       	subi	r24, 0x49	; 73
    2560:	9f 4f       	sbci	r25, 0xFF	; 255
    2562:	20 e0       	ldi	r18, 0x00	; 0
    2564:	30 e0       	ldi	r19, 0x00	; 0
    2566:	4a e7       	ldi	r20, 0x7A	; 122
    2568:	55 e4       	ldi	r21, 0x45	; 69
    256a:	dc 01       	movw	r26, r24
    256c:	6d 91       	ld	r22, X+
    256e:	7d 91       	ld	r23, X+
    2570:	8d 91       	ld	r24, X+
    2572:	9c 91       	ld	r25, X
    2574:	0e 94 57 20 	call	0x40ae	; 0x40ae <__mulsf3>
    2578:	c1 59       	subi	r28, 0x91	; 145
    257a:	dd 4f       	sbci	r29, 0xFD	; 253
    257c:	68 83       	st	Y, r22
    257e:	79 83       	std	Y+1, r23	; 0x01
    2580:	8a 83       	std	Y+2, r24	; 0x02
    2582:	9b 83       	std	Y+3, r25	; 0x03
    2584:	cf 56       	subi	r28, 0x6F	; 111
    2586:	d2 40       	sbci	r29, 0x02	; 2
    2588:	c1 59       	subi	r28, 0x91	; 145
    258a:	dd 4f       	sbci	r29, 0xFD	; 253
    258c:	28 81       	ld	r18, Y
    258e:	39 81       	ldd	r19, Y+1	; 0x01
    2590:	4a 81       	ldd	r20, Y+2	; 0x02
    2592:	5b 81       	ldd	r21, Y+3	; 0x03
    2594:	cf 56       	subi	r28, 0x6F	; 111
    2596:	d2 40       	sbci	r29, 0x02	; 2
    2598:	d8 01       	movw	r26, r16
    259a:	2d 93       	st	X+, r18
    259c:	3d 93       	st	X+, r19
    259e:	4d 93       	st	X+, r20
    25a0:	5c 93       	st	X, r21
    25a2:	13 97       	sbiw	r26, 0x03	; 3

000025a4 <.Loc.536>:
	if (__tmp < 1.0)
    25a4:	ce 01       	movw	r24, r28
    25a6:	85 54       	subi	r24, 0x45	; 69
    25a8:	9f 4f       	sbci	r25, 0xFF	; 255
    25aa:	20 e0       	ldi	r18, 0x00	; 0
    25ac:	30 e0       	ldi	r19, 0x00	; 0
    25ae:	40 e8       	ldi	r20, 0x80	; 128
    25b0:	5f e3       	ldi	r21, 0x3F	; 63
    25b2:	fc 01       	movw	r30, r24
    25b4:	60 81       	ld	r22, Z
    25b6:	71 81       	ldd	r23, Z+1	; 0x01
    25b8:	82 81       	ldd	r24, Z+2	; 0x02
    25ba:	93 81       	ldd	r25, Z+3	; 0x03
    25bc:	0e 94 d1 1f 	call	0x3fa2	; 0x3fa2 <__cmpsf2>
    25c0:	88 23       	and	r24, r24
    25c2:	54 f4       	brge	.+20     	; 0x25d8 <.L347>

000025c4 <.Loc.537>:
		__ticks = 1;
    25c4:	ce 01       	movw	r24, r28
    25c6:	81 54       	subi	r24, 0x41	; 65
    25c8:	9f 4f       	sbci	r25, 0xFF	; 255
    25ca:	21 e0       	ldi	r18, 0x01	; 1
    25cc:	30 e0       	ldi	r19, 0x00	; 0
    25ce:	dc 01       	movw	r26, r24
    25d0:	11 96       	adiw	r26, 0x01	; 1
    25d2:	3c 93       	st	X, r19
    25d4:	2e 93       	st	-X, r18
    25d6:	a5 c0       	rjmp	.+330    	; 0x2722 <.L182>

000025d8 <.L347>:
	else if (__tmp > 65535)
    25d8:	ce 01       	movw	r24, r28
    25da:	85 54       	subi	r24, 0x45	; 69
    25dc:	9f 4f       	sbci	r25, 0xFF	; 255
    25de:	20 e0       	ldi	r18, 0x00	; 0
    25e0:	3f ef       	ldi	r19, 0xFF	; 255
    25e2:	4f e7       	ldi	r20, 0x7F	; 127
    25e4:	57 e4       	ldi	r21, 0x47	; 71
    25e6:	fc 01       	movw	r30, r24
    25e8:	60 81       	ld	r22, Z
    25ea:	71 81       	ldd	r23, Z+1	; 0x01
    25ec:	82 81       	ldd	r24, Z+2	; 0x02
    25ee:	93 81       	ldd	r25, Z+3	; 0x03
    25f0:	0e 94 52 20 	call	0x40a4	; 0x40a4 <__gesf2>
    25f4:	88 23       	and	r24, r24
    25f6:	09 f0       	breq	.+2      	; 0x25fa <L0^A>

000025f8 <L0^A>:
    25f8:	0c f4       	brge	.+2      	; 0x25fc <.Loc.539>

000025fa <L0^A>:
    25fa:	75 c0       	rjmp	.+234    	; 0x26e6 <.L348>

000025fc <.Loc.539>:
		__ticks = (uint16_t) (__ms * 10.0);
    25fc:	ce 01       	movw	r24, r28
    25fe:	89 54       	subi	r24, 0x49	; 73
    2600:	9f 4f       	sbci	r25, 0xFF	; 255
    2602:	20 e0       	ldi	r18, 0x00	; 0
    2604:	30 e0       	ldi	r19, 0x00	; 0
    2606:	40 e2       	ldi	r20, 0x20	; 32
    2608:	51 e4       	ldi	r21, 0x41	; 65
    260a:	dc 01       	movw	r26, r24
    260c:	6d 91       	ld	r22, X+
    260e:	7d 91       	ld	r23, X+
    2610:	8d 91       	ld	r24, X+
    2612:	9c 91       	ld	r25, X
    2614:	0e 94 57 20 	call	0x40ae	; 0x40ae <__mulsf3>
    2618:	cd 58       	subi	r28, 0x8D	; 141
    261a:	dd 4f       	sbci	r29, 0xFD	; 253
    261c:	68 83       	st	Y, r22
    261e:	79 83       	std	Y+1, r23	; 0x01
    2620:	8a 83       	std	Y+2, r24	; 0x02
    2622:	9b 83       	std	Y+3, r25	; 0x03
    2624:	c3 57       	subi	r28, 0x73	; 115
    2626:	d2 40       	sbci	r29, 0x02	; 2
    2628:	cd 58       	subi	r28, 0x8D	; 141
    262a:	dd 4f       	sbci	r29, 0xFD	; 253
    262c:	28 81       	ld	r18, Y
    262e:	39 81       	ldd	r19, Y+1	; 0x01
    2630:	4a 81       	ldd	r20, Y+2	; 0x02
    2632:	5b 81       	ldd	r21, Y+3	; 0x03
    2634:	c3 57       	subi	r28, 0x73	; 115
    2636:	d2 40       	sbci	r29, 0x02	; 2
    2638:	c9 58       	subi	r28, 0x89	; 137
    263a:	de 4f       	sbci	r29, 0xFE	; 254
    263c:	28 83       	st	Y, r18
    263e:	39 83       	std	Y+1, r19	; 0x01
    2640:	4a 83       	std	Y+2, r20	; 0x02
    2642:	5b 83       	std	Y+3, r21	; 0x03
    2644:	c7 57       	subi	r28, 0x77	; 119
    2646:	d1 40       	sbci	r29, 0x01	; 1

00002648 <.Loc.540>:
    2648:	8e 01       	movw	r16, r28
    264a:	01 54       	subi	r16, 0x41	; 65
    264c:	1f 4f       	sbci	r17, 0xFF	; 255
    264e:	c9 58       	subi	r28, 0x89	; 137
    2650:	de 4f       	sbci	r29, 0xFE	; 254
    2652:	68 81       	ld	r22, Y
    2654:	79 81       	ldd	r23, Y+1	; 0x01
    2656:	8a 81       	ldd	r24, Y+2	; 0x02
    2658:	9b 81       	ldd	r25, Y+3	; 0x03
    265a:	c7 57       	subi	r28, 0x77	; 119
    265c:	d1 40       	sbci	r29, 0x01	; 1
    265e:	0e 94 d6 1f 	call	0x3fac	; 0x3fac <__fixunssfsi>
    2662:	c9 58       	subi	r28, 0x89	; 137
    2664:	dd 4f       	sbci	r29, 0xFD	; 253
    2666:	68 83       	st	Y, r22
    2668:	79 83       	std	Y+1, r23	; 0x01
    266a:	8a 83       	std	Y+2, r24	; 0x02
    266c:	9b 83       	std	Y+3, r25	; 0x03
    266e:	c7 57       	subi	r28, 0x77	; 119
    2670:	d2 40       	sbci	r29, 0x02	; 2
    2672:	c9 58       	subi	r28, 0x89	; 137
    2674:	dd 4f       	sbci	r29, 0xFD	; 253
    2676:	e8 81       	ld	r30, Y
    2678:	f9 81       	ldd	r31, Y+1	; 0x01
    267a:	c7 57       	subi	r28, 0x77	; 119
    267c:	d2 40       	sbci	r29, 0x02	; 2
    267e:	d8 01       	movw	r26, r16
    2680:	11 96       	adiw	r26, 0x01	; 1
    2682:	fc 93       	st	X, r31
    2684:	ee 93       	st	-X, r30

00002686 <.Loc.541>:
		while(__ticks)
    2686:	26 c0       	rjmp	.+76     	; 0x26d4 <.L185>

00002688 <.L186>:
    2688:	ce 01       	movw	r24, r28
    268a:	8f 53       	subi	r24, 0x3F	; 63
    268c:	9f 4f       	sbci	r25, 0xFF	; 255
    268e:	20 e9       	ldi	r18, 0x90	; 144
    2690:	31 e0       	ldi	r19, 0x01	; 1
    2692:	dc 01       	movw	r26, r24
    2694:	2d 93       	st	X+, r18
    2696:	3c 93       	st	X, r19

00002698 <.LBB226>:
    2698:	ce 01       	movw	r24, r28
    269a:	8f 53       	subi	r24, 0x3F	; 63
    269c:	9f 4f       	sbci	r25, 0xFF	; 255
    269e:	fc 01       	movw	r30, r24
    26a0:	80 81       	ld	r24, Z
    26a2:	91 81       	ldd	r25, Z+1	; 0x01

000026a4 <.L1^B28>:
    26a4:	01 97       	sbiw	r24, 0x01	; 1
    26a6:	f1 f7       	brne	.-4      	; 0x26a4 <.L1^B28>
    26a8:	9e 01       	movw	r18, r28
    26aa:	2f 53       	subi	r18, 0x3F	; 63
    26ac:	3f 4f       	sbci	r19, 0xFF	; 255
    26ae:	d9 01       	movw	r26, r18
    26b0:	8d 93       	st	X+, r24
    26b2:	9c 93       	st	X, r25

000026b4 <.Loc.543>:
	...

000026b6 <.LBE226>:
			__ticks --;
    26b6:	ce 01       	movw	r24, r28
    26b8:	81 54       	subi	r24, 0x41	; 65
    26ba:	9f 4f       	sbci	r25, 0xFF	; 255
    26bc:	9e 01       	movw	r18, r28
    26be:	21 54       	subi	r18, 0x41	; 65
    26c0:	3f 4f       	sbci	r19, 0xFF	; 255
    26c2:	f9 01       	movw	r30, r18
    26c4:	20 81       	ld	r18, Z
    26c6:	31 81       	ldd	r19, Z+1	; 0x01
    26c8:	21 50       	subi	r18, 0x01	; 1
    26ca:	31 09       	sbc	r19, r1
    26cc:	dc 01       	movw	r26, r24
    26ce:	11 96       	adiw	r26, 0x01	; 1
    26d0:	3c 93       	st	X, r19
    26d2:	2e 93       	st	-X, r18

000026d4 <.L185>:
		while(__ticks)
    26d4:	ce 01       	movw	r24, r28
    26d6:	81 54       	subi	r24, 0x41	; 65
    26d8:	9f 4f       	sbci	r25, 0xFF	; 255
    26da:	fc 01       	movw	r30, r24
    26dc:	80 81       	ld	r24, Z
    26de:	91 81       	ldd	r25, Z+1	; 0x01
    26e0:	00 97       	sbiw	r24, 0x00	; 0
    26e2:	91 f6       	brne	.-92     	; 0x2688 <.L186>

000026e4 <.Loc.546>:
		return;
    26e4:	3a c0       	rjmp	.+116    	; 0x275a <.L187>

000026e6 <.L348>:
		__ticks = (uint16_t)__tmp;
    26e6:	8e 01       	movw	r16, r28
    26e8:	01 54       	subi	r16, 0x41	; 65
    26ea:	1f 4f       	sbci	r17, 0xFF	; 255
    26ec:	ce 01       	movw	r24, r28
    26ee:	85 54       	subi	r24, 0x45	; 69
    26f0:	9f 4f       	sbci	r25, 0xFF	; 255
    26f2:	dc 01       	movw	r26, r24
    26f4:	6d 91       	ld	r22, X+
    26f6:	7d 91       	ld	r23, X+
    26f8:	8d 91       	ld	r24, X+
    26fa:	9c 91       	ld	r25, X
    26fc:	0e 94 d6 1f 	call	0x3fac	; 0x3fac <__fixunssfsi>
    2700:	c5 58       	subi	r28, 0x85	; 133
    2702:	dd 4f       	sbci	r29, 0xFD	; 253
    2704:	68 83       	st	Y, r22
    2706:	79 83       	std	Y+1, r23	; 0x01
    2708:	8a 83       	std	Y+2, r24	; 0x02
    270a:	9b 83       	std	Y+3, r25	; 0x03
    270c:	cb 57       	subi	r28, 0x7B	; 123
    270e:	d2 40       	sbci	r29, 0x02	; 2
    2710:	c5 58       	subi	r28, 0x85	; 133
    2712:	dd 4f       	sbci	r29, 0xFD	; 253
    2714:	28 81       	ld	r18, Y
    2716:	39 81       	ldd	r19, Y+1	; 0x01
    2718:	cb 57       	subi	r28, 0x7B	; 123
    271a:	d2 40       	sbci	r29, 0x02	; 2
    271c:	f8 01       	movw	r30, r16
    271e:	31 83       	std	Z+1, r19	; 0x01
    2720:	20 83       	st	Z, r18

00002722 <.L182>:
    2722:	ce 01       	movw	r24, r28
    2724:	8d 53       	subi	r24, 0x3D	; 61
    2726:	9f 4f       	sbci	r25, 0xFF	; 255
    2728:	9e 01       	movw	r18, r28
    272a:	21 54       	subi	r18, 0x41	; 65
    272c:	3f 4f       	sbci	r19, 0xFF	; 255
    272e:	d9 01       	movw	r26, r18
    2730:	2d 91       	ld	r18, X+
    2732:	3c 91       	ld	r19, X
    2734:	fc 01       	movw	r30, r24
    2736:	31 83       	std	Z+1, r19	; 0x01
    2738:	20 83       	st	Z, r18

0000273a <.LBB228>:
    273a:	ce 01       	movw	r24, r28
    273c:	8d 53       	subi	r24, 0x3D	; 61
    273e:	9f 4f       	sbci	r25, 0xFF	; 255
    2740:	dc 01       	movw	r26, r24
    2742:	8d 91       	ld	r24, X+
    2744:	9c 91       	ld	r25, X
    2746:	11 97       	sbiw	r26, 0x01	; 1

00002748 <.L1^B29>:
    2748:	01 97       	sbiw	r24, 0x01	; 1
    274a:	f1 f7       	brne	.-4      	; 0x2748 <.L1^B29>
    274c:	9e 01       	movw	r18, r28
    274e:	2d 53       	subi	r18, 0x3D	; 61
    2750:	3f 4f       	sbci	r19, 0xFF	; 255
    2752:	f9 01       	movw	r30, r18
    2754:	91 83       	std	Z+1, r25	; 0x01
    2756:	80 83       	st	Z, r24

00002758 <.Loc.549>:
	...

0000275a <.L187>:
                            {
                                _delay_ms(30);
                                StepCounterY=n;
    275a:	80 91 0e 02 	lds	r24, 0x020E	; 0x80020e <n>
    275e:	90 91 0f 02 	lds	r25, 0x020F	; 0x80020f <n+0x1>
    2762:	90 93 1d 02 	sts	0x021D, r25	; 0x80021d <StepCounterY+0x1>
    2766:	80 93 1c 02 	sts	0x021C, r24	; 0x80021c <StepCounterY>

0000276a <.Loc.551>:
                                n=StepCounterX; //New axis starts from 0.
    276a:	80 91 1e 02 	lds	r24, 0x021E	; 0x80021e <StepCounterX>
    276e:	90 91 1f 02 	lds	r25, 0x021F	; 0x80021f <StepCounterX+0x1>
    2772:	90 93 0f 02 	sts	0x020F, r25	; 0x80020f <n+0x1>
    2776:	80 93 0e 02 	sts	0x020E, r24	; 0x80020e <n>

0000277a <.Loc.552>:
                                MenuLayer = 20;
    277a:	84 e1       	ldi	r24, 0x14	; 20
    277c:	90 e0       	ldi	r25, 0x00	; 0
    277e:	90 93 01 02 	sts	0x0201, r25	; 0x800201 <MenuLayer+0x1>
    2782:	80 93 00 02 	sts	0x0200, r24	; 0x800200 <MenuLayer>

00002786 <.Loc.553>:
                                knop2_ingedrukt = 1;
    2786:	81 e0       	ldi	r24, 0x01	; 1
    2788:	90 e0       	ldi	r25, 0x00	; 0
    278a:	90 93 17 02 	sts	0x0217, r25	; 0x800217 <knop2_ingedrukt+0x1>
    278e:	80 93 16 02 	sts	0x0216, r24	; 0x800216 <knop2_ingedrukt>
    2792:	18 c1       	rjmp	.+560    	; 0x29c4 <.L179>

00002794 <.L178>:

                            }
                        }
                    else
                        {
                        if (knop2_ingedrukt != 0) // knop is zojuist losgelaten
    2794:	80 91 16 02 	lds	r24, 0x0216	; 0x800216 <knop2_ingedrukt>
    2798:	90 91 17 02 	lds	r25, 0x0217	; 0x800217 <knop2_ingedrukt+0x1>

0000279c <.Loc.555>:
    279c:	00 97       	sbiw	r24, 0x00	; 0
    279e:	09 f4       	brne	.+2      	; 0x27a2 <L0^A+0x2>

000027a0 <L0^A>:
    27a0:	11 c1       	rjmp	.+546    	; 0x29c4 <.L179>
    27a2:	9e 01       	movw	r18, r28
    27a4:	2b 53       	subi	r18, 0x3B	; 59
    27a6:	3f 4f       	sbci	r19, 0xFF	; 255
    27a8:	80 e0       	ldi	r24, 0x00	; 0
    27aa:	90 e0       	ldi	r25, 0x00	; 0
    27ac:	a0 ef       	ldi	r26, 0xF0	; 240
    27ae:	b1 e4       	ldi	r27, 0x41	; 65
    27b0:	f9 01       	movw	r30, r18
    27b2:	80 83       	st	Z, r24
    27b4:	91 83       	std	Z+1, r25	; 0x01
    27b6:	a2 83       	std	Z+2, r26	; 0x02
    27b8:	b3 83       	std	Z+3, r27	; 0x03

000027ba <.LBB230>:
	__tmp = ((F_CPU) / 4e3) * __ms;
    27ba:	8e 01       	movw	r16, r28
    27bc:	07 53       	subi	r16, 0x37	; 55
    27be:	1f 4f       	sbci	r17, 0xFF	; 255
    27c0:	ce 01       	movw	r24, r28
    27c2:	8b 53       	subi	r24, 0x3B	; 59
    27c4:	9f 4f       	sbci	r25, 0xFF	; 255
    27c6:	20 e0       	ldi	r18, 0x00	; 0
    27c8:	30 e0       	ldi	r19, 0x00	; 0
    27ca:	4a e7       	ldi	r20, 0x7A	; 122
    27cc:	55 e4       	ldi	r21, 0x45	; 69
    27ce:	dc 01       	movw	r26, r24
    27d0:	6d 91       	ld	r22, X+
    27d2:	7d 91       	ld	r23, X+
    27d4:	8d 91       	ld	r24, X+
    27d6:	9c 91       	ld	r25, X
    27d8:	0e 94 57 20 	call	0x40ae	; 0x40ae <__mulsf3>
    27dc:	c1 58       	subi	r28, 0x81	; 129
    27de:	dd 4f       	sbci	r29, 0xFD	; 253
    27e0:	68 83       	st	Y, r22
    27e2:	79 83       	std	Y+1, r23	; 0x01
    27e4:	8a 83       	std	Y+2, r24	; 0x02
    27e6:	9b 83       	std	Y+3, r25	; 0x03
    27e8:	cf 57       	subi	r28, 0x7F	; 127
    27ea:	d2 40       	sbci	r29, 0x02	; 2
    27ec:	c1 58       	subi	r28, 0x81	; 129
    27ee:	dd 4f       	sbci	r29, 0xFD	; 253
    27f0:	28 81       	ld	r18, Y
    27f2:	39 81       	ldd	r19, Y+1	; 0x01
    27f4:	4a 81       	ldd	r20, Y+2	; 0x02
    27f6:	5b 81       	ldd	r21, Y+3	; 0x03
    27f8:	cf 57       	subi	r28, 0x7F	; 127
    27fa:	d2 40       	sbci	r29, 0x02	; 2
    27fc:	d8 01       	movw	r26, r16
    27fe:	2d 93       	st	X+, r18
    2800:	3d 93       	st	X+, r19
    2802:	4d 93       	st	X+, r20
    2804:	5c 93       	st	X, r21
    2806:	13 97       	sbiw	r26, 0x03	; 3

00002808 <.Loc.557>:
	if (__tmp < 1.0)
    2808:	ce 01       	movw	r24, r28
    280a:	87 53       	subi	r24, 0x37	; 55
    280c:	9f 4f       	sbci	r25, 0xFF	; 255
    280e:	20 e0       	ldi	r18, 0x00	; 0
    2810:	30 e0       	ldi	r19, 0x00	; 0
    2812:	40 e8       	ldi	r20, 0x80	; 128
    2814:	5f e3       	ldi	r21, 0x3F	; 63
    2816:	fc 01       	movw	r30, r24
    2818:	60 81       	ld	r22, Z
    281a:	71 81       	ldd	r23, Z+1	; 0x01
    281c:	82 81       	ldd	r24, Z+2	; 0x02
    281e:	93 81       	ldd	r25, Z+3	; 0x03
    2820:	0e 94 d1 1f 	call	0x3fa2	; 0x3fa2 <__cmpsf2>
    2824:	88 23       	and	r24, r24
    2826:	54 f4       	brge	.+20     	; 0x283c <.L349>

00002828 <.Loc.558>:
		__ticks = 1;
    2828:	ce 01       	movw	r24, r28
    282a:	83 53       	subi	r24, 0x33	; 51
    282c:	9f 4f       	sbci	r25, 0xFF	; 255
    282e:	21 e0       	ldi	r18, 0x01	; 1
    2830:	30 e0       	ldi	r19, 0x00	; 0
    2832:	dc 01       	movw	r26, r24
    2834:	11 96       	adiw	r26, 0x01	; 1
    2836:	3c 93       	st	X, r19
    2838:	2e 93       	st	-X, r18
    283a:	a5 c0       	rjmp	.+330    	; 0x2986 <.L190>

0000283c <.L349>:
	else if (__tmp > 65535)
    283c:	ce 01       	movw	r24, r28
    283e:	87 53       	subi	r24, 0x37	; 55
    2840:	9f 4f       	sbci	r25, 0xFF	; 255
    2842:	20 e0       	ldi	r18, 0x00	; 0
    2844:	3f ef       	ldi	r19, 0xFF	; 255
    2846:	4f e7       	ldi	r20, 0x7F	; 127
    2848:	57 e4       	ldi	r21, 0x47	; 71
    284a:	fc 01       	movw	r30, r24
    284c:	60 81       	ld	r22, Z
    284e:	71 81       	ldd	r23, Z+1	; 0x01
    2850:	82 81       	ldd	r24, Z+2	; 0x02
    2852:	93 81       	ldd	r25, Z+3	; 0x03
    2854:	0e 94 52 20 	call	0x40a4	; 0x40a4 <__gesf2>
    2858:	88 23       	and	r24, r24
    285a:	09 f0       	breq	.+2      	; 0x285e <L0^A>

0000285c <L0^A>:
    285c:	0c f4       	brge	.+2      	; 0x2860 <.Loc.560>

0000285e <L0^A>:
    285e:	75 c0       	rjmp	.+234    	; 0x294a <.L350>

00002860 <.Loc.560>:
		__ticks = (uint16_t) (__ms * 10.0);
    2860:	ce 01       	movw	r24, r28
    2862:	8b 53       	subi	r24, 0x3B	; 59
    2864:	9f 4f       	sbci	r25, 0xFF	; 255
    2866:	20 e0       	ldi	r18, 0x00	; 0
    2868:	30 e0       	ldi	r19, 0x00	; 0
    286a:	40 e2       	ldi	r20, 0x20	; 32
    286c:	51 e4       	ldi	r21, 0x41	; 65
    286e:	dc 01       	movw	r26, r24
    2870:	6d 91       	ld	r22, X+
    2872:	7d 91       	ld	r23, X+
    2874:	8d 91       	ld	r24, X+
    2876:	9c 91       	ld	r25, X
    2878:	0e 94 57 20 	call	0x40ae	; 0x40ae <__mulsf3>
    287c:	cd 57       	subi	r28, 0x7D	; 125
    287e:	dd 4f       	sbci	r29, 0xFD	; 253
    2880:	68 83       	st	Y, r22
    2882:	79 83       	std	Y+1, r23	; 0x01
    2884:	8a 83       	std	Y+2, r24	; 0x02
    2886:	9b 83       	std	Y+3, r25	; 0x03
    2888:	c3 58       	subi	r28, 0x83	; 131
    288a:	d2 40       	sbci	r29, 0x02	; 2
    288c:	cd 57       	subi	r28, 0x7D	; 125
    288e:	dd 4f       	sbci	r29, 0xFD	; 253
    2890:	28 81       	ld	r18, Y
    2892:	39 81       	ldd	r19, Y+1	; 0x01
    2894:	4a 81       	ldd	r20, Y+2	; 0x02
    2896:	5b 81       	ldd	r21, Y+3	; 0x03
    2898:	c3 58       	subi	r28, 0x83	; 131
    289a:	d2 40       	sbci	r29, 0x02	; 2
    289c:	c5 58       	subi	r28, 0x85	; 133
    289e:	de 4f       	sbci	r29, 0xFE	; 254
    28a0:	28 83       	st	Y, r18
    28a2:	39 83       	std	Y+1, r19	; 0x01
    28a4:	4a 83       	std	Y+2, r20	; 0x02
    28a6:	5b 83       	std	Y+3, r21	; 0x03
    28a8:	cb 57       	subi	r28, 0x7B	; 123
    28aa:	d1 40       	sbci	r29, 0x01	; 1

000028ac <.Loc.561>:
    28ac:	8e 01       	movw	r16, r28
    28ae:	03 53       	subi	r16, 0x33	; 51
    28b0:	1f 4f       	sbci	r17, 0xFF	; 255
    28b2:	c5 58       	subi	r28, 0x85	; 133
    28b4:	de 4f       	sbci	r29, 0xFE	; 254
    28b6:	68 81       	ld	r22, Y
    28b8:	79 81       	ldd	r23, Y+1	; 0x01
    28ba:	8a 81       	ldd	r24, Y+2	; 0x02
    28bc:	9b 81       	ldd	r25, Y+3	; 0x03
    28be:	cb 57       	subi	r28, 0x7B	; 123
    28c0:	d1 40       	sbci	r29, 0x01	; 1
    28c2:	0e 94 d6 1f 	call	0x3fac	; 0x3fac <__fixunssfsi>
    28c6:	c9 57       	subi	r28, 0x79	; 121
    28c8:	dd 4f       	sbci	r29, 0xFD	; 253
    28ca:	68 83       	st	Y, r22
    28cc:	79 83       	std	Y+1, r23	; 0x01
    28ce:	8a 83       	std	Y+2, r24	; 0x02
    28d0:	9b 83       	std	Y+3, r25	; 0x03
    28d2:	c7 58       	subi	r28, 0x87	; 135
    28d4:	d2 40       	sbci	r29, 0x02	; 2
    28d6:	c9 57       	subi	r28, 0x79	; 121
    28d8:	dd 4f       	sbci	r29, 0xFD	; 253
    28da:	e8 81       	ld	r30, Y
    28dc:	f9 81       	ldd	r31, Y+1	; 0x01
    28de:	c7 58       	subi	r28, 0x87	; 135
    28e0:	d2 40       	sbci	r29, 0x02	; 2
    28e2:	d8 01       	movw	r26, r16
    28e4:	11 96       	adiw	r26, 0x01	; 1
    28e6:	fc 93       	st	X, r31
    28e8:	ee 93       	st	-X, r30

000028ea <.Loc.562>:
		while(__ticks)
    28ea:	26 c0       	rjmp	.+76     	; 0x2938 <.L193>

000028ec <.L194>:
    28ec:	ce 01       	movw	r24, r28
    28ee:	81 53       	subi	r24, 0x31	; 49
    28f0:	9f 4f       	sbci	r25, 0xFF	; 255
    28f2:	20 e9       	ldi	r18, 0x90	; 144
    28f4:	31 e0       	ldi	r19, 0x01	; 1
    28f6:	dc 01       	movw	r26, r24
    28f8:	2d 93       	st	X+, r18
    28fa:	3c 93       	st	X, r19

000028fc <.LBB232>:
    28fc:	ce 01       	movw	r24, r28
    28fe:	81 53       	subi	r24, 0x31	; 49
    2900:	9f 4f       	sbci	r25, 0xFF	; 255
    2902:	fc 01       	movw	r30, r24
    2904:	80 81       	ld	r24, Z
    2906:	91 81       	ldd	r25, Z+1	; 0x01

00002908 <.L1^B30>:
    2908:	01 97       	sbiw	r24, 0x01	; 1
    290a:	f1 f7       	brne	.-4      	; 0x2908 <.L1^B30>
    290c:	9e 01       	movw	r18, r28
    290e:	21 53       	subi	r18, 0x31	; 49
    2910:	3f 4f       	sbci	r19, 0xFF	; 255
    2912:	d9 01       	movw	r26, r18
    2914:	8d 93       	st	X+, r24
    2916:	9c 93       	st	X, r25

00002918 <.Loc.564>:
	...

0000291a <.LBE232>:
			__ticks --;
    291a:	ce 01       	movw	r24, r28
    291c:	83 53       	subi	r24, 0x33	; 51
    291e:	9f 4f       	sbci	r25, 0xFF	; 255
    2920:	9e 01       	movw	r18, r28
    2922:	23 53       	subi	r18, 0x33	; 51
    2924:	3f 4f       	sbci	r19, 0xFF	; 255
    2926:	f9 01       	movw	r30, r18
    2928:	20 81       	ld	r18, Z
    292a:	31 81       	ldd	r19, Z+1	; 0x01
    292c:	21 50       	subi	r18, 0x01	; 1
    292e:	31 09       	sbc	r19, r1
    2930:	dc 01       	movw	r26, r24
    2932:	11 96       	adiw	r26, 0x01	; 1
    2934:	3c 93       	st	X, r19
    2936:	2e 93       	st	-X, r18

00002938 <.L193>:
		while(__ticks)
    2938:	ce 01       	movw	r24, r28
    293a:	83 53       	subi	r24, 0x33	; 51
    293c:	9f 4f       	sbci	r25, 0xFF	; 255
    293e:	fc 01       	movw	r30, r24
    2940:	80 81       	ld	r24, Z
    2942:	91 81       	ldd	r25, Z+1	; 0x01
    2944:	00 97       	sbiw	r24, 0x00	; 0
    2946:	91 f6       	brne	.-92     	; 0x28ec <.L194>

00002948 <.Loc.567>:
		return;
    2948:	39 c0       	rjmp	.+114    	; 0x29bc <.L195>

0000294a <.L350>:
		__ticks = (uint16_t)__tmp;
    294a:	8e 01       	movw	r16, r28
    294c:	03 53       	subi	r16, 0x33	; 51
    294e:	1f 4f       	sbci	r17, 0xFF	; 255
    2950:	ce 01       	movw	r24, r28
    2952:	87 53       	subi	r24, 0x37	; 55
    2954:	9f 4f       	sbci	r25, 0xFF	; 255
    2956:	dc 01       	movw	r26, r24
    2958:	6d 91       	ld	r22, X+
    295a:	7d 91       	ld	r23, X+
    295c:	8d 91       	ld	r24, X+
    295e:	9c 91       	ld	r25, X
    2960:	0e 94 d6 1f 	call	0x3fac	; 0x3fac <__fixunssfsi>
    2964:	c5 57       	subi	r28, 0x75	; 117
    2966:	dd 4f       	sbci	r29, 0xFD	; 253
    2968:	68 83       	st	Y, r22
    296a:	79 83       	std	Y+1, r23	; 0x01
    296c:	8a 83       	std	Y+2, r24	; 0x02
    296e:	9b 83       	std	Y+3, r25	; 0x03
    2970:	cb 58       	subi	r28, 0x8B	; 139
    2972:	d2 40       	sbci	r29, 0x02	; 2
    2974:	c5 57       	subi	r28, 0x75	; 117
    2976:	dd 4f       	sbci	r29, 0xFD	; 253
    2978:	28 81       	ld	r18, Y
    297a:	39 81       	ldd	r19, Y+1	; 0x01
    297c:	cb 58       	subi	r28, 0x8B	; 139
    297e:	d2 40       	sbci	r29, 0x02	; 2
    2980:	f8 01       	movw	r30, r16
    2982:	31 83       	std	Z+1, r19	; 0x01
    2984:	20 83       	st	Z, r18

00002986 <.L190>:
    2986:	ce 01       	movw	r24, r28
    2988:	8f 52       	subi	r24, 0x2F	; 47
    298a:	9f 4f       	sbci	r25, 0xFF	; 255
    298c:	9e 01       	movw	r18, r28
    298e:	23 53       	subi	r18, 0x33	; 51
    2990:	3f 4f       	sbci	r19, 0xFF	; 255
    2992:	d9 01       	movw	r26, r18
    2994:	2d 91       	ld	r18, X+
    2996:	3c 91       	ld	r19, X
    2998:	fc 01       	movw	r30, r24
    299a:	31 83       	std	Z+1, r19	; 0x01
    299c:	20 83       	st	Z, r18

0000299e <.LBB234>:
    299e:	ce 01       	movw	r24, r28
    29a0:	8f 52       	subi	r24, 0x2F	; 47
    29a2:	9f 4f       	sbci	r25, 0xFF	; 255
    29a4:	dc 01       	movw	r26, r24
    29a6:	8d 91       	ld	r24, X+
    29a8:	9c 91       	ld	r25, X

000029aa <.L1^B31>:
    29aa:	01 97       	sbiw	r24, 0x01	; 1
    29ac:	f1 f7       	brne	.-4      	; 0x29aa <.L1^B31>
    29ae:	9e 01       	movw	r18, r28
    29b0:	2f 52       	subi	r18, 0x2F	; 47
    29b2:	3f 4f       	sbci	r19, 0xFF	; 255
    29b4:	f9 01       	movw	r30, r18
    29b6:	91 83       	std	Z+1, r25	; 0x01
    29b8:	80 83       	st	Z, r24

000029ba <.Loc.570>:
	...

000029bc <.L195>:
                            {
                                _delay_ms(30);
                                knop2_ingedrukt = 0;
    29bc:	10 92 17 02 	sts	0x0217, r1	; 0x800217 <knop2_ingedrukt+0x1>
    29c0:	10 92 16 02 	sts	0x0216, r1	; 0x800216 <knop2_ingedrukt>

000029c4 <.L179>:
                            }
                        }


                     if (PINL & (1 << confirm))  //executeer
    29c4:	89 e0       	ldi	r24, 0x09	; 9
    29c6:	91 e0       	ldi	r25, 0x01	; 1
    29c8:	dc 01       	movw	r26, r24
    29ca:	8c 91       	ld	r24, X

000029cc <.Loc.573>:
    29cc:	88 2f       	mov	r24, r24
    29ce:	90 e0       	ldi	r25, 0x00	; 0
    29d0:	88 70       	andi	r24, 0x08	; 8
    29d2:	99 27       	eor	r25, r25

000029d4 <.Loc.574>:
    29d4:	00 97       	sbiw	r24, 0x00	; 0
    29d6:	09 f4       	brne	.+2      	; 0x29da <.Loc.575>

000029d8 <L0^A>:
    29d8:	2e c1       	rjmp	.+604    	; 0x2c36 <.L196>

000029da <.Loc.575>:
                        {
                            if (knop4_ingedrukt == 0) // knop is niet al eerder ingedrukt
    29da:	80 91 1a 02 	lds	r24, 0x021A	; 0x80021a <knop4_ingedrukt>
    29de:	90 91 1b 02 	lds	r25, 0x021B	; 0x80021b <knop4_ingedrukt+0x1>

000029e2 <.Loc.576>:
    29e2:	00 97       	sbiw	r24, 0x00	; 0
    29e4:	09 f0       	breq	.+2      	; 0x29e8 <L0^A+0x2>

000029e6 <L0^A>:
    29e6:	3f c2       	rjmp	.+1150   	; 0x2e66 <.L197>
    29e8:	9e 01       	movw	r18, r28
    29ea:	2d 52       	subi	r18, 0x2D	; 45
    29ec:	3f 4f       	sbci	r19, 0xFF	; 255
    29ee:	80 e0       	ldi	r24, 0x00	; 0
    29f0:	90 e0       	ldi	r25, 0x00	; 0
    29f2:	a0 ef       	ldi	r26, 0xF0	; 240
    29f4:	b1 e4       	ldi	r27, 0x41	; 65
    29f6:	f9 01       	movw	r30, r18
    29f8:	80 83       	st	Z, r24
    29fa:	91 83       	std	Z+1, r25	; 0x01
    29fc:	a2 83       	std	Z+2, r26	; 0x02
    29fe:	b3 83       	std	Z+3, r27	; 0x03

00002a00 <.LBB236>:
	__tmp = ((F_CPU) / 4e3) * __ms;
    2a00:	8e 01       	movw	r16, r28
    2a02:	09 52       	subi	r16, 0x29	; 41
    2a04:	1f 4f       	sbci	r17, 0xFF	; 255
    2a06:	ce 01       	movw	r24, r28
    2a08:	8d 52       	subi	r24, 0x2D	; 45
    2a0a:	9f 4f       	sbci	r25, 0xFF	; 255
    2a0c:	20 e0       	ldi	r18, 0x00	; 0
    2a0e:	30 e0       	ldi	r19, 0x00	; 0
    2a10:	4a e7       	ldi	r20, 0x7A	; 122
    2a12:	55 e4       	ldi	r21, 0x45	; 69
    2a14:	dc 01       	movw	r26, r24
    2a16:	6d 91       	ld	r22, X+
    2a18:	7d 91       	ld	r23, X+
    2a1a:	8d 91       	ld	r24, X+
    2a1c:	9c 91       	ld	r25, X
    2a1e:	0e 94 57 20 	call	0x40ae	; 0x40ae <__mulsf3>
    2a22:	c1 57       	subi	r28, 0x71	; 113
    2a24:	dd 4f       	sbci	r29, 0xFD	; 253
    2a26:	68 83       	st	Y, r22
    2a28:	79 83       	std	Y+1, r23	; 0x01
    2a2a:	8a 83       	std	Y+2, r24	; 0x02
    2a2c:	9b 83       	std	Y+3, r25	; 0x03
    2a2e:	cf 58       	subi	r28, 0x8F	; 143
    2a30:	d2 40       	sbci	r29, 0x02	; 2
    2a32:	c1 57       	subi	r28, 0x71	; 113
    2a34:	dd 4f       	sbci	r29, 0xFD	; 253
    2a36:	28 81       	ld	r18, Y
    2a38:	39 81       	ldd	r19, Y+1	; 0x01
    2a3a:	4a 81       	ldd	r20, Y+2	; 0x02
    2a3c:	5b 81       	ldd	r21, Y+3	; 0x03
    2a3e:	cf 58       	subi	r28, 0x8F	; 143
    2a40:	d2 40       	sbci	r29, 0x02	; 2
    2a42:	d8 01       	movw	r26, r16
    2a44:	2d 93       	st	X+, r18
    2a46:	3d 93       	st	X+, r19
    2a48:	4d 93       	st	X+, r20
    2a4a:	5c 93       	st	X, r21
    2a4c:	13 97       	sbiw	r26, 0x03	; 3

00002a4e <.Loc.578>:
	if (__tmp < 1.0)
    2a4e:	ce 01       	movw	r24, r28
    2a50:	89 52       	subi	r24, 0x29	; 41
    2a52:	9f 4f       	sbci	r25, 0xFF	; 255
    2a54:	20 e0       	ldi	r18, 0x00	; 0
    2a56:	30 e0       	ldi	r19, 0x00	; 0
    2a58:	40 e8       	ldi	r20, 0x80	; 128
    2a5a:	5f e3       	ldi	r21, 0x3F	; 63
    2a5c:	fc 01       	movw	r30, r24
    2a5e:	60 81       	ld	r22, Z
    2a60:	71 81       	ldd	r23, Z+1	; 0x01
    2a62:	82 81       	ldd	r24, Z+2	; 0x02
    2a64:	93 81       	ldd	r25, Z+3	; 0x03
    2a66:	0e 94 d1 1f 	call	0x3fa2	; 0x3fa2 <__cmpsf2>
    2a6a:	88 23       	and	r24, r24
    2a6c:	54 f4       	brge	.+20     	; 0x2a82 <.L351>

00002a6e <.Loc.579>:
		__ticks = 1;
    2a6e:	ce 01       	movw	r24, r28
    2a70:	85 52       	subi	r24, 0x25	; 37
    2a72:	9f 4f       	sbci	r25, 0xFF	; 255
    2a74:	21 e0       	ldi	r18, 0x01	; 1
    2a76:	30 e0       	ldi	r19, 0x00	; 0
    2a78:	dc 01       	movw	r26, r24
    2a7a:	11 96       	adiw	r26, 0x01	; 1
    2a7c:	3c 93       	st	X, r19
    2a7e:	2e 93       	st	-X, r18
    2a80:	a5 c0       	rjmp	.+330    	; 0x2bcc <.L200>

00002a82 <.L351>:
	else if (__tmp > 65535)
    2a82:	ce 01       	movw	r24, r28
    2a84:	89 52       	subi	r24, 0x29	; 41
    2a86:	9f 4f       	sbci	r25, 0xFF	; 255
    2a88:	20 e0       	ldi	r18, 0x00	; 0
    2a8a:	3f ef       	ldi	r19, 0xFF	; 255
    2a8c:	4f e7       	ldi	r20, 0x7F	; 127
    2a8e:	57 e4       	ldi	r21, 0x47	; 71
    2a90:	fc 01       	movw	r30, r24
    2a92:	60 81       	ld	r22, Z
    2a94:	71 81       	ldd	r23, Z+1	; 0x01
    2a96:	82 81       	ldd	r24, Z+2	; 0x02
    2a98:	93 81       	ldd	r25, Z+3	; 0x03
    2a9a:	0e 94 52 20 	call	0x40a4	; 0x40a4 <__gesf2>
    2a9e:	88 23       	and	r24, r24
    2aa0:	09 f0       	breq	.+2      	; 0x2aa4 <L0^A>

00002aa2 <L0^A>:
    2aa2:	0c f4       	brge	.+2      	; 0x2aa6 <.Loc.581>

00002aa4 <L0^A>:
    2aa4:	75 c0       	rjmp	.+234    	; 0x2b90 <.L352>

00002aa6 <.Loc.581>:
		__ticks = (uint16_t) (__ms * 10.0);
    2aa6:	ce 01       	movw	r24, r28
    2aa8:	8d 52       	subi	r24, 0x2D	; 45
    2aaa:	9f 4f       	sbci	r25, 0xFF	; 255
    2aac:	20 e0       	ldi	r18, 0x00	; 0
    2aae:	30 e0       	ldi	r19, 0x00	; 0
    2ab0:	40 e2       	ldi	r20, 0x20	; 32
    2ab2:	51 e4       	ldi	r21, 0x41	; 65
    2ab4:	dc 01       	movw	r26, r24
    2ab6:	6d 91       	ld	r22, X+
    2ab8:	7d 91       	ld	r23, X+
    2aba:	8d 91       	ld	r24, X+
    2abc:	9c 91       	ld	r25, X
    2abe:	0e 94 57 20 	call	0x40ae	; 0x40ae <__mulsf3>
    2ac2:	cd 56       	subi	r28, 0x6D	; 109
    2ac4:	dd 4f       	sbci	r29, 0xFD	; 253
    2ac6:	68 83       	st	Y, r22
    2ac8:	79 83       	std	Y+1, r23	; 0x01
    2aca:	8a 83       	std	Y+2, r24	; 0x02
    2acc:	9b 83       	std	Y+3, r25	; 0x03
    2ace:	c3 59       	subi	r28, 0x93	; 147
    2ad0:	d2 40       	sbci	r29, 0x02	; 2
    2ad2:	cd 56       	subi	r28, 0x6D	; 109
    2ad4:	dd 4f       	sbci	r29, 0xFD	; 253
    2ad6:	28 81       	ld	r18, Y
    2ad8:	39 81       	ldd	r19, Y+1	; 0x01
    2ada:	4a 81       	ldd	r20, Y+2	; 0x02
    2adc:	5b 81       	ldd	r21, Y+3	; 0x03
    2ade:	c3 59       	subi	r28, 0x93	; 147
    2ae0:	d2 40       	sbci	r29, 0x02	; 2
    2ae2:	c1 58       	subi	r28, 0x81	; 129
    2ae4:	de 4f       	sbci	r29, 0xFE	; 254
    2ae6:	28 83       	st	Y, r18
    2ae8:	39 83       	std	Y+1, r19	; 0x01
    2aea:	4a 83       	std	Y+2, r20	; 0x02
    2aec:	5b 83       	std	Y+3, r21	; 0x03
    2aee:	cf 57       	subi	r28, 0x7F	; 127
    2af0:	d1 40       	sbci	r29, 0x01	; 1

00002af2 <.Loc.582>:
    2af2:	8e 01       	movw	r16, r28
    2af4:	05 52       	subi	r16, 0x25	; 37
    2af6:	1f 4f       	sbci	r17, 0xFF	; 255
    2af8:	c1 58       	subi	r28, 0x81	; 129
    2afa:	de 4f       	sbci	r29, 0xFE	; 254
    2afc:	68 81       	ld	r22, Y
    2afe:	79 81       	ldd	r23, Y+1	; 0x01
    2b00:	8a 81       	ldd	r24, Y+2	; 0x02
    2b02:	9b 81       	ldd	r25, Y+3	; 0x03
    2b04:	cf 57       	subi	r28, 0x7F	; 127
    2b06:	d1 40       	sbci	r29, 0x01	; 1
    2b08:	0e 94 d6 1f 	call	0x3fac	; 0x3fac <__fixunssfsi>
    2b0c:	c9 56       	subi	r28, 0x69	; 105
    2b0e:	dd 4f       	sbci	r29, 0xFD	; 253
    2b10:	68 83       	st	Y, r22
    2b12:	79 83       	std	Y+1, r23	; 0x01
    2b14:	8a 83       	std	Y+2, r24	; 0x02
    2b16:	9b 83       	std	Y+3, r25	; 0x03
    2b18:	c7 59       	subi	r28, 0x97	; 151
    2b1a:	d2 40       	sbci	r29, 0x02	; 2
    2b1c:	c9 56       	subi	r28, 0x69	; 105
    2b1e:	dd 4f       	sbci	r29, 0xFD	; 253
    2b20:	e8 81       	ld	r30, Y
    2b22:	f9 81       	ldd	r31, Y+1	; 0x01
    2b24:	c7 59       	subi	r28, 0x97	; 151
    2b26:	d2 40       	sbci	r29, 0x02	; 2
    2b28:	d8 01       	movw	r26, r16
    2b2a:	11 96       	adiw	r26, 0x01	; 1
    2b2c:	fc 93       	st	X, r31
    2b2e:	ee 93       	st	-X, r30

00002b30 <.Loc.583>:
		while(__ticks)
    2b30:	26 c0       	rjmp	.+76     	; 0x2b7e <.L203>

00002b32 <.L204>:
    2b32:	ce 01       	movw	r24, r28
    2b34:	83 52       	subi	r24, 0x23	; 35
    2b36:	9f 4f       	sbci	r25, 0xFF	; 255
    2b38:	20 e9       	ldi	r18, 0x90	; 144
    2b3a:	31 e0       	ldi	r19, 0x01	; 1
    2b3c:	dc 01       	movw	r26, r24
    2b3e:	2d 93       	st	X+, r18
    2b40:	3c 93       	st	X, r19

00002b42 <.LBB238>:
    2b42:	ce 01       	movw	r24, r28
    2b44:	83 52       	subi	r24, 0x23	; 35
    2b46:	9f 4f       	sbci	r25, 0xFF	; 255
    2b48:	fc 01       	movw	r30, r24
    2b4a:	80 81       	ld	r24, Z
    2b4c:	91 81       	ldd	r25, Z+1	; 0x01

00002b4e <.L1^B32>:
    2b4e:	01 97       	sbiw	r24, 0x01	; 1
    2b50:	f1 f7       	brne	.-4      	; 0x2b4e <.L1^B32>
    2b52:	9e 01       	movw	r18, r28
    2b54:	23 52       	subi	r18, 0x23	; 35
    2b56:	3f 4f       	sbci	r19, 0xFF	; 255
    2b58:	d9 01       	movw	r26, r18
    2b5a:	8d 93       	st	X+, r24
    2b5c:	9c 93       	st	X, r25

00002b5e <.Loc.585>:
	...

00002b60 <.LBE238>:
			__ticks --;
    2b60:	ce 01       	movw	r24, r28
    2b62:	85 52       	subi	r24, 0x25	; 37
    2b64:	9f 4f       	sbci	r25, 0xFF	; 255
    2b66:	9e 01       	movw	r18, r28
    2b68:	25 52       	subi	r18, 0x25	; 37
    2b6a:	3f 4f       	sbci	r19, 0xFF	; 255
    2b6c:	f9 01       	movw	r30, r18
    2b6e:	20 81       	ld	r18, Z
    2b70:	31 81       	ldd	r19, Z+1	; 0x01
    2b72:	21 50       	subi	r18, 0x01	; 1
    2b74:	31 09       	sbc	r19, r1
    2b76:	dc 01       	movw	r26, r24
    2b78:	11 96       	adiw	r26, 0x01	; 1
    2b7a:	3c 93       	st	X, r19
    2b7c:	2e 93       	st	-X, r18

00002b7e <.L203>:
		while(__ticks)
    2b7e:	ce 01       	movw	r24, r28
    2b80:	85 52       	subi	r24, 0x25	; 37
    2b82:	9f 4f       	sbci	r25, 0xFF	; 255
    2b84:	fc 01       	movw	r30, r24
    2b86:	80 81       	ld	r24, Z
    2b88:	91 81       	ldd	r25, Z+1	; 0x01
    2b8a:	00 97       	sbiw	r24, 0x00	; 0
    2b8c:	91 f6       	brne	.-92     	; 0x2b32 <.L204>

00002b8e <.Loc.588>:
		return;
    2b8e:	3a c0       	rjmp	.+116    	; 0x2c04 <.L205>

00002b90 <.L352>:
		__ticks = (uint16_t)__tmp;
    2b90:	8e 01       	movw	r16, r28
    2b92:	05 52       	subi	r16, 0x25	; 37
    2b94:	1f 4f       	sbci	r17, 0xFF	; 255
    2b96:	ce 01       	movw	r24, r28
    2b98:	89 52       	subi	r24, 0x29	; 41
    2b9a:	9f 4f       	sbci	r25, 0xFF	; 255
    2b9c:	dc 01       	movw	r26, r24
    2b9e:	6d 91       	ld	r22, X+
    2ba0:	7d 91       	ld	r23, X+
    2ba2:	8d 91       	ld	r24, X+
    2ba4:	9c 91       	ld	r25, X
    2ba6:	0e 94 d6 1f 	call	0x3fac	; 0x3fac <__fixunssfsi>
    2baa:	c5 56       	subi	r28, 0x65	; 101
    2bac:	dd 4f       	sbci	r29, 0xFD	; 253
    2bae:	68 83       	st	Y, r22
    2bb0:	79 83       	std	Y+1, r23	; 0x01
    2bb2:	8a 83       	std	Y+2, r24	; 0x02
    2bb4:	9b 83       	std	Y+3, r25	; 0x03
    2bb6:	cb 59       	subi	r28, 0x9B	; 155
    2bb8:	d2 40       	sbci	r29, 0x02	; 2
    2bba:	c5 56       	subi	r28, 0x65	; 101
    2bbc:	dd 4f       	sbci	r29, 0xFD	; 253
    2bbe:	28 81       	ld	r18, Y
    2bc0:	39 81       	ldd	r19, Y+1	; 0x01
    2bc2:	cb 59       	subi	r28, 0x9B	; 155
    2bc4:	d2 40       	sbci	r29, 0x02	; 2
    2bc6:	f8 01       	movw	r30, r16
    2bc8:	31 83       	std	Z+1, r19	; 0x01
    2bca:	20 83       	st	Z, r18

00002bcc <.L200>:
    2bcc:	ce 01       	movw	r24, r28
    2bce:	81 52       	subi	r24, 0x21	; 33
    2bd0:	9f 4f       	sbci	r25, 0xFF	; 255
    2bd2:	9e 01       	movw	r18, r28
    2bd4:	25 52       	subi	r18, 0x25	; 37
    2bd6:	3f 4f       	sbci	r19, 0xFF	; 255
    2bd8:	d9 01       	movw	r26, r18
    2bda:	2d 91       	ld	r18, X+
    2bdc:	3c 91       	ld	r19, X
    2bde:	fc 01       	movw	r30, r24
    2be0:	31 83       	std	Z+1, r19	; 0x01
    2be2:	20 83       	st	Z, r18

00002be4 <.LBB240>:
    2be4:	ce 01       	movw	r24, r28
    2be6:	81 52       	subi	r24, 0x21	; 33
    2be8:	9f 4f       	sbci	r25, 0xFF	; 255
    2bea:	dc 01       	movw	r26, r24
    2bec:	8d 91       	ld	r24, X+
    2bee:	9c 91       	ld	r25, X
    2bf0:	11 97       	sbiw	r26, 0x01	; 1

00002bf2 <.L1^B33>:
    2bf2:	01 97       	sbiw	r24, 0x01	; 1
    2bf4:	f1 f7       	brne	.-4      	; 0x2bf2 <.L1^B33>
    2bf6:	9e 01       	movw	r18, r28
    2bf8:	21 52       	subi	r18, 0x21	; 33
    2bfa:	3f 4f       	sbci	r19, 0xFF	; 255
    2bfc:	f9 01       	movw	r30, r18
    2bfe:	91 83       	std	Z+1, r25	; 0x01
    2c00:	80 83       	st	Z, r24

00002c02 <.Loc.591>:
	...

00002c04 <.L205>:
                            {
                                _delay_ms(30);
                                StepCounterY=n;
    2c04:	80 91 0e 02 	lds	r24, 0x020E	; 0x80020e <n>
    2c08:	90 91 0f 02 	lds	r25, 0x020F	; 0x80020f <n+0x1>
    2c0c:	90 93 1d 02 	sts	0x021D, r25	; 0x80021d <StepCounterY+0x1>
    2c10:	80 93 1c 02 	sts	0x021C, r24	; 0x80021c <StepCounterY>

00002c14 <.Loc.593>:
                                MenuLayer = 30; //Switch to execution of code
    2c14:	8e e1       	ldi	r24, 0x1E	; 30
    2c16:	90 e0       	ldi	r25, 0x00	; 0
    2c18:	90 93 01 02 	sts	0x0201, r25	; 0x800201 <MenuLayer+0x1>
    2c1c:	80 93 00 02 	sts	0x0200, r24	; 0x800200 <MenuLayer>

00002c20 <.Loc.594>:
                                n=0; //New axis starts from 0.
    2c20:	10 92 0f 02 	sts	0x020F, r1	; 0x80020f <n+0x1>
    2c24:	10 92 0e 02 	sts	0x020E, r1	; 0x80020e <n>

00002c28 <.Loc.595>:
                                knop4_ingedrukt = 1;
    2c28:	81 e0       	ldi	r24, 0x01	; 1
    2c2a:	90 e0       	ldi	r25, 0x00	; 0
    2c2c:	90 93 1b 02 	sts	0x021B, r25	; 0x80021b <knop4_ingedrukt+0x1>
    2c30:	80 93 1a 02 	sts	0x021A, r24	; 0x80021a <knop4_ingedrukt>
    2c34:	18 c1       	rjmp	.+560    	; 0x2e66 <.L197>

00002c36 <.L196>:
                            }
                        }
                    else
                        {
                        if (knop4_ingedrukt != 0) // knop is zojuist losgelaten
    2c36:	80 91 1a 02 	lds	r24, 0x021A	; 0x80021a <knop4_ingedrukt>
    2c3a:	90 91 1b 02 	lds	r25, 0x021B	; 0x80021b <knop4_ingedrukt+0x1>

00002c3e <.Loc.597>:
    2c3e:	00 97       	sbiw	r24, 0x00	; 0
    2c40:	09 f4       	brne	.+2      	; 0x2c44 <L0^A+0x2>

00002c42 <L0^A>:
    2c42:	11 c1       	rjmp	.+546    	; 0x2e66 <.L197>
    2c44:	9e 01       	movw	r18, r28
    2c46:	2f 51       	subi	r18, 0x1F	; 31
    2c48:	3f 4f       	sbci	r19, 0xFF	; 255
    2c4a:	80 e0       	ldi	r24, 0x00	; 0
    2c4c:	90 e0       	ldi	r25, 0x00	; 0
    2c4e:	a0 ef       	ldi	r26, 0xF0	; 240
    2c50:	b1 e4       	ldi	r27, 0x41	; 65
    2c52:	f9 01       	movw	r30, r18
    2c54:	80 83       	st	Z, r24
    2c56:	91 83       	std	Z+1, r25	; 0x01
    2c58:	a2 83       	std	Z+2, r26	; 0x02
    2c5a:	b3 83       	std	Z+3, r27	; 0x03

00002c5c <.LBB242>:
	__tmp = ((F_CPU) / 4e3) * __ms;
    2c5c:	8e 01       	movw	r16, r28
    2c5e:	0b 51       	subi	r16, 0x1B	; 27
    2c60:	1f 4f       	sbci	r17, 0xFF	; 255
    2c62:	ce 01       	movw	r24, r28
    2c64:	8f 51       	subi	r24, 0x1F	; 31
    2c66:	9f 4f       	sbci	r25, 0xFF	; 255
    2c68:	20 e0       	ldi	r18, 0x00	; 0
    2c6a:	30 e0       	ldi	r19, 0x00	; 0
    2c6c:	4a e7       	ldi	r20, 0x7A	; 122
    2c6e:	55 e4       	ldi	r21, 0x45	; 69
    2c70:	dc 01       	movw	r26, r24
    2c72:	6d 91       	ld	r22, X+
    2c74:	7d 91       	ld	r23, X+
    2c76:	8d 91       	ld	r24, X+
    2c78:	9c 91       	ld	r25, X
    2c7a:	0e 94 57 20 	call	0x40ae	; 0x40ae <__mulsf3>
    2c7e:	c1 56       	subi	r28, 0x61	; 97
    2c80:	dd 4f       	sbci	r29, 0xFD	; 253
    2c82:	68 83       	st	Y, r22
    2c84:	79 83       	std	Y+1, r23	; 0x01
    2c86:	8a 83       	std	Y+2, r24	; 0x02
    2c88:	9b 83       	std	Y+3, r25	; 0x03
    2c8a:	cf 59       	subi	r28, 0x9F	; 159
    2c8c:	d2 40       	sbci	r29, 0x02	; 2
    2c8e:	c1 56       	subi	r28, 0x61	; 97
    2c90:	dd 4f       	sbci	r29, 0xFD	; 253
    2c92:	28 81       	ld	r18, Y
    2c94:	39 81       	ldd	r19, Y+1	; 0x01
    2c96:	4a 81       	ldd	r20, Y+2	; 0x02
    2c98:	5b 81       	ldd	r21, Y+3	; 0x03
    2c9a:	cf 59       	subi	r28, 0x9F	; 159
    2c9c:	d2 40       	sbci	r29, 0x02	; 2
    2c9e:	d8 01       	movw	r26, r16
    2ca0:	2d 93       	st	X+, r18
    2ca2:	3d 93       	st	X+, r19
    2ca4:	4d 93       	st	X+, r20
    2ca6:	5c 93       	st	X, r21
    2ca8:	13 97       	sbiw	r26, 0x03	; 3

00002caa <.Loc.599>:
	if (__tmp < 1.0)
    2caa:	ce 01       	movw	r24, r28
    2cac:	8b 51       	subi	r24, 0x1B	; 27
    2cae:	9f 4f       	sbci	r25, 0xFF	; 255
    2cb0:	20 e0       	ldi	r18, 0x00	; 0
    2cb2:	30 e0       	ldi	r19, 0x00	; 0
    2cb4:	40 e8       	ldi	r20, 0x80	; 128
    2cb6:	5f e3       	ldi	r21, 0x3F	; 63
    2cb8:	fc 01       	movw	r30, r24
    2cba:	60 81       	ld	r22, Z
    2cbc:	71 81       	ldd	r23, Z+1	; 0x01
    2cbe:	82 81       	ldd	r24, Z+2	; 0x02
    2cc0:	93 81       	ldd	r25, Z+3	; 0x03
    2cc2:	0e 94 d1 1f 	call	0x3fa2	; 0x3fa2 <__cmpsf2>
    2cc6:	88 23       	and	r24, r24
    2cc8:	54 f4       	brge	.+20     	; 0x2cde <.L353>

00002cca <.Loc.600>:
		__ticks = 1;
    2cca:	ce 01       	movw	r24, r28
    2ccc:	87 51       	subi	r24, 0x17	; 23
    2cce:	9f 4f       	sbci	r25, 0xFF	; 255
    2cd0:	21 e0       	ldi	r18, 0x01	; 1
    2cd2:	30 e0       	ldi	r19, 0x00	; 0
    2cd4:	dc 01       	movw	r26, r24
    2cd6:	11 96       	adiw	r26, 0x01	; 1
    2cd8:	3c 93       	st	X, r19
    2cda:	2e 93       	st	-X, r18
    2cdc:	a5 c0       	rjmp	.+330    	; 0x2e28 <.L208>

00002cde <.L353>:
	else if (__tmp > 65535)
    2cde:	ce 01       	movw	r24, r28
    2ce0:	8b 51       	subi	r24, 0x1B	; 27
    2ce2:	9f 4f       	sbci	r25, 0xFF	; 255
    2ce4:	20 e0       	ldi	r18, 0x00	; 0
    2ce6:	3f ef       	ldi	r19, 0xFF	; 255
    2ce8:	4f e7       	ldi	r20, 0x7F	; 127
    2cea:	57 e4       	ldi	r21, 0x47	; 71
    2cec:	fc 01       	movw	r30, r24
    2cee:	60 81       	ld	r22, Z
    2cf0:	71 81       	ldd	r23, Z+1	; 0x01
    2cf2:	82 81       	ldd	r24, Z+2	; 0x02
    2cf4:	93 81       	ldd	r25, Z+3	; 0x03
    2cf6:	0e 94 52 20 	call	0x40a4	; 0x40a4 <__gesf2>
    2cfa:	88 23       	and	r24, r24
    2cfc:	09 f0       	breq	.+2      	; 0x2d00 <L0^A>

00002cfe <L0^A>:
    2cfe:	0c f4       	brge	.+2      	; 0x2d02 <.Loc.602>

00002d00 <L0^A>:
    2d00:	75 c0       	rjmp	.+234    	; 0x2dec <.L354>

00002d02 <.Loc.602>:
		__ticks = (uint16_t) (__ms * 10.0);
    2d02:	ce 01       	movw	r24, r28
    2d04:	8f 51       	subi	r24, 0x1F	; 31
    2d06:	9f 4f       	sbci	r25, 0xFF	; 255
    2d08:	20 e0       	ldi	r18, 0x00	; 0
    2d0a:	30 e0       	ldi	r19, 0x00	; 0
    2d0c:	40 e2       	ldi	r20, 0x20	; 32
    2d0e:	51 e4       	ldi	r21, 0x41	; 65
    2d10:	dc 01       	movw	r26, r24
    2d12:	6d 91       	ld	r22, X+
    2d14:	7d 91       	ld	r23, X+
    2d16:	8d 91       	ld	r24, X+
    2d18:	9c 91       	ld	r25, X
    2d1a:	0e 94 57 20 	call	0x40ae	; 0x40ae <__mulsf3>
    2d1e:	cd 55       	subi	r28, 0x5D	; 93
    2d20:	dd 4f       	sbci	r29, 0xFD	; 253
    2d22:	68 83       	st	Y, r22
    2d24:	79 83       	std	Y+1, r23	; 0x01
    2d26:	8a 83       	std	Y+2, r24	; 0x02
    2d28:	9b 83       	std	Y+3, r25	; 0x03
    2d2a:	c3 5a       	subi	r28, 0xA3	; 163
    2d2c:	d2 40       	sbci	r29, 0x02	; 2
    2d2e:	cd 55       	subi	r28, 0x5D	; 93
    2d30:	dd 4f       	sbci	r29, 0xFD	; 253
    2d32:	28 81       	ld	r18, Y
    2d34:	39 81       	ldd	r19, Y+1	; 0x01
    2d36:	4a 81       	ldd	r20, Y+2	; 0x02
    2d38:	5b 81       	ldd	r21, Y+3	; 0x03
    2d3a:	c3 5a       	subi	r28, 0xA3	; 163
    2d3c:	d2 40       	sbci	r29, 0x02	; 2
    2d3e:	cd 57       	subi	r28, 0x7D	; 125
    2d40:	de 4f       	sbci	r29, 0xFE	; 254
    2d42:	28 83       	st	Y, r18
    2d44:	39 83       	std	Y+1, r19	; 0x01
    2d46:	4a 83       	std	Y+2, r20	; 0x02
    2d48:	5b 83       	std	Y+3, r21	; 0x03
    2d4a:	c3 58       	subi	r28, 0x83	; 131
    2d4c:	d1 40       	sbci	r29, 0x01	; 1

00002d4e <.Loc.603>:
    2d4e:	8e 01       	movw	r16, r28
    2d50:	07 51       	subi	r16, 0x17	; 23
    2d52:	1f 4f       	sbci	r17, 0xFF	; 255
    2d54:	cd 57       	subi	r28, 0x7D	; 125
    2d56:	de 4f       	sbci	r29, 0xFE	; 254
    2d58:	68 81       	ld	r22, Y
    2d5a:	79 81       	ldd	r23, Y+1	; 0x01
    2d5c:	8a 81       	ldd	r24, Y+2	; 0x02
    2d5e:	9b 81       	ldd	r25, Y+3	; 0x03
    2d60:	c3 58       	subi	r28, 0x83	; 131
    2d62:	d1 40       	sbci	r29, 0x01	; 1
    2d64:	0e 94 d6 1f 	call	0x3fac	; 0x3fac <__fixunssfsi>
    2d68:	c9 55       	subi	r28, 0x59	; 89
    2d6a:	dd 4f       	sbci	r29, 0xFD	; 253
    2d6c:	68 83       	st	Y, r22
    2d6e:	79 83       	std	Y+1, r23	; 0x01
    2d70:	8a 83       	std	Y+2, r24	; 0x02
    2d72:	9b 83       	std	Y+3, r25	; 0x03
    2d74:	c7 5a       	subi	r28, 0xA7	; 167
    2d76:	d2 40       	sbci	r29, 0x02	; 2
    2d78:	c9 55       	subi	r28, 0x59	; 89
    2d7a:	dd 4f       	sbci	r29, 0xFD	; 253
    2d7c:	e8 81       	ld	r30, Y
    2d7e:	f9 81       	ldd	r31, Y+1	; 0x01
    2d80:	c7 5a       	subi	r28, 0xA7	; 167
    2d82:	d2 40       	sbci	r29, 0x02	; 2
    2d84:	d8 01       	movw	r26, r16
    2d86:	11 96       	adiw	r26, 0x01	; 1
    2d88:	fc 93       	st	X, r31
    2d8a:	ee 93       	st	-X, r30

00002d8c <.Loc.604>:
		while(__ticks)
    2d8c:	26 c0       	rjmp	.+76     	; 0x2dda <.L211>

00002d8e <.L212>:
    2d8e:	ce 01       	movw	r24, r28
    2d90:	85 51       	subi	r24, 0x15	; 21
    2d92:	9f 4f       	sbci	r25, 0xFF	; 255
    2d94:	20 e9       	ldi	r18, 0x90	; 144
    2d96:	31 e0       	ldi	r19, 0x01	; 1
    2d98:	dc 01       	movw	r26, r24
    2d9a:	2d 93       	st	X+, r18
    2d9c:	3c 93       	st	X, r19

00002d9e <.LBB244>:
    2d9e:	ce 01       	movw	r24, r28
    2da0:	85 51       	subi	r24, 0x15	; 21
    2da2:	9f 4f       	sbci	r25, 0xFF	; 255
    2da4:	fc 01       	movw	r30, r24
    2da6:	80 81       	ld	r24, Z
    2da8:	91 81       	ldd	r25, Z+1	; 0x01

00002daa <.L1^B34>:
    2daa:	01 97       	sbiw	r24, 0x01	; 1
    2dac:	f1 f7       	brne	.-4      	; 0x2daa <.L1^B34>
    2dae:	9e 01       	movw	r18, r28
    2db0:	25 51       	subi	r18, 0x15	; 21
    2db2:	3f 4f       	sbci	r19, 0xFF	; 255
    2db4:	d9 01       	movw	r26, r18
    2db6:	8d 93       	st	X+, r24
    2db8:	9c 93       	st	X, r25

00002dba <.Loc.606>:
	...

00002dbc <.LBE244>:
			__ticks --;
    2dbc:	ce 01       	movw	r24, r28
    2dbe:	87 51       	subi	r24, 0x17	; 23
    2dc0:	9f 4f       	sbci	r25, 0xFF	; 255
    2dc2:	9e 01       	movw	r18, r28
    2dc4:	27 51       	subi	r18, 0x17	; 23
    2dc6:	3f 4f       	sbci	r19, 0xFF	; 255
    2dc8:	f9 01       	movw	r30, r18
    2dca:	20 81       	ld	r18, Z
    2dcc:	31 81       	ldd	r19, Z+1	; 0x01
    2dce:	21 50       	subi	r18, 0x01	; 1
    2dd0:	31 09       	sbc	r19, r1
    2dd2:	dc 01       	movw	r26, r24
    2dd4:	11 96       	adiw	r26, 0x01	; 1
    2dd6:	3c 93       	st	X, r19
    2dd8:	2e 93       	st	-X, r18

00002dda <.L211>:
		while(__ticks)
    2dda:	ce 01       	movw	r24, r28
    2ddc:	87 51       	subi	r24, 0x17	; 23
    2dde:	9f 4f       	sbci	r25, 0xFF	; 255
    2de0:	fc 01       	movw	r30, r24
    2de2:	80 81       	ld	r24, Z
    2de4:	91 81       	ldd	r25, Z+1	; 0x01
    2de6:	00 97       	sbiw	r24, 0x00	; 0
    2de8:	91 f6       	brne	.-92     	; 0x2d8e <.L212>

00002dea <.Loc.609>:
		return;
    2dea:	39 c0       	rjmp	.+114    	; 0x2e5e <.L213>

00002dec <.L354>:
		__ticks = (uint16_t)__tmp;
    2dec:	8e 01       	movw	r16, r28
    2dee:	07 51       	subi	r16, 0x17	; 23
    2df0:	1f 4f       	sbci	r17, 0xFF	; 255
    2df2:	ce 01       	movw	r24, r28
    2df4:	8b 51       	subi	r24, 0x1B	; 27
    2df6:	9f 4f       	sbci	r25, 0xFF	; 255
    2df8:	dc 01       	movw	r26, r24
    2dfa:	6d 91       	ld	r22, X+
    2dfc:	7d 91       	ld	r23, X+
    2dfe:	8d 91       	ld	r24, X+
    2e00:	9c 91       	ld	r25, X
    2e02:	0e 94 d6 1f 	call	0x3fac	; 0x3fac <__fixunssfsi>
    2e06:	c5 55       	subi	r28, 0x55	; 85
    2e08:	dd 4f       	sbci	r29, 0xFD	; 253
    2e0a:	68 83       	st	Y, r22
    2e0c:	79 83       	std	Y+1, r23	; 0x01
    2e0e:	8a 83       	std	Y+2, r24	; 0x02
    2e10:	9b 83       	std	Y+3, r25	; 0x03
    2e12:	cb 5a       	subi	r28, 0xAB	; 171
    2e14:	d2 40       	sbci	r29, 0x02	; 2
    2e16:	c5 55       	subi	r28, 0x55	; 85
    2e18:	dd 4f       	sbci	r29, 0xFD	; 253
    2e1a:	28 81       	ld	r18, Y
    2e1c:	39 81       	ldd	r19, Y+1	; 0x01
    2e1e:	cb 5a       	subi	r28, 0xAB	; 171
    2e20:	d2 40       	sbci	r29, 0x02	; 2
    2e22:	f8 01       	movw	r30, r16
    2e24:	31 83       	std	Z+1, r19	; 0x01
    2e26:	20 83       	st	Z, r18

00002e28 <.L208>:
    2e28:	ce 01       	movw	r24, r28
    2e2a:	83 51       	subi	r24, 0x13	; 19
    2e2c:	9f 4f       	sbci	r25, 0xFF	; 255
    2e2e:	9e 01       	movw	r18, r28
    2e30:	27 51       	subi	r18, 0x17	; 23
    2e32:	3f 4f       	sbci	r19, 0xFF	; 255
    2e34:	d9 01       	movw	r26, r18
    2e36:	2d 91       	ld	r18, X+
    2e38:	3c 91       	ld	r19, X
    2e3a:	fc 01       	movw	r30, r24
    2e3c:	31 83       	std	Z+1, r19	; 0x01
    2e3e:	20 83       	st	Z, r18

00002e40 <.LBB246>:
    2e40:	ce 01       	movw	r24, r28
    2e42:	83 51       	subi	r24, 0x13	; 19
    2e44:	9f 4f       	sbci	r25, 0xFF	; 255
    2e46:	dc 01       	movw	r26, r24
    2e48:	8d 91       	ld	r24, X+
    2e4a:	9c 91       	ld	r25, X

00002e4c <.L1^B35>:
    2e4c:	01 97       	sbiw	r24, 0x01	; 1
    2e4e:	f1 f7       	brne	.-4      	; 0x2e4c <.L1^B35>
    2e50:	9e 01       	movw	r18, r28
    2e52:	23 51       	subi	r18, 0x13	; 19
    2e54:	3f 4f       	sbci	r19, 0xFF	; 255
    2e56:	f9 01       	movw	r30, r18
    2e58:	91 83       	std	Z+1, r25	; 0x01
    2e5a:	80 83       	st	Z, r24

00002e5c <.Loc.612>:
	...

00002e5e <.L213>:
                            {
                                _delay_ms(30);
                                knop4_ingedrukt = 0;
    2e5e:	10 92 1b 02 	sts	0x021B, r1	; 0x80021b <knop4_ingedrukt+0x1>
    2e62:	10 92 1a 02 	sts	0x021A, r1	; 0x80021a <knop4_ingedrukt>

00002e66 <.L197>:
                            }
                        }
                Refresh();
    2e66:	0e 94 2e 03 	call	0x65c	; 0x65c <Refresh>

00002e6a <.Loc.615>:
                }break;
    2e6a:	0c 94 62 1f 	jmp	0x3ec4	; 0x3ec4 <.L59>

00002e6e <.L52>:


                case 30:{ //Beneden om te pakken
                    PORTA |= (1<<RelaisX)|(1<<RelaisY)|(1<<RelaisZ)|(1<<RelaisMagnet);
    2e6e:	82 e2       	ldi	r24, 0x22	; 34
    2e70:	90 e0       	ldi	r25, 0x00	; 0
    2e72:	dc 01       	movw	r26, r24
    2e74:	2c 91       	ld	r18, X
    2e76:	82 e2       	ldi	r24, 0x22	; 34
    2e78:	90 e0       	ldi	r25, 0x00	; 0

00002e7a <.Loc.617>:
    2e7a:	27 61       	ori	r18, 0x17	; 23
    2e7c:	fc 01       	movw	r30, r24
    2e7e:	20 83       	st	Z, r18

00002e80 <.Loc.618>:
                    PORTA &= ~(1 << RelaisZ)&~(1<<RelaisMagnet);//Z-as aan en magneet uit
    2e80:	82 e2       	ldi	r24, 0x22	; 34
    2e82:	90 e0       	ldi	r25, 0x00	; 0
    2e84:	dc 01       	movw	r26, r24
    2e86:	2c 91       	ld	r18, X

00002e88 <.Loc.619>:
    2e88:	82 e2       	ldi	r24, 0x22	; 34
    2e8a:	90 e0       	ldi	r25, 0x00	; 0

00002e8c <.Loc.620>:
    2e8c:	2d 7e       	andi	r18, 0xED	; 237
    2e8e:	fc 01       	movw	r30, r24
    2e90:	20 83       	st	Z, r18

00002e92 <.Loc.621>:
                    PORTB ^= (1 << PB5); //Debug Light Z-as
    2e92:	85 e2       	ldi	r24, 0x25	; 37
    2e94:	90 e0       	ldi	r25, 0x00	; 0
    2e96:	dc 01       	movw	r26, r24
    2e98:	3c 91       	ld	r19, X
    2e9a:	85 e2       	ldi	r24, 0x25	; 37
    2e9c:	90 e0       	ldi	r25, 0x00	; 0

00002e9e <.Loc.622>:
    2e9e:	20 e2       	ldi	r18, 0x20	; 32
    2ea0:	23 27       	eor	r18, r19
    2ea2:	fc 01       	movw	r30, r24
    2ea4:	20 83       	st	Z, r18

00002ea6 <.Loc.623>:

                    h_bridge_set_percentage(-20);
    2ea6:	8c ee       	ldi	r24, 0xEC	; 236
    2ea8:	0e 94 bd 01 	call	0x37a	; 0x37a <h_bridge_set_percentage>
    2eac:	9e 01       	movw	r18, r28
    2eae:	21 51       	subi	r18, 0x11	; 17
    2eb0:	3f 4f       	sbci	r19, 0xFF	; 255
    2eb2:	80 e0       	ldi	r24, 0x00	; 0
    2eb4:	90 e8       	ldi	r25, 0x80	; 128
    2eb6:	ab eb       	ldi	r26, 0xBB	; 187
    2eb8:	b4 e4       	ldi	r27, 0x44	; 68
    2eba:	f9 01       	movw	r30, r18
    2ebc:	80 83       	st	Z, r24
    2ebe:	91 83       	std	Z+1, r25	; 0x01
    2ec0:	a2 83       	std	Z+2, r26	; 0x02
    2ec2:	b3 83       	std	Z+3, r27	; 0x03

00002ec4 <.LBB248>:
	__tmp = ((F_CPU) / 4e3) * __ms;
    2ec4:	8e 01       	movw	r16, r28
    2ec6:	0d 50       	subi	r16, 0x0D	; 13
    2ec8:	1f 4f       	sbci	r17, 0xFF	; 255
    2eca:	ce 01       	movw	r24, r28
    2ecc:	81 51       	subi	r24, 0x11	; 17
    2ece:	9f 4f       	sbci	r25, 0xFF	; 255
    2ed0:	20 e0       	ldi	r18, 0x00	; 0
    2ed2:	30 e0       	ldi	r19, 0x00	; 0
    2ed4:	4a e7       	ldi	r20, 0x7A	; 122
    2ed6:	55 e4       	ldi	r21, 0x45	; 69
    2ed8:	dc 01       	movw	r26, r24
    2eda:	6d 91       	ld	r22, X+
    2edc:	7d 91       	ld	r23, X+
    2ede:	8d 91       	ld	r24, X+
    2ee0:	9c 91       	ld	r25, X
    2ee2:	0e 94 57 20 	call	0x40ae	; 0x40ae <__mulsf3>
    2ee6:	c1 55       	subi	r28, 0x51	; 81
    2ee8:	dd 4f       	sbci	r29, 0xFD	; 253
    2eea:	68 83       	st	Y, r22
    2eec:	79 83       	std	Y+1, r23	; 0x01
    2eee:	8a 83       	std	Y+2, r24	; 0x02
    2ef0:	9b 83       	std	Y+3, r25	; 0x03
    2ef2:	cf 5a       	subi	r28, 0xAF	; 175
    2ef4:	d2 40       	sbci	r29, 0x02	; 2
    2ef6:	c1 55       	subi	r28, 0x51	; 81
    2ef8:	dd 4f       	sbci	r29, 0xFD	; 253
    2efa:	28 81       	ld	r18, Y
    2efc:	39 81       	ldd	r19, Y+1	; 0x01
    2efe:	4a 81       	ldd	r20, Y+2	; 0x02
    2f00:	5b 81       	ldd	r21, Y+3	; 0x03
    2f02:	cf 5a       	subi	r28, 0xAF	; 175
    2f04:	d2 40       	sbci	r29, 0x02	; 2
    2f06:	d8 01       	movw	r26, r16
    2f08:	2d 93       	st	X+, r18
    2f0a:	3d 93       	st	X+, r19
    2f0c:	4d 93       	st	X+, r20
    2f0e:	5c 93       	st	X, r21
    2f10:	13 97       	sbiw	r26, 0x03	; 3

00002f12 <.Loc.625>:
	if (__tmp < 1.0)
    2f12:	ce 01       	movw	r24, r28
    2f14:	8d 50       	subi	r24, 0x0D	; 13
    2f16:	9f 4f       	sbci	r25, 0xFF	; 255
    2f18:	20 e0       	ldi	r18, 0x00	; 0
    2f1a:	30 e0       	ldi	r19, 0x00	; 0
    2f1c:	40 e8       	ldi	r20, 0x80	; 128
    2f1e:	5f e3       	ldi	r21, 0x3F	; 63
    2f20:	fc 01       	movw	r30, r24
    2f22:	60 81       	ld	r22, Z
    2f24:	71 81       	ldd	r23, Z+1	; 0x01
    2f26:	82 81       	ldd	r24, Z+2	; 0x02
    2f28:	93 81       	ldd	r25, Z+3	; 0x03
    2f2a:	0e 94 d1 1f 	call	0x3fa2	; 0x3fa2 <__cmpsf2>
    2f2e:	88 23       	and	r24, r24
    2f30:	54 f4       	brge	.+20     	; 0x2f46 <.L355>

00002f32 <.Loc.626>:
		__ticks = 1;
    2f32:	ce 01       	movw	r24, r28
    2f34:	89 50       	subi	r24, 0x09	; 9
    2f36:	9f 4f       	sbci	r25, 0xFF	; 255
    2f38:	21 e0       	ldi	r18, 0x01	; 1
    2f3a:	30 e0       	ldi	r19, 0x00	; 0
    2f3c:	dc 01       	movw	r26, r24
    2f3e:	11 96       	adiw	r26, 0x01	; 1
    2f40:	3c 93       	st	X, r19
    2f42:	2e 93       	st	-X, r18
    2f44:	a5 c0       	rjmp	.+330    	; 0x3090 <.L216>

00002f46 <.L355>:
	else if (__tmp > 65535)
    2f46:	ce 01       	movw	r24, r28
    2f48:	8d 50       	subi	r24, 0x0D	; 13
    2f4a:	9f 4f       	sbci	r25, 0xFF	; 255
    2f4c:	20 e0       	ldi	r18, 0x00	; 0
    2f4e:	3f ef       	ldi	r19, 0xFF	; 255
    2f50:	4f e7       	ldi	r20, 0x7F	; 127
    2f52:	57 e4       	ldi	r21, 0x47	; 71
    2f54:	fc 01       	movw	r30, r24
    2f56:	60 81       	ld	r22, Z
    2f58:	71 81       	ldd	r23, Z+1	; 0x01
    2f5a:	82 81       	ldd	r24, Z+2	; 0x02
    2f5c:	93 81       	ldd	r25, Z+3	; 0x03
    2f5e:	0e 94 52 20 	call	0x40a4	; 0x40a4 <__gesf2>
    2f62:	88 23       	and	r24, r24
    2f64:	09 f0       	breq	.+2      	; 0x2f68 <L0^A>

00002f66 <L0^A>:
    2f66:	0c f4       	brge	.+2      	; 0x2f6a <.Loc.628>

00002f68 <L0^A>:
    2f68:	75 c0       	rjmp	.+234    	; 0x3054 <.L356>

00002f6a <.Loc.628>:
		__ticks = (uint16_t) (__ms * 10.0);
    2f6a:	ce 01       	movw	r24, r28
    2f6c:	81 51       	subi	r24, 0x11	; 17
    2f6e:	9f 4f       	sbci	r25, 0xFF	; 255
    2f70:	20 e0       	ldi	r18, 0x00	; 0
    2f72:	30 e0       	ldi	r19, 0x00	; 0
    2f74:	40 e2       	ldi	r20, 0x20	; 32
    2f76:	51 e4       	ldi	r21, 0x41	; 65
    2f78:	dc 01       	movw	r26, r24
    2f7a:	6d 91       	ld	r22, X+
    2f7c:	7d 91       	ld	r23, X+
    2f7e:	8d 91       	ld	r24, X+
    2f80:	9c 91       	ld	r25, X
    2f82:	0e 94 57 20 	call	0x40ae	; 0x40ae <__mulsf3>
    2f86:	cd 54       	subi	r28, 0x4D	; 77
    2f88:	dd 4f       	sbci	r29, 0xFD	; 253
    2f8a:	68 83       	st	Y, r22
    2f8c:	79 83       	std	Y+1, r23	; 0x01
    2f8e:	8a 83       	std	Y+2, r24	; 0x02
    2f90:	9b 83       	std	Y+3, r25	; 0x03
    2f92:	c3 5b       	subi	r28, 0xB3	; 179
    2f94:	d2 40       	sbci	r29, 0x02	; 2
    2f96:	cd 54       	subi	r28, 0x4D	; 77
    2f98:	dd 4f       	sbci	r29, 0xFD	; 253
    2f9a:	28 81       	ld	r18, Y
    2f9c:	39 81       	ldd	r19, Y+1	; 0x01
    2f9e:	4a 81       	ldd	r20, Y+2	; 0x02
    2fa0:	5b 81       	ldd	r21, Y+3	; 0x03
    2fa2:	c3 5b       	subi	r28, 0xB3	; 179
    2fa4:	d2 40       	sbci	r29, 0x02	; 2
    2fa6:	c9 57       	subi	r28, 0x79	; 121
    2fa8:	de 4f       	sbci	r29, 0xFE	; 254
    2faa:	28 83       	st	Y, r18
    2fac:	39 83       	std	Y+1, r19	; 0x01
    2fae:	4a 83       	std	Y+2, r20	; 0x02
    2fb0:	5b 83       	std	Y+3, r21	; 0x03
    2fb2:	c7 58       	subi	r28, 0x87	; 135
    2fb4:	d1 40       	sbci	r29, 0x01	; 1

00002fb6 <.Loc.629>:
    2fb6:	8e 01       	movw	r16, r28
    2fb8:	09 50       	subi	r16, 0x09	; 9
    2fba:	1f 4f       	sbci	r17, 0xFF	; 255
    2fbc:	c9 57       	subi	r28, 0x79	; 121
    2fbe:	de 4f       	sbci	r29, 0xFE	; 254
    2fc0:	68 81       	ld	r22, Y
    2fc2:	79 81       	ldd	r23, Y+1	; 0x01
    2fc4:	8a 81       	ldd	r24, Y+2	; 0x02
    2fc6:	9b 81       	ldd	r25, Y+3	; 0x03
    2fc8:	c7 58       	subi	r28, 0x87	; 135
    2fca:	d1 40       	sbci	r29, 0x01	; 1
    2fcc:	0e 94 d6 1f 	call	0x3fac	; 0x3fac <__fixunssfsi>
    2fd0:	c9 54       	subi	r28, 0x49	; 73
    2fd2:	dd 4f       	sbci	r29, 0xFD	; 253
    2fd4:	68 83       	st	Y, r22
    2fd6:	79 83       	std	Y+1, r23	; 0x01
    2fd8:	8a 83       	std	Y+2, r24	; 0x02
    2fda:	9b 83       	std	Y+3, r25	; 0x03
    2fdc:	c7 5b       	subi	r28, 0xB7	; 183
    2fde:	d2 40       	sbci	r29, 0x02	; 2
    2fe0:	c9 54       	subi	r28, 0x49	; 73
    2fe2:	dd 4f       	sbci	r29, 0xFD	; 253
    2fe4:	e8 81       	ld	r30, Y
    2fe6:	f9 81       	ldd	r31, Y+1	; 0x01
    2fe8:	c7 5b       	subi	r28, 0xB7	; 183
    2fea:	d2 40       	sbci	r29, 0x02	; 2
    2fec:	d8 01       	movw	r26, r16
    2fee:	11 96       	adiw	r26, 0x01	; 1
    2ff0:	fc 93       	st	X, r31
    2ff2:	ee 93       	st	-X, r30

00002ff4 <.Loc.630>:
		while(__ticks)
    2ff4:	26 c0       	rjmp	.+76     	; 0x3042 <.L219>

00002ff6 <.L220>:
    2ff6:	ce 01       	movw	r24, r28
    2ff8:	87 50       	subi	r24, 0x07	; 7
    2ffa:	9f 4f       	sbci	r25, 0xFF	; 255
    2ffc:	20 e9       	ldi	r18, 0x90	; 144
    2ffe:	31 e0       	ldi	r19, 0x01	; 1
    3000:	dc 01       	movw	r26, r24
    3002:	2d 93       	st	X+, r18
    3004:	3c 93       	st	X, r19

00003006 <.LBB250>:
    3006:	ce 01       	movw	r24, r28
    3008:	87 50       	subi	r24, 0x07	; 7
    300a:	9f 4f       	sbci	r25, 0xFF	; 255
    300c:	fc 01       	movw	r30, r24
    300e:	80 81       	ld	r24, Z
    3010:	91 81       	ldd	r25, Z+1	; 0x01

00003012 <.L1^B36>:
    3012:	01 97       	sbiw	r24, 0x01	; 1
    3014:	f1 f7       	brne	.-4      	; 0x3012 <.L1^B36>
    3016:	9e 01       	movw	r18, r28
    3018:	27 50       	subi	r18, 0x07	; 7
    301a:	3f 4f       	sbci	r19, 0xFF	; 255
    301c:	d9 01       	movw	r26, r18
    301e:	8d 93       	st	X+, r24
    3020:	9c 93       	st	X, r25

00003022 <.Loc.632>:
	...

00003024 <.LBE250>:
			__ticks --;
    3024:	ce 01       	movw	r24, r28
    3026:	89 50       	subi	r24, 0x09	; 9
    3028:	9f 4f       	sbci	r25, 0xFF	; 255
    302a:	9e 01       	movw	r18, r28
    302c:	29 50       	subi	r18, 0x09	; 9
    302e:	3f 4f       	sbci	r19, 0xFF	; 255
    3030:	f9 01       	movw	r30, r18
    3032:	20 81       	ld	r18, Z
    3034:	31 81       	ldd	r19, Z+1	; 0x01
    3036:	21 50       	subi	r18, 0x01	; 1
    3038:	31 09       	sbc	r19, r1
    303a:	dc 01       	movw	r26, r24
    303c:	11 96       	adiw	r26, 0x01	; 1
    303e:	3c 93       	st	X, r19
    3040:	2e 93       	st	-X, r18

00003042 <.L219>:
		while(__ticks)
    3042:	ce 01       	movw	r24, r28
    3044:	89 50       	subi	r24, 0x09	; 9
    3046:	9f 4f       	sbci	r25, 0xFF	; 255
    3048:	fc 01       	movw	r30, r24
    304a:	80 81       	ld	r24, Z
    304c:	91 81       	ldd	r25, Z+1	; 0x01
    304e:	00 97       	sbiw	r24, 0x00	; 0
    3050:	91 f6       	brne	.-92     	; 0x2ff6 <.L220>

00003052 <.Loc.635>:
		return;
    3052:	39 c0       	rjmp	.+114    	; 0x30c6 <.L221>

00003054 <.L356>:
		__ticks = (uint16_t)__tmp;
    3054:	8e 01       	movw	r16, r28
    3056:	09 50       	subi	r16, 0x09	; 9
    3058:	1f 4f       	sbci	r17, 0xFF	; 255
    305a:	ce 01       	movw	r24, r28
    305c:	8d 50       	subi	r24, 0x0D	; 13
    305e:	9f 4f       	sbci	r25, 0xFF	; 255
    3060:	dc 01       	movw	r26, r24
    3062:	6d 91       	ld	r22, X+
    3064:	7d 91       	ld	r23, X+
    3066:	8d 91       	ld	r24, X+
    3068:	9c 91       	ld	r25, X
    306a:	0e 94 d6 1f 	call	0x3fac	; 0x3fac <__fixunssfsi>
    306e:	c5 54       	subi	r28, 0x45	; 69
    3070:	dd 4f       	sbci	r29, 0xFD	; 253
    3072:	68 83       	st	Y, r22
    3074:	79 83       	std	Y+1, r23	; 0x01
    3076:	8a 83       	std	Y+2, r24	; 0x02
    3078:	9b 83       	std	Y+3, r25	; 0x03
    307a:	cb 5b       	subi	r28, 0xBB	; 187
    307c:	d2 40       	sbci	r29, 0x02	; 2
    307e:	c5 54       	subi	r28, 0x45	; 69
    3080:	dd 4f       	sbci	r29, 0xFD	; 253
    3082:	28 81       	ld	r18, Y
    3084:	39 81       	ldd	r19, Y+1	; 0x01
    3086:	cb 5b       	subi	r28, 0xBB	; 187
    3088:	d2 40       	sbci	r29, 0x02	; 2
    308a:	f8 01       	movw	r30, r16
    308c:	31 83       	std	Z+1, r19	; 0x01
    308e:	20 83       	st	Z, r18

00003090 <.L216>:
    3090:	ce 01       	movw	r24, r28
    3092:	85 50       	subi	r24, 0x05	; 5
    3094:	9f 4f       	sbci	r25, 0xFF	; 255
    3096:	9e 01       	movw	r18, r28
    3098:	29 50       	subi	r18, 0x09	; 9
    309a:	3f 4f       	sbci	r19, 0xFF	; 255
    309c:	d9 01       	movw	r26, r18
    309e:	2d 91       	ld	r18, X+
    30a0:	3c 91       	ld	r19, X
    30a2:	fc 01       	movw	r30, r24
    30a4:	31 83       	std	Z+1, r19	; 0x01
    30a6:	20 83       	st	Z, r18

000030a8 <.LBB252>:
    30a8:	ce 01       	movw	r24, r28
    30aa:	85 50       	subi	r24, 0x05	; 5
    30ac:	9f 4f       	sbci	r25, 0xFF	; 255
    30ae:	dc 01       	movw	r26, r24
    30b0:	8d 91       	ld	r24, X+
    30b2:	9c 91       	ld	r25, X

000030b4 <.L1^B37>:
    30b4:	01 97       	sbiw	r24, 0x01	; 1
    30b6:	f1 f7       	brne	.-4      	; 0x30b4 <.L1^B37>
    30b8:	9e 01       	movw	r18, r28
    30ba:	25 50       	subi	r18, 0x05	; 5
    30bc:	3f 4f       	sbci	r19, 0xFF	; 255
    30be:	f9 01       	movw	r30, r18
    30c0:	91 83       	std	Z+1, r25	; 0x01
    30c2:	80 83       	st	Z, r24

000030c4 <.Loc.638>:
	...

000030c6 <.L221>:
                    _delay_ms(1500);//Yeag replace this with a timer instead in the final release.
                    h_bridge_set_percentage(0);
    30c6:	80 e0       	ldi	r24, 0x00	; 0
    30c8:	0e 94 bd 01 	call	0x37a	; 0x37a <h_bridge_set_percentage>

000030cc <.Loc.640>:

                    PORTA |= (1 << RelaisMagnet);//Magneet kleeft weer
    30cc:	82 e2       	ldi	r24, 0x22	; 34
    30ce:	90 e0       	ldi	r25, 0x00	; 0
    30d0:	dc 01       	movw	r26, r24
    30d2:	2c 91       	ld	r18, X
    30d4:	82 e2       	ldi	r24, 0x22	; 34
    30d6:	90 e0       	ldi	r25, 0x00	; 0

000030d8 <.Loc.641>:
    30d8:	22 60       	ori	r18, 0x02	; 2
    30da:	fc 01       	movw	r30, r24
    30dc:	20 83       	st	Z, r18

000030de <.Loc.642>:
                    PORTB ^= (1 << PB4); //Debug Light Magnet
    30de:	85 e2       	ldi	r24, 0x25	; 37
    30e0:	90 e0       	ldi	r25, 0x00	; 0
    30e2:	dc 01       	movw	r26, r24
    30e4:	3c 91       	ld	r19, X
    30e6:	85 e2       	ldi	r24, 0x25	; 37
    30e8:	90 e0       	ldi	r25, 0x00	; 0

000030ea <.Loc.643>:
    30ea:	20 e1       	ldi	r18, 0x10	; 16
    30ec:	23 27       	eor	r18, r19
    30ee:	fc 01       	movw	r30, r24
    30f0:	20 83       	st	Z, r18

000030f2 <.Loc.644>:

                    MenuLayer = 35;
    30f2:	83 e2       	ldi	r24, 0x23	; 35
    30f4:	90 e0       	ldi	r25, 0x00	; 0
    30f6:	90 93 01 02 	sts	0x0201, r25	; 0x800201 <MenuLayer+0x1>
    30fa:	80 93 00 02 	sts	0x0200, r24	; 0x800200 <MenuLayer>

000030fe <.Loc.645>:
                }break;
    30fe:	e2 c6       	rjmp	.+3524   	; 0x3ec4 <.L59>

00003100 <.L51>:

                case 35:{ //omhoog met cargo
                    h_bridge_set_percentage(20);
    3100:	84 e1       	ldi	r24, 0x14	; 20
    3102:	0e 94 bd 01 	call	0x37a	; 0x37a <h_bridge_set_percentage>

00003106 <.Loc.647>:
                        if (PINC & (1 << Zend)) {
    3106:	86 e2       	ldi	r24, 0x26	; 38
    3108:	90 e0       	ldi	r25, 0x00	; 0
    310a:	dc 01       	movw	r26, r24
    310c:	8c 91       	ld	r24, X

0000310e <.Loc.648>:
    310e:	88 2f       	mov	r24, r24
    3110:	90 e0       	ldi	r25, 0x00	; 0
    3112:	84 70       	andi	r24, 0x04	; 4
    3114:	99 27       	eor	r25, r25

00003116 <.Loc.649>:
    3116:	00 97       	sbiw	r24, 0x00	; 0
    3118:	09 f4       	brne	.+2      	; 0x311c <.Loc.650>

0000311a <L0^A>:
    311a:	d0 c6       	rjmp	.+3488   	; 0x3ebc <.L369>

0000311c <.Loc.650>:
                            h_bridge_set_percentage(0);
    311c:	80 e0       	ldi	r24, 0x00	; 0
    311e:	0e 94 bd 01 	call	0x37a	; 0x37a <h_bridge_set_percentage>

00003122 <.Loc.651>:

                            PORTA |= (1 << RelaisZ);//Switch Relais off of Z-as.
    3122:	82 e2       	ldi	r24, 0x22	; 34
    3124:	90 e0       	ldi	r25, 0x00	; 0
    3126:	fc 01       	movw	r30, r24
    3128:	20 81       	ld	r18, Z
    312a:	82 e2       	ldi	r24, 0x22	; 34
    312c:	90 e0       	ldi	r25, 0x00	; 0

0000312e <.Loc.652>:
    312e:	20 61       	ori	r18, 0x10	; 16
    3130:	dc 01       	movw	r26, r24
    3132:	2c 93       	st	X, r18

00003134 <.Loc.653>:
                            PORTB ^= (1 << PB5); //Debug Light Z-as
    3134:	85 e2       	ldi	r24, 0x25	; 37
    3136:	90 e0       	ldi	r25, 0x00	; 0
    3138:	fc 01       	movw	r30, r24
    313a:	30 81       	ld	r19, Z
    313c:	85 e2       	ldi	r24, 0x25	; 37
    313e:	90 e0       	ldi	r25, 0x00	; 0

00003140 <.Loc.654>:
    3140:	20 e2       	ldi	r18, 0x20	; 32
    3142:	23 27       	eor	r18, r19
    3144:	dc 01       	movw	r26, r24
    3146:	2c 93       	st	X, r18

00003148 <.Loc.655>:
                            MenuLayer = 40;
    3148:	88 e2       	ldi	r24, 0x28	; 40
    314a:	90 e0       	ldi	r25, 0x00	; 0
    314c:	90 93 01 02 	sts	0x0201, r25	; 0x800201 <MenuLayer+0x1>
    3150:	80 93 00 02 	sts	0x0200, r24	; 0x800200 <MenuLayer>

00003154 <.Loc.656>:
                            }
                }break;
    3154:	b3 c6       	rjmp	.+3430   	; 0x3ebc <.L369>

00003156 <.L50>:


                case 40:{ //go Y
                    DisplayState = 'Y';
    3156:	89 e5       	ldi	r24, 0x59	; 89
    3158:	80 93 02 02 	sts	0x0202, r24	; 0x800202 <DisplayState>

0000315c <.Loc.658>:

                    PORTA &= ~(1 << RelaisX);
    315c:	82 e2       	ldi	r24, 0x22	; 34
    315e:	90 e0       	ldi	r25, 0x00	; 0
    3160:	fc 01       	movw	r30, r24
    3162:	20 81       	ld	r18, Z

00003164 <.Loc.659>:
    3164:	82 e2       	ldi	r24, 0x22	; 34
    3166:	90 e0       	ldi	r25, 0x00	; 0

00003168 <.Loc.660>:
    3168:	2e 7f       	andi	r18, 0xFE	; 254
    316a:	dc 01       	movw	r26, r24
    316c:	2c 93       	st	X, r18

0000316e <.Loc.661>:
                    PORTB ^= (1 << PB6); //Debug Light Y-as
    316e:	85 e2       	ldi	r24, 0x25	; 37
    3170:	90 e0       	ldi	r25, 0x00	; 0
    3172:	fc 01       	movw	r30, r24
    3174:	30 81       	ld	r19, Z
    3176:	85 e2       	ldi	r24, 0x25	; 37
    3178:	90 e0       	ldi	r25, 0x00	; 0

0000317a <.Loc.662>:
    317a:	20 e4       	ldi	r18, 0x40	; 64
    317c:	23 27       	eor	r18, r19
    317e:	dc 01       	movw	r26, r24
    3180:	2c 93       	st	X, r18

00003182 <.Loc.663>:
                    if(StepCounterY <= 1)
    3182:	80 91 1c 02 	lds	r24, 0x021C	; 0x80021c <StepCounterY>
    3186:	90 91 1d 02 	lds	r25, 0x021D	; 0x80021d <StepCounterY+0x1>

0000318a <.Loc.664>:
    318a:	81 30       	cpi	r24, 0x01	; 1
    318c:	91 05       	cpc	r25, r1
    318e:	09 f0       	breq	.+2      	; 0x3192 <.Loc.665>

00003190 <L0^A>:
    3190:	24 f4       	brge	.+8      	; 0x319a <.L223>

00003192 <.Loc.665>:
                    {
                        h_bridge_set_percentage(12); //Deze zijn [pos]atief sinds dat van de eindswitch af gaat.
    3192:	8c e0       	ldi	r24, 0x0C	; 12
    3194:	0e 94 bd 01 	call	0x37a	; 0x37a <h_bridge_set_percentage>
    3198:	03 c0       	rjmp	.+6      	; 0x31a0 <.L224>

0000319a <.L223>:
                    }
                    else
                    {
                         h_bridge_set_percentage(25);
    319a:	89 e1       	ldi	r24, 0x19	; 25
    319c:	0e 94 bd 01 	call	0x37a	; 0x37a <h_bridge_set_percentage>

000031a0 <.L224>:
                    }


                    if ((PINC & (1 << Ydetect)) == 0)
    31a0:	86 e2       	ldi	r24, 0x26	; 38
    31a2:	90 e0       	ldi	r25, 0x00	; 0
    31a4:	fc 01       	movw	r30, r24
    31a6:	80 81       	ld	r24, Z

000031a8 <.Loc.668>:
    31a8:	88 2f       	mov	r24, r24
    31aa:	90 e0       	ldi	r25, 0x00	; 0
    31ac:	80 72       	andi	r24, 0x20	; 32
    31ae:	99 27       	eor	r25, r25

000031b0 <.Loc.669>:
    31b0:	00 97       	sbiw	r24, 0x00	; 0
    31b2:	09 f0       	breq	.+2      	; 0x31b6 <.Loc.670>

000031b4 <L0^A>:
    31b4:	25 c1       	rjmp	.+586    	; 0x3400 <.L225>

000031b6 <.Loc.670>:
                        {
                            if (knop1_ingedrukt == 0) // knop is niet al eerder ingedrukt
    31b6:	80 91 14 02 	lds	r24, 0x0214	; 0x800214 <knop1_ingedrukt>
    31ba:	90 91 15 02 	lds	r25, 0x0215	; 0x800215 <knop1_ingedrukt+0x1>

000031be <.Loc.671>:
    31be:	00 97       	sbiw	r24, 0x00	; 0
    31c0:	09 f0       	breq	.+2      	; 0x31c4 <L0^A+0x2>

000031c2 <L0^A>:
    31c2:	37 c2       	rjmp	.+1134   	; 0x3632 <.L226>
    31c4:	9e 01       	movw	r18, r28
    31c6:	23 50       	subi	r18, 0x03	; 3
    31c8:	3f 4f       	sbci	r19, 0xFF	; 255
    31ca:	80 e0       	ldi	r24, 0x00	; 0
    31cc:	90 e0       	ldi	r25, 0x00	; 0
    31ce:	a0 ef       	ldi	r26, 0xF0	; 240
    31d0:	b1 e4       	ldi	r27, 0x41	; 65
    31d2:	f9 01       	movw	r30, r18
    31d4:	80 83       	st	Z, r24
    31d6:	91 83       	std	Z+1, r25	; 0x01
    31d8:	a2 83       	std	Z+2, r26	; 0x02
    31da:	b3 83       	std	Z+3, r27	; 0x03

000031dc <.LBB254>:
	__tmp = ((F_CPU) / 4e3) * __ms;
    31dc:	8e 01       	movw	r16, r28
    31de:	0f 5f       	subi	r16, 0xFF	; 255
    31e0:	1e 4f       	sbci	r17, 0xFE	; 254
    31e2:	ce 01       	movw	r24, r28
    31e4:	83 50       	subi	r24, 0x03	; 3
    31e6:	9f 4f       	sbci	r25, 0xFF	; 255
    31e8:	20 e0       	ldi	r18, 0x00	; 0
    31ea:	30 e0       	ldi	r19, 0x00	; 0
    31ec:	4a e7       	ldi	r20, 0x7A	; 122
    31ee:	55 e4       	ldi	r21, 0x45	; 69
    31f0:	dc 01       	movw	r26, r24
    31f2:	6d 91       	ld	r22, X+
    31f4:	7d 91       	ld	r23, X+
    31f6:	8d 91       	ld	r24, X+
    31f8:	9c 91       	ld	r25, X
    31fa:	0e 94 57 20 	call	0x40ae	; 0x40ae <__mulsf3>
    31fe:	c1 54       	subi	r28, 0x41	; 65
    3200:	dd 4f       	sbci	r29, 0xFD	; 253
    3202:	68 83       	st	Y, r22
    3204:	79 83       	std	Y+1, r23	; 0x01
    3206:	8a 83       	std	Y+2, r24	; 0x02
    3208:	9b 83       	std	Y+3, r25	; 0x03
    320a:	cf 5b       	subi	r28, 0xBF	; 191
    320c:	d2 40       	sbci	r29, 0x02	; 2
    320e:	c1 54       	subi	r28, 0x41	; 65
    3210:	dd 4f       	sbci	r29, 0xFD	; 253
    3212:	28 81       	ld	r18, Y
    3214:	39 81       	ldd	r19, Y+1	; 0x01
    3216:	4a 81       	ldd	r20, Y+2	; 0x02
    3218:	5b 81       	ldd	r21, Y+3	; 0x03
    321a:	cf 5b       	subi	r28, 0xBF	; 191
    321c:	d2 40       	sbci	r29, 0x02	; 2
    321e:	d8 01       	movw	r26, r16
    3220:	2d 93       	st	X+, r18
    3222:	3d 93       	st	X+, r19
    3224:	4d 93       	st	X+, r20
    3226:	5c 93       	st	X, r21
    3228:	13 97       	sbiw	r26, 0x03	; 3

0000322a <.Loc.673>:
	if (__tmp < 1.0)
    322a:	ce 01       	movw	r24, r28
    322c:	8f 5f       	subi	r24, 0xFF	; 255
    322e:	9e 4f       	sbci	r25, 0xFE	; 254
    3230:	20 e0       	ldi	r18, 0x00	; 0
    3232:	30 e0       	ldi	r19, 0x00	; 0
    3234:	40 e8       	ldi	r20, 0x80	; 128
    3236:	5f e3       	ldi	r21, 0x3F	; 63
    3238:	fc 01       	movw	r30, r24
    323a:	60 81       	ld	r22, Z
    323c:	71 81       	ldd	r23, Z+1	; 0x01
    323e:	82 81       	ldd	r24, Z+2	; 0x02
    3240:	93 81       	ldd	r25, Z+3	; 0x03
    3242:	0e 94 d1 1f 	call	0x3fa2	; 0x3fa2 <__cmpsf2>
    3246:	88 23       	and	r24, r24
    3248:	54 f4       	brge	.+20     	; 0x325e <.L357>

0000324a <.Loc.674>:
		__ticks = 1;
    324a:	ce 01       	movw	r24, r28
    324c:	8b 5f       	subi	r24, 0xFB	; 251
    324e:	9e 4f       	sbci	r25, 0xFE	; 254
    3250:	21 e0       	ldi	r18, 0x01	; 1
    3252:	30 e0       	ldi	r19, 0x00	; 0
    3254:	dc 01       	movw	r26, r24
    3256:	11 96       	adiw	r26, 0x01	; 1
    3258:	3c 93       	st	X, r19
    325a:	2e 93       	st	-X, r18
    325c:	a5 c0       	rjmp	.+330    	; 0x33a8 <.L229>

0000325e <.L357>:
	else if (__tmp > 65535)
    325e:	ce 01       	movw	r24, r28
    3260:	8f 5f       	subi	r24, 0xFF	; 255
    3262:	9e 4f       	sbci	r25, 0xFE	; 254
    3264:	20 e0       	ldi	r18, 0x00	; 0
    3266:	3f ef       	ldi	r19, 0xFF	; 255
    3268:	4f e7       	ldi	r20, 0x7F	; 127
    326a:	57 e4       	ldi	r21, 0x47	; 71
    326c:	fc 01       	movw	r30, r24
    326e:	60 81       	ld	r22, Z
    3270:	71 81       	ldd	r23, Z+1	; 0x01
    3272:	82 81       	ldd	r24, Z+2	; 0x02
    3274:	93 81       	ldd	r25, Z+3	; 0x03
    3276:	0e 94 52 20 	call	0x40a4	; 0x40a4 <__gesf2>
    327a:	88 23       	and	r24, r24
    327c:	09 f0       	breq	.+2      	; 0x3280 <L0^A>

0000327e <L0^A>:
    327e:	0c f4       	brge	.+2      	; 0x3282 <.Loc.676>

00003280 <L0^A>:
    3280:	75 c0       	rjmp	.+234    	; 0x336c <.L358>

00003282 <.Loc.676>:
		__ticks = (uint16_t) (__ms * 10.0);
    3282:	ce 01       	movw	r24, r28
    3284:	83 50       	subi	r24, 0x03	; 3
    3286:	9f 4f       	sbci	r25, 0xFF	; 255
    3288:	20 e0       	ldi	r18, 0x00	; 0
    328a:	30 e0       	ldi	r19, 0x00	; 0
    328c:	40 e2       	ldi	r20, 0x20	; 32
    328e:	51 e4       	ldi	r21, 0x41	; 65
    3290:	dc 01       	movw	r26, r24
    3292:	6d 91       	ld	r22, X+
    3294:	7d 91       	ld	r23, X+
    3296:	8d 91       	ld	r24, X+
    3298:	9c 91       	ld	r25, X
    329a:	0e 94 57 20 	call	0x40ae	; 0x40ae <__mulsf3>
    329e:	cd 53       	subi	r28, 0x3D	; 61
    32a0:	dd 4f       	sbci	r29, 0xFD	; 253
    32a2:	68 83       	st	Y, r22
    32a4:	79 83       	std	Y+1, r23	; 0x01
    32a6:	8a 83       	std	Y+2, r24	; 0x02
    32a8:	9b 83       	std	Y+3, r25	; 0x03
    32aa:	c3 5c       	subi	r28, 0xC3	; 195
    32ac:	d2 40       	sbci	r29, 0x02	; 2
    32ae:	cd 53       	subi	r28, 0x3D	; 61
    32b0:	dd 4f       	sbci	r29, 0xFD	; 253
    32b2:	28 81       	ld	r18, Y
    32b4:	39 81       	ldd	r19, Y+1	; 0x01
    32b6:	4a 81       	ldd	r20, Y+2	; 0x02
    32b8:	5b 81       	ldd	r21, Y+3	; 0x03
    32ba:	c3 5c       	subi	r28, 0xC3	; 195
    32bc:	d2 40       	sbci	r29, 0x02	; 2
    32be:	c5 57       	subi	r28, 0x75	; 117
    32c0:	de 4f       	sbci	r29, 0xFE	; 254
    32c2:	28 83       	st	Y, r18
    32c4:	39 83       	std	Y+1, r19	; 0x01
    32c6:	4a 83       	std	Y+2, r20	; 0x02
    32c8:	5b 83       	std	Y+3, r21	; 0x03
    32ca:	cb 58       	subi	r28, 0x8B	; 139
    32cc:	d1 40       	sbci	r29, 0x01	; 1

000032ce <.Loc.677>:
    32ce:	8e 01       	movw	r16, r28
    32d0:	0b 5f       	subi	r16, 0xFB	; 251
    32d2:	1e 4f       	sbci	r17, 0xFE	; 254
    32d4:	c5 57       	subi	r28, 0x75	; 117
    32d6:	de 4f       	sbci	r29, 0xFE	; 254
    32d8:	68 81       	ld	r22, Y
    32da:	79 81       	ldd	r23, Y+1	; 0x01
    32dc:	8a 81       	ldd	r24, Y+2	; 0x02
    32de:	9b 81       	ldd	r25, Y+3	; 0x03
    32e0:	cb 58       	subi	r28, 0x8B	; 139
    32e2:	d1 40       	sbci	r29, 0x01	; 1
    32e4:	0e 94 d6 1f 	call	0x3fac	; 0x3fac <__fixunssfsi>
    32e8:	c9 53       	subi	r28, 0x39	; 57
    32ea:	dd 4f       	sbci	r29, 0xFD	; 253
    32ec:	68 83       	st	Y, r22
    32ee:	79 83       	std	Y+1, r23	; 0x01
    32f0:	8a 83       	std	Y+2, r24	; 0x02
    32f2:	9b 83       	std	Y+3, r25	; 0x03
    32f4:	c7 5c       	subi	r28, 0xC7	; 199
    32f6:	d2 40       	sbci	r29, 0x02	; 2
    32f8:	c9 53       	subi	r28, 0x39	; 57
    32fa:	dd 4f       	sbci	r29, 0xFD	; 253
    32fc:	e8 81       	ld	r30, Y
    32fe:	f9 81       	ldd	r31, Y+1	; 0x01
    3300:	c7 5c       	subi	r28, 0xC7	; 199
    3302:	d2 40       	sbci	r29, 0x02	; 2
    3304:	d8 01       	movw	r26, r16
    3306:	11 96       	adiw	r26, 0x01	; 1
    3308:	fc 93       	st	X, r31
    330a:	ee 93       	st	-X, r30

0000330c <.Loc.678>:
		while(__ticks)
    330c:	26 c0       	rjmp	.+76     	; 0x335a <.L232>

0000330e <.L233>:
    330e:	ce 01       	movw	r24, r28
    3310:	89 5f       	subi	r24, 0xF9	; 249
    3312:	9e 4f       	sbci	r25, 0xFE	; 254
    3314:	20 e9       	ldi	r18, 0x90	; 144
    3316:	31 e0       	ldi	r19, 0x01	; 1
    3318:	dc 01       	movw	r26, r24
    331a:	2d 93       	st	X+, r18
    331c:	3c 93       	st	X, r19

0000331e <.LBB256>:
    331e:	ce 01       	movw	r24, r28
    3320:	89 5f       	subi	r24, 0xF9	; 249
    3322:	9e 4f       	sbci	r25, 0xFE	; 254
    3324:	fc 01       	movw	r30, r24
    3326:	80 81       	ld	r24, Z
    3328:	91 81       	ldd	r25, Z+1	; 0x01

0000332a <.L1^B38>:
    332a:	01 97       	sbiw	r24, 0x01	; 1
    332c:	f1 f7       	brne	.-4      	; 0x332a <.L1^B38>
    332e:	9e 01       	movw	r18, r28
    3330:	29 5f       	subi	r18, 0xF9	; 249
    3332:	3e 4f       	sbci	r19, 0xFE	; 254
    3334:	d9 01       	movw	r26, r18
    3336:	8d 93       	st	X+, r24
    3338:	9c 93       	st	X, r25

0000333a <.Loc.680>:
	...

0000333c <.LBE256>:
			__ticks --;
    333c:	ce 01       	movw	r24, r28
    333e:	8b 5f       	subi	r24, 0xFB	; 251
    3340:	9e 4f       	sbci	r25, 0xFE	; 254
    3342:	9e 01       	movw	r18, r28
    3344:	2b 5f       	subi	r18, 0xFB	; 251
    3346:	3e 4f       	sbci	r19, 0xFE	; 254
    3348:	f9 01       	movw	r30, r18
    334a:	20 81       	ld	r18, Z
    334c:	31 81       	ldd	r19, Z+1	; 0x01
    334e:	21 50       	subi	r18, 0x01	; 1
    3350:	31 09       	sbc	r19, r1
    3352:	dc 01       	movw	r26, r24
    3354:	11 96       	adiw	r26, 0x01	; 1
    3356:	3c 93       	st	X, r19
    3358:	2e 93       	st	-X, r18

0000335a <.L232>:
		while(__ticks)
    335a:	ce 01       	movw	r24, r28
    335c:	8b 5f       	subi	r24, 0xFB	; 251
    335e:	9e 4f       	sbci	r25, 0xFE	; 254
    3360:	fc 01       	movw	r30, r24
    3362:	80 81       	ld	r24, Z
    3364:	91 81       	ldd	r25, Z+1	; 0x01
    3366:	00 97       	sbiw	r24, 0x00	; 0
    3368:	91 f6       	brne	.-92     	; 0x330e <.L233>

0000336a <.Loc.683>:
		return;
    336a:	3a c0       	rjmp	.+116    	; 0x33e0 <.L234>

0000336c <.L358>:
		__ticks = (uint16_t)__tmp;
    336c:	8e 01       	movw	r16, r28
    336e:	0b 5f       	subi	r16, 0xFB	; 251
    3370:	1e 4f       	sbci	r17, 0xFE	; 254
    3372:	ce 01       	movw	r24, r28
    3374:	8f 5f       	subi	r24, 0xFF	; 255
    3376:	9e 4f       	sbci	r25, 0xFE	; 254
    3378:	dc 01       	movw	r26, r24
    337a:	6d 91       	ld	r22, X+
    337c:	7d 91       	ld	r23, X+
    337e:	8d 91       	ld	r24, X+
    3380:	9c 91       	ld	r25, X
    3382:	0e 94 d6 1f 	call	0x3fac	; 0x3fac <__fixunssfsi>
    3386:	c5 53       	subi	r28, 0x35	; 53
    3388:	dd 4f       	sbci	r29, 0xFD	; 253
    338a:	68 83       	st	Y, r22
    338c:	79 83       	std	Y+1, r23	; 0x01
    338e:	8a 83       	std	Y+2, r24	; 0x02
    3390:	9b 83       	std	Y+3, r25	; 0x03
    3392:	cb 5c       	subi	r28, 0xCB	; 203
    3394:	d2 40       	sbci	r29, 0x02	; 2
    3396:	c5 53       	subi	r28, 0x35	; 53
    3398:	dd 4f       	sbci	r29, 0xFD	; 253
    339a:	28 81       	ld	r18, Y
    339c:	39 81       	ldd	r19, Y+1	; 0x01
    339e:	cb 5c       	subi	r28, 0xCB	; 203
    33a0:	d2 40       	sbci	r29, 0x02	; 2
    33a2:	f8 01       	movw	r30, r16
    33a4:	31 83       	std	Z+1, r19	; 0x01
    33a6:	20 83       	st	Z, r18

000033a8 <.L229>:
    33a8:	ce 01       	movw	r24, r28
    33aa:	87 5f       	subi	r24, 0xF7	; 247
    33ac:	9e 4f       	sbci	r25, 0xFE	; 254
    33ae:	9e 01       	movw	r18, r28
    33b0:	2b 5f       	subi	r18, 0xFB	; 251
    33b2:	3e 4f       	sbci	r19, 0xFE	; 254
    33b4:	d9 01       	movw	r26, r18
    33b6:	2d 91       	ld	r18, X+
    33b8:	3c 91       	ld	r19, X
    33ba:	fc 01       	movw	r30, r24
    33bc:	31 83       	std	Z+1, r19	; 0x01
    33be:	20 83       	st	Z, r18

000033c0 <.LBB258>:
    33c0:	ce 01       	movw	r24, r28
    33c2:	87 5f       	subi	r24, 0xF7	; 247
    33c4:	9e 4f       	sbci	r25, 0xFE	; 254
    33c6:	dc 01       	movw	r26, r24
    33c8:	8d 91       	ld	r24, X+
    33ca:	9c 91       	ld	r25, X
    33cc:	11 97       	sbiw	r26, 0x01	; 1

000033ce <.L1^B39>:
    33ce:	01 97       	sbiw	r24, 0x01	; 1
    33d0:	f1 f7       	brne	.-4      	; 0x33ce <.L1^B39>
    33d2:	9e 01       	movw	r18, r28
    33d4:	27 5f       	subi	r18, 0xF7	; 247
    33d6:	3e 4f       	sbci	r19, 0xFE	; 254
    33d8:	f9 01       	movw	r30, r18
    33da:	91 83       	std	Z+1, r25	; 0x01
    33dc:	80 83       	st	Z, r24

000033de <.Loc.686>:
	...

000033e0 <.L234>:
                            {
                                _delay_ms(30);//Fine-tune this also? do these switches need a different debouncing time or???
                                  StepCounterY -=  1;
    33e0:	80 91 1c 02 	lds	r24, 0x021C	; 0x80021c <StepCounterY>
    33e4:	90 91 1d 02 	lds	r25, 0x021D	; 0x80021d <StepCounterY+0x1>
    33e8:	01 97       	sbiw	r24, 0x01	; 1
    33ea:	90 93 1d 02 	sts	0x021D, r25	; 0x80021d <StepCounterY+0x1>
    33ee:	80 93 1c 02 	sts	0x021C, r24	; 0x80021c <StepCounterY>

000033f2 <.Loc.688>:
                                knop1_ingedrukt = 1;
    33f2:	81 e0       	ldi	r24, 0x01	; 1
    33f4:	90 e0       	ldi	r25, 0x00	; 0
    33f6:	90 93 15 02 	sts	0x0215, r25	; 0x800215 <knop1_ingedrukt+0x1>
    33fa:	80 93 14 02 	sts	0x0214, r24	; 0x800214 <knop1_ingedrukt>
    33fe:	19 c1       	rjmp	.+562    	; 0x3632 <.L226>

00003400 <.L225>:
                            }
                        }
                    else
                        {
                        if (knop1_ingedrukt != 0) // knop is zojuist losgelaten
    3400:	80 91 14 02 	lds	r24, 0x0214	; 0x800214 <knop1_ingedrukt>
    3404:	90 91 15 02 	lds	r25, 0x0215	; 0x800215 <knop1_ingedrukt+0x1>

00003408 <.Loc.690>:
    3408:	00 97       	sbiw	r24, 0x00	; 0
    340a:	09 f4       	brne	.+2      	; 0x340e <L0^A+0x2>

0000340c <L0^A>:
    340c:	12 c1       	rjmp	.+548    	; 0x3632 <.L226>
    340e:	9e 01       	movw	r18, r28
    3410:	25 5f       	subi	r18, 0xF5	; 245
    3412:	3e 4f       	sbci	r19, 0xFE	; 254
    3414:	80 e0       	ldi	r24, 0x00	; 0
    3416:	90 e0       	ldi	r25, 0x00	; 0
    3418:	a0 ef       	ldi	r26, 0xF0	; 240
    341a:	b1 e4       	ldi	r27, 0x41	; 65
    341c:	f9 01       	movw	r30, r18
    341e:	80 83       	st	Z, r24
    3420:	91 83       	std	Z+1, r25	; 0x01
    3422:	a2 83       	std	Z+2, r26	; 0x02
    3424:	b3 83       	std	Z+3, r27	; 0x03

00003426 <.LBB260>:
	__tmp = ((F_CPU) / 4e3) * __ms;
    3426:	8e 01       	movw	r16, r28
    3428:	01 5f       	subi	r16, 0xF1	; 241
    342a:	1e 4f       	sbci	r17, 0xFE	; 254
    342c:	ce 01       	movw	r24, r28
    342e:	85 5f       	subi	r24, 0xF5	; 245
    3430:	9e 4f       	sbci	r25, 0xFE	; 254
    3432:	20 e0       	ldi	r18, 0x00	; 0
    3434:	30 e0       	ldi	r19, 0x00	; 0
    3436:	4a e7       	ldi	r20, 0x7A	; 122
    3438:	55 e4       	ldi	r21, 0x45	; 69
    343a:	dc 01       	movw	r26, r24
    343c:	6d 91       	ld	r22, X+
    343e:	7d 91       	ld	r23, X+
    3440:	8d 91       	ld	r24, X+
    3442:	9c 91       	ld	r25, X
    3444:	0e 94 57 20 	call	0x40ae	; 0x40ae <__mulsf3>
    3448:	c1 53       	subi	r28, 0x31	; 49
    344a:	dd 4f       	sbci	r29, 0xFD	; 253
    344c:	68 83       	st	Y, r22
    344e:	79 83       	std	Y+1, r23	; 0x01
    3450:	8a 83       	std	Y+2, r24	; 0x02
    3452:	9b 83       	std	Y+3, r25	; 0x03
    3454:	cf 5c       	subi	r28, 0xCF	; 207
    3456:	d2 40       	sbci	r29, 0x02	; 2
    3458:	c1 53       	subi	r28, 0x31	; 49
    345a:	dd 4f       	sbci	r29, 0xFD	; 253
    345c:	28 81       	ld	r18, Y
    345e:	39 81       	ldd	r19, Y+1	; 0x01
    3460:	4a 81       	ldd	r20, Y+2	; 0x02
    3462:	5b 81       	ldd	r21, Y+3	; 0x03
    3464:	cf 5c       	subi	r28, 0xCF	; 207
    3466:	d2 40       	sbci	r29, 0x02	; 2
    3468:	d8 01       	movw	r26, r16
    346a:	2d 93       	st	X+, r18
    346c:	3d 93       	st	X+, r19
    346e:	4d 93       	st	X+, r20
    3470:	5c 93       	st	X, r21
    3472:	13 97       	sbiw	r26, 0x03	; 3

00003474 <.Loc.692>:
	if (__tmp < 1.0)
    3474:	ce 01       	movw	r24, r28
    3476:	81 5f       	subi	r24, 0xF1	; 241
    3478:	9e 4f       	sbci	r25, 0xFE	; 254
    347a:	20 e0       	ldi	r18, 0x00	; 0
    347c:	30 e0       	ldi	r19, 0x00	; 0
    347e:	40 e8       	ldi	r20, 0x80	; 128
    3480:	5f e3       	ldi	r21, 0x3F	; 63
    3482:	fc 01       	movw	r30, r24
    3484:	60 81       	ld	r22, Z
    3486:	71 81       	ldd	r23, Z+1	; 0x01
    3488:	82 81       	ldd	r24, Z+2	; 0x02
    348a:	93 81       	ldd	r25, Z+3	; 0x03
    348c:	0e 94 d1 1f 	call	0x3fa2	; 0x3fa2 <__cmpsf2>
    3490:	88 23       	and	r24, r24
    3492:	54 f4       	brge	.+20     	; 0x34a8 <.L359>

00003494 <.Loc.693>:
		__ticks = 1;
    3494:	ce 01       	movw	r24, r28
    3496:	8d 5e       	subi	r24, 0xED	; 237
    3498:	9e 4f       	sbci	r25, 0xFE	; 254
    349a:	21 e0       	ldi	r18, 0x01	; 1
    349c:	30 e0       	ldi	r19, 0x00	; 0
    349e:	dc 01       	movw	r26, r24
    34a0:	11 96       	adiw	r26, 0x01	; 1
    34a2:	3c 93       	st	X, r19
    34a4:	2e 93       	st	-X, r18
    34a6:	a5 c0       	rjmp	.+330    	; 0x35f2 <.L237>

000034a8 <.L359>:
	else if (__tmp > 65535)
    34a8:	ce 01       	movw	r24, r28
    34aa:	81 5f       	subi	r24, 0xF1	; 241
    34ac:	9e 4f       	sbci	r25, 0xFE	; 254
    34ae:	20 e0       	ldi	r18, 0x00	; 0
    34b0:	3f ef       	ldi	r19, 0xFF	; 255
    34b2:	4f e7       	ldi	r20, 0x7F	; 127
    34b4:	57 e4       	ldi	r21, 0x47	; 71
    34b6:	fc 01       	movw	r30, r24
    34b8:	60 81       	ld	r22, Z
    34ba:	71 81       	ldd	r23, Z+1	; 0x01
    34bc:	82 81       	ldd	r24, Z+2	; 0x02
    34be:	93 81       	ldd	r25, Z+3	; 0x03
    34c0:	0e 94 52 20 	call	0x40a4	; 0x40a4 <__gesf2>
    34c4:	88 23       	and	r24, r24
    34c6:	09 f0       	breq	.+2      	; 0x34ca <L0^A>

000034c8 <L0^A>:
    34c8:	0c f4       	brge	.+2      	; 0x34cc <.Loc.695>

000034ca <L0^A>:
    34ca:	75 c0       	rjmp	.+234    	; 0x35b6 <.L360>

000034cc <.Loc.695>:
		__ticks = (uint16_t) (__ms * 10.0);
    34cc:	ce 01       	movw	r24, r28
    34ce:	85 5f       	subi	r24, 0xF5	; 245
    34d0:	9e 4f       	sbci	r25, 0xFE	; 254
    34d2:	20 e0       	ldi	r18, 0x00	; 0
    34d4:	30 e0       	ldi	r19, 0x00	; 0
    34d6:	40 e2       	ldi	r20, 0x20	; 32
    34d8:	51 e4       	ldi	r21, 0x41	; 65
    34da:	dc 01       	movw	r26, r24
    34dc:	6d 91       	ld	r22, X+
    34de:	7d 91       	ld	r23, X+
    34e0:	8d 91       	ld	r24, X+
    34e2:	9c 91       	ld	r25, X
    34e4:	0e 94 57 20 	call	0x40ae	; 0x40ae <__mulsf3>
    34e8:	cd 52       	subi	r28, 0x2D	; 45
    34ea:	dd 4f       	sbci	r29, 0xFD	; 253
    34ec:	68 83       	st	Y, r22
    34ee:	79 83       	std	Y+1, r23	; 0x01
    34f0:	8a 83       	std	Y+2, r24	; 0x02
    34f2:	9b 83       	std	Y+3, r25	; 0x03
    34f4:	c3 5d       	subi	r28, 0xD3	; 211
    34f6:	d2 40       	sbci	r29, 0x02	; 2
    34f8:	cd 52       	subi	r28, 0x2D	; 45
    34fa:	dd 4f       	sbci	r29, 0xFD	; 253
    34fc:	28 81       	ld	r18, Y
    34fe:	39 81       	ldd	r19, Y+1	; 0x01
    3500:	4a 81       	ldd	r20, Y+2	; 0x02
    3502:	5b 81       	ldd	r21, Y+3	; 0x03
    3504:	c3 5d       	subi	r28, 0xD3	; 211
    3506:	d2 40       	sbci	r29, 0x02	; 2
    3508:	c1 57       	subi	r28, 0x71	; 113
    350a:	de 4f       	sbci	r29, 0xFE	; 254
    350c:	28 83       	st	Y, r18
    350e:	39 83       	std	Y+1, r19	; 0x01
    3510:	4a 83       	std	Y+2, r20	; 0x02
    3512:	5b 83       	std	Y+3, r21	; 0x03
    3514:	cf 58       	subi	r28, 0x8F	; 143
    3516:	d1 40       	sbci	r29, 0x01	; 1

00003518 <.Loc.696>:
    3518:	8e 01       	movw	r16, r28
    351a:	0d 5e       	subi	r16, 0xED	; 237
    351c:	1e 4f       	sbci	r17, 0xFE	; 254
    351e:	c1 57       	subi	r28, 0x71	; 113
    3520:	de 4f       	sbci	r29, 0xFE	; 254
    3522:	68 81       	ld	r22, Y
    3524:	79 81       	ldd	r23, Y+1	; 0x01
    3526:	8a 81       	ldd	r24, Y+2	; 0x02
    3528:	9b 81       	ldd	r25, Y+3	; 0x03
    352a:	cf 58       	subi	r28, 0x8F	; 143
    352c:	d1 40       	sbci	r29, 0x01	; 1
    352e:	0e 94 d6 1f 	call	0x3fac	; 0x3fac <__fixunssfsi>
    3532:	c9 52       	subi	r28, 0x29	; 41
    3534:	dd 4f       	sbci	r29, 0xFD	; 253
    3536:	68 83       	st	Y, r22
    3538:	79 83       	std	Y+1, r23	; 0x01
    353a:	8a 83       	std	Y+2, r24	; 0x02
    353c:	9b 83       	std	Y+3, r25	; 0x03
    353e:	c7 5d       	subi	r28, 0xD7	; 215
    3540:	d2 40       	sbci	r29, 0x02	; 2
    3542:	c9 52       	subi	r28, 0x29	; 41
    3544:	dd 4f       	sbci	r29, 0xFD	; 253
    3546:	e8 81       	ld	r30, Y
    3548:	f9 81       	ldd	r31, Y+1	; 0x01
    354a:	c7 5d       	subi	r28, 0xD7	; 215
    354c:	d2 40       	sbci	r29, 0x02	; 2
    354e:	d8 01       	movw	r26, r16
    3550:	11 96       	adiw	r26, 0x01	; 1
    3552:	fc 93       	st	X, r31
    3554:	ee 93       	st	-X, r30

00003556 <.Loc.697>:
		while(__ticks)
    3556:	26 c0       	rjmp	.+76     	; 0x35a4 <.L240>

00003558 <.L241>:
    3558:	ce 01       	movw	r24, r28
    355a:	8b 5e       	subi	r24, 0xEB	; 235
    355c:	9e 4f       	sbci	r25, 0xFE	; 254
    355e:	20 e9       	ldi	r18, 0x90	; 144
    3560:	31 e0       	ldi	r19, 0x01	; 1
    3562:	dc 01       	movw	r26, r24
    3564:	2d 93       	st	X+, r18
    3566:	3c 93       	st	X, r19

00003568 <.LBB262>:
    3568:	ce 01       	movw	r24, r28
    356a:	8b 5e       	subi	r24, 0xEB	; 235
    356c:	9e 4f       	sbci	r25, 0xFE	; 254
    356e:	fc 01       	movw	r30, r24
    3570:	80 81       	ld	r24, Z
    3572:	91 81       	ldd	r25, Z+1	; 0x01

00003574 <.L1^B40>:
    3574:	01 97       	sbiw	r24, 0x01	; 1
    3576:	f1 f7       	brne	.-4      	; 0x3574 <.L1^B40>
    3578:	9e 01       	movw	r18, r28
    357a:	2b 5e       	subi	r18, 0xEB	; 235
    357c:	3e 4f       	sbci	r19, 0xFE	; 254
    357e:	d9 01       	movw	r26, r18
    3580:	8d 93       	st	X+, r24
    3582:	9c 93       	st	X, r25

00003584 <.Loc.699>:
	...

00003586 <.LBE262>:
			__ticks --;
    3586:	ce 01       	movw	r24, r28
    3588:	8d 5e       	subi	r24, 0xED	; 237
    358a:	9e 4f       	sbci	r25, 0xFE	; 254
    358c:	9e 01       	movw	r18, r28
    358e:	2d 5e       	subi	r18, 0xED	; 237
    3590:	3e 4f       	sbci	r19, 0xFE	; 254
    3592:	f9 01       	movw	r30, r18
    3594:	20 81       	ld	r18, Z
    3596:	31 81       	ldd	r19, Z+1	; 0x01
    3598:	21 50       	subi	r18, 0x01	; 1
    359a:	31 09       	sbc	r19, r1
    359c:	dc 01       	movw	r26, r24
    359e:	11 96       	adiw	r26, 0x01	; 1
    35a0:	3c 93       	st	X, r19
    35a2:	2e 93       	st	-X, r18

000035a4 <.L240>:
		while(__ticks)
    35a4:	ce 01       	movw	r24, r28
    35a6:	8d 5e       	subi	r24, 0xED	; 237
    35a8:	9e 4f       	sbci	r25, 0xFE	; 254
    35aa:	fc 01       	movw	r30, r24
    35ac:	80 81       	ld	r24, Z
    35ae:	91 81       	ldd	r25, Z+1	; 0x01
    35b0:	00 97       	sbiw	r24, 0x00	; 0
    35b2:	91 f6       	brne	.-92     	; 0x3558 <.L241>

000035b4 <.Loc.702>:
		return;
    35b4:	3a c0       	rjmp	.+116    	; 0x362a <.L242>

000035b6 <.L360>:
		__ticks = (uint16_t)__tmp;
    35b6:	8e 01       	movw	r16, r28
    35b8:	0d 5e       	subi	r16, 0xED	; 237
    35ba:	1e 4f       	sbci	r17, 0xFE	; 254
    35bc:	ce 01       	movw	r24, r28
    35be:	81 5f       	subi	r24, 0xF1	; 241
    35c0:	9e 4f       	sbci	r25, 0xFE	; 254
    35c2:	dc 01       	movw	r26, r24
    35c4:	6d 91       	ld	r22, X+
    35c6:	7d 91       	ld	r23, X+
    35c8:	8d 91       	ld	r24, X+
    35ca:	9c 91       	ld	r25, X
    35cc:	0e 94 d6 1f 	call	0x3fac	; 0x3fac <__fixunssfsi>
    35d0:	c5 52       	subi	r28, 0x25	; 37
    35d2:	dd 4f       	sbci	r29, 0xFD	; 253
    35d4:	68 83       	st	Y, r22
    35d6:	79 83       	std	Y+1, r23	; 0x01
    35d8:	8a 83       	std	Y+2, r24	; 0x02
    35da:	9b 83       	std	Y+3, r25	; 0x03
    35dc:	cb 5d       	subi	r28, 0xDB	; 219
    35de:	d2 40       	sbci	r29, 0x02	; 2
    35e0:	c5 52       	subi	r28, 0x25	; 37
    35e2:	dd 4f       	sbci	r29, 0xFD	; 253
    35e4:	28 81       	ld	r18, Y
    35e6:	39 81       	ldd	r19, Y+1	; 0x01
    35e8:	cb 5d       	subi	r28, 0xDB	; 219
    35ea:	d2 40       	sbci	r29, 0x02	; 2
    35ec:	f8 01       	movw	r30, r16
    35ee:	31 83       	std	Z+1, r19	; 0x01
    35f0:	20 83       	st	Z, r18

000035f2 <.L237>:
    35f2:	ce 01       	movw	r24, r28
    35f4:	89 5e       	subi	r24, 0xE9	; 233
    35f6:	9e 4f       	sbci	r25, 0xFE	; 254
    35f8:	9e 01       	movw	r18, r28
    35fa:	2d 5e       	subi	r18, 0xED	; 237
    35fc:	3e 4f       	sbci	r19, 0xFE	; 254
    35fe:	d9 01       	movw	r26, r18
    3600:	2d 91       	ld	r18, X+
    3602:	3c 91       	ld	r19, X
    3604:	fc 01       	movw	r30, r24
    3606:	31 83       	std	Z+1, r19	; 0x01
    3608:	20 83       	st	Z, r18

0000360a <.LBB264>:
    360a:	ce 01       	movw	r24, r28
    360c:	89 5e       	subi	r24, 0xE9	; 233
    360e:	9e 4f       	sbci	r25, 0xFE	; 254
    3610:	dc 01       	movw	r26, r24
    3612:	8d 91       	ld	r24, X+
    3614:	9c 91       	ld	r25, X
    3616:	11 97       	sbiw	r26, 0x01	; 1

00003618 <.L1^B41>:
    3618:	01 97       	sbiw	r24, 0x01	; 1
    361a:	f1 f7       	brne	.-4      	; 0x3618 <.L1^B41>
    361c:	9e 01       	movw	r18, r28
    361e:	29 5e       	subi	r18, 0xE9	; 233
    3620:	3e 4f       	sbci	r19, 0xFE	; 254
    3622:	f9 01       	movw	r30, r18
    3624:	91 83       	std	Z+1, r25	; 0x01
    3626:	80 83       	st	Z, r24

00003628 <.Loc.705>:
	...

0000362a <.L242>:
                            {
                                _delay_ms(30);
                                knop1_ingedrukt = 0;
    362a:	10 92 15 02 	sts	0x0215, r1	; 0x800215 <knop1_ingedrukt+0x1>
    362e:	10 92 14 02 	sts	0x0214, r1	; 0x800214 <knop1_ingedrukt>

00003632 <.L226>:
                            }
                        }

                    if(StepCounterY == 0)
    3632:	80 91 1c 02 	lds	r24, 0x021C	; 0x80021c <StepCounterY>
    3636:	90 91 1d 02 	lds	r25, 0x021D	; 0x80021d <StepCounterY+0x1>

0000363a <.Loc.708>:
    363a:	00 97       	sbiw	r24, 0x00	; 0
    363c:	e1 f4       	brne	.+56     	; 0x3676 <.L243>

0000363e <.Loc.709>:
                    {
                        MenuLayer = 50;
    363e:	82 e3       	ldi	r24, 0x32	; 50
    3640:	90 e0       	ldi	r25, 0x00	; 0
    3642:	90 93 01 02 	sts	0x0201, r25	; 0x800201 <MenuLayer+0x1>
    3646:	80 93 00 02 	sts	0x0200, r24	; 0x800200 <MenuLayer>

0000364a <.Loc.710>:
                        h_bridge_set_percentage(0);
    364a:	80 e0       	ldi	r24, 0x00	; 0
    364c:	0e 94 bd 01 	call	0x37a	; 0x37a <h_bridge_set_percentage>

00003650 <.Loc.711>:
                        PORTA |= (1 << RelaisX);
    3650:	82 e2       	ldi	r24, 0x22	; 34
    3652:	90 e0       	ldi	r25, 0x00	; 0
    3654:	dc 01       	movw	r26, r24
    3656:	2c 91       	ld	r18, X
    3658:	82 e2       	ldi	r24, 0x22	; 34
    365a:	90 e0       	ldi	r25, 0x00	; 0

0000365c <.Loc.712>:
    365c:	21 60       	ori	r18, 0x01	; 1
    365e:	fc 01       	movw	r30, r24
    3660:	20 83       	st	Z, r18

00003662 <.Loc.713>:
                        PORTB ^= (1 << PB6); //Debug Light Y-as
    3662:	85 e2       	ldi	r24, 0x25	; 37
    3664:	90 e0       	ldi	r25, 0x00	; 0
    3666:	dc 01       	movw	r26, r24
    3668:	3c 91       	ld	r19, X
    366a:	85 e2       	ldi	r24, 0x25	; 37
    366c:	90 e0       	ldi	r25, 0x00	; 0

0000366e <.Loc.714>:
    366e:	20 e4       	ldi	r18, 0x40	; 64
    3670:	23 27       	eor	r18, r19
    3672:	fc 01       	movw	r30, r24
    3674:	20 83       	st	Z, r18

00003676 <.L243>:

                    }
                        n=StepCounterY;// Here for display purposes. Handy Debug Tool.
    3676:	80 91 1c 02 	lds	r24, 0x021C	; 0x80021c <StepCounterY>
    367a:	90 91 1d 02 	lds	r25, 0x021D	; 0x80021d <StepCounterY+0x1>
    367e:	90 93 0f 02 	sts	0x020F, r25	; 0x80020f <n+0x1>
    3682:	80 93 0e 02 	sts	0x020E, r24	; 0x80020e <n>

00003686 <.Loc.716>:
                        Refresh();
    3686:	0e 94 2e 03 	call	0x65c	; 0x65c <Refresh>

0000368a <.Loc.717>:
                }break;
    368a:	1c c4       	rjmp	.+2104   	; 0x3ec4 <.L59>

0000368c <.L49>:


                case 50:{ //Go X
                    DisplayState = 'X';
    368c:	88 e5       	ldi	r24, 0x58	; 88
    368e:	80 93 02 02 	sts	0x0202, r24	; 0x800202 <DisplayState>

00003692 <.Loc.719>:
                    PORTA &= ~(1 << RelaisY);
    3692:	82 e2       	ldi	r24, 0x22	; 34
    3694:	90 e0       	ldi	r25, 0x00	; 0
    3696:	dc 01       	movw	r26, r24
    3698:	2c 91       	ld	r18, X

0000369a <.Loc.720>:
    369a:	82 e2       	ldi	r24, 0x22	; 34
    369c:	90 e0       	ldi	r25, 0x00	; 0

0000369e <.Loc.721>:
    369e:	2b 7f       	andi	r18, 0xFB	; 251
    36a0:	fc 01       	movw	r30, r24
    36a2:	20 83       	st	Z, r18

000036a4 <.Loc.722>:
                    PORTB ^= (1 << PB7); //Debug Light X-as
    36a4:	85 e2       	ldi	r24, 0x25	; 37
    36a6:	90 e0       	ldi	r25, 0x00	; 0
    36a8:	dc 01       	movw	r26, r24
    36aa:	3c 91       	ld	r19, X
    36ac:	85 e2       	ldi	r24, 0x25	; 37
    36ae:	90 e0       	ldi	r25, 0x00	; 0

000036b0 <.Loc.723>:
    36b0:	20 e8       	ldi	r18, 0x80	; 128
    36b2:	23 27       	eor	r18, r19
    36b4:	fc 01       	movw	r30, r24
    36b6:	20 83       	st	Z, r18

000036b8 <.Loc.724>:

                    if(StepCounterX <= 1)
    36b8:	80 91 1e 02 	lds	r24, 0x021E	; 0x80021e <StepCounterX>
    36bc:	90 91 1f 02 	lds	r25, 0x021F	; 0x80021f <StepCounterX+0x1>

000036c0 <.Loc.725>:
    36c0:	81 30       	cpi	r24, 0x01	; 1
    36c2:	91 05       	cpc	r25, r1
    36c4:	09 f0       	breq	.+2      	; 0x36c8 <.Loc.726>

000036c6 <L0^A>:
    36c6:	24 f4       	brge	.+8      	; 0x36d0 <.L244>

000036c8 <.Loc.726>:
                    {
                        h_bridge_set_percentage(30); //Hier zodat het met grootere accuraatheid bij zijn plek komt.
    36c8:	8e e1       	ldi	r24, 0x1E	; 30
    36ca:	0e 94 bd 01 	call	0x37a	; 0x37a <h_bridge_set_percentage>
    36ce:	03 c0       	rjmp	.+6      	; 0x36d6 <.L245>

000036d0 <.L244>:
                    }
                    else
                    {
                         h_bridge_set_percentage(75);
    36d0:	8b e4       	ldi	r24, 0x4B	; 75
    36d2:	0e 94 bd 01 	call	0x37a	; 0x37a <h_bridge_set_percentage>

000036d6 <.L245>:
                    }

                    if ((PINC & (1 << Xdetect)) == 0)
    36d6:	86 e2       	ldi	r24, 0x26	; 38
    36d8:	90 e0       	ldi	r25, 0x00	; 0
    36da:	dc 01       	movw	r26, r24
    36dc:	8c 91       	ld	r24, X

000036de <.Loc.729>:
    36de:	88 2f       	mov	r24, r24
    36e0:	90 e0       	ldi	r25, 0x00	; 0
    36e2:	88 70       	andi	r24, 0x08	; 8
    36e4:	99 27       	eor	r25, r25

000036e6 <.Loc.730>:
    36e6:	00 97       	sbiw	r24, 0x00	; 0
    36e8:	09 f0       	breq	.+2      	; 0x36ec <.Loc.731>

000036ea <L0^A>:
    36ea:	25 c1       	rjmp	.+586    	; 0x3936 <.L246>

000036ec <.Loc.731>:
                        {
                            if (knop1_ingedrukt == 0) // knop is niet al eerder ingedrukt
    36ec:	80 91 14 02 	lds	r24, 0x0214	; 0x800214 <knop1_ingedrukt>
    36f0:	90 91 15 02 	lds	r25, 0x0215	; 0x800215 <knop1_ingedrukt+0x1>

000036f4 <.Loc.732>:
    36f4:	00 97       	sbiw	r24, 0x00	; 0
    36f6:	09 f0       	breq	.+2      	; 0x36fa <L0^A+0x2>

000036f8 <L0^A>:
    36f8:	37 c2       	rjmp	.+1134   	; 0x3b68 <.L247>
    36fa:	9e 01       	movw	r18, r28
    36fc:	27 5e       	subi	r18, 0xE7	; 231
    36fe:	3e 4f       	sbci	r19, 0xFE	; 254
    3700:	80 e0       	ldi	r24, 0x00	; 0
    3702:	90 e0       	ldi	r25, 0x00	; 0
    3704:	a0 ef       	ldi	r26, 0xF0	; 240
    3706:	b1 e4       	ldi	r27, 0x41	; 65
    3708:	f9 01       	movw	r30, r18
    370a:	80 83       	st	Z, r24
    370c:	91 83       	std	Z+1, r25	; 0x01
    370e:	a2 83       	std	Z+2, r26	; 0x02
    3710:	b3 83       	std	Z+3, r27	; 0x03

00003712 <.LBB266>:
	__tmp = ((F_CPU) / 4e3) * __ms;
    3712:	8e 01       	movw	r16, r28
    3714:	03 5e       	subi	r16, 0xE3	; 227
    3716:	1e 4f       	sbci	r17, 0xFE	; 254
    3718:	ce 01       	movw	r24, r28
    371a:	87 5e       	subi	r24, 0xE7	; 231
    371c:	9e 4f       	sbci	r25, 0xFE	; 254
    371e:	20 e0       	ldi	r18, 0x00	; 0
    3720:	30 e0       	ldi	r19, 0x00	; 0
    3722:	4a e7       	ldi	r20, 0x7A	; 122
    3724:	55 e4       	ldi	r21, 0x45	; 69
    3726:	dc 01       	movw	r26, r24
    3728:	6d 91       	ld	r22, X+
    372a:	7d 91       	ld	r23, X+
    372c:	8d 91       	ld	r24, X+
    372e:	9c 91       	ld	r25, X
    3730:	0e 94 57 20 	call	0x40ae	; 0x40ae <__mulsf3>
    3734:	c1 52       	subi	r28, 0x21	; 33
    3736:	dd 4f       	sbci	r29, 0xFD	; 253
    3738:	68 83       	st	Y, r22
    373a:	79 83       	std	Y+1, r23	; 0x01
    373c:	8a 83       	std	Y+2, r24	; 0x02
    373e:	9b 83       	std	Y+3, r25	; 0x03
    3740:	cf 5d       	subi	r28, 0xDF	; 223
    3742:	d2 40       	sbci	r29, 0x02	; 2
    3744:	c1 52       	subi	r28, 0x21	; 33
    3746:	dd 4f       	sbci	r29, 0xFD	; 253
    3748:	28 81       	ld	r18, Y
    374a:	39 81       	ldd	r19, Y+1	; 0x01
    374c:	4a 81       	ldd	r20, Y+2	; 0x02
    374e:	5b 81       	ldd	r21, Y+3	; 0x03
    3750:	cf 5d       	subi	r28, 0xDF	; 223
    3752:	d2 40       	sbci	r29, 0x02	; 2
    3754:	d8 01       	movw	r26, r16
    3756:	2d 93       	st	X+, r18
    3758:	3d 93       	st	X+, r19
    375a:	4d 93       	st	X+, r20
    375c:	5c 93       	st	X, r21
    375e:	13 97       	sbiw	r26, 0x03	; 3

00003760 <.Loc.734>:
	if (__tmp < 1.0)
    3760:	ce 01       	movw	r24, r28
    3762:	83 5e       	subi	r24, 0xE3	; 227
    3764:	9e 4f       	sbci	r25, 0xFE	; 254
    3766:	20 e0       	ldi	r18, 0x00	; 0
    3768:	30 e0       	ldi	r19, 0x00	; 0
    376a:	40 e8       	ldi	r20, 0x80	; 128
    376c:	5f e3       	ldi	r21, 0x3F	; 63
    376e:	fc 01       	movw	r30, r24
    3770:	60 81       	ld	r22, Z
    3772:	71 81       	ldd	r23, Z+1	; 0x01
    3774:	82 81       	ldd	r24, Z+2	; 0x02
    3776:	93 81       	ldd	r25, Z+3	; 0x03
    3778:	0e 94 d1 1f 	call	0x3fa2	; 0x3fa2 <__cmpsf2>
    377c:	88 23       	and	r24, r24
    377e:	54 f4       	brge	.+20     	; 0x3794 <.L361>

00003780 <.Loc.735>:
		__ticks = 1;
    3780:	ce 01       	movw	r24, r28
    3782:	8f 5d       	subi	r24, 0xDF	; 223
    3784:	9e 4f       	sbci	r25, 0xFE	; 254
    3786:	21 e0       	ldi	r18, 0x01	; 1
    3788:	30 e0       	ldi	r19, 0x00	; 0
    378a:	dc 01       	movw	r26, r24
    378c:	11 96       	adiw	r26, 0x01	; 1
    378e:	3c 93       	st	X, r19
    3790:	2e 93       	st	-X, r18
    3792:	a5 c0       	rjmp	.+330    	; 0x38de <.L250>

00003794 <.L361>:
	else if (__tmp > 65535)
    3794:	ce 01       	movw	r24, r28
    3796:	83 5e       	subi	r24, 0xE3	; 227
    3798:	9e 4f       	sbci	r25, 0xFE	; 254
    379a:	20 e0       	ldi	r18, 0x00	; 0
    379c:	3f ef       	ldi	r19, 0xFF	; 255
    379e:	4f e7       	ldi	r20, 0x7F	; 127
    37a0:	57 e4       	ldi	r21, 0x47	; 71
    37a2:	fc 01       	movw	r30, r24
    37a4:	60 81       	ld	r22, Z
    37a6:	71 81       	ldd	r23, Z+1	; 0x01
    37a8:	82 81       	ldd	r24, Z+2	; 0x02
    37aa:	93 81       	ldd	r25, Z+3	; 0x03
    37ac:	0e 94 52 20 	call	0x40a4	; 0x40a4 <__gesf2>
    37b0:	88 23       	and	r24, r24
    37b2:	09 f0       	breq	.+2      	; 0x37b6 <L0^A>

000037b4 <L0^A>:
    37b4:	0c f4       	brge	.+2      	; 0x37b8 <.Loc.737>

000037b6 <L0^A>:
    37b6:	75 c0       	rjmp	.+234    	; 0x38a2 <.L362>

000037b8 <.Loc.737>:
		__ticks = (uint16_t) (__ms * 10.0);
    37b8:	ce 01       	movw	r24, r28
    37ba:	87 5e       	subi	r24, 0xE7	; 231
    37bc:	9e 4f       	sbci	r25, 0xFE	; 254
    37be:	20 e0       	ldi	r18, 0x00	; 0
    37c0:	30 e0       	ldi	r19, 0x00	; 0
    37c2:	40 e2       	ldi	r20, 0x20	; 32
    37c4:	51 e4       	ldi	r21, 0x41	; 65
    37c6:	dc 01       	movw	r26, r24
    37c8:	6d 91       	ld	r22, X+
    37ca:	7d 91       	ld	r23, X+
    37cc:	8d 91       	ld	r24, X+
    37ce:	9c 91       	ld	r25, X
    37d0:	0e 94 57 20 	call	0x40ae	; 0x40ae <__mulsf3>
    37d4:	cd 51       	subi	r28, 0x1D	; 29
    37d6:	dd 4f       	sbci	r29, 0xFD	; 253
    37d8:	68 83       	st	Y, r22
    37da:	79 83       	std	Y+1, r23	; 0x01
    37dc:	8a 83       	std	Y+2, r24	; 0x02
    37de:	9b 83       	std	Y+3, r25	; 0x03
    37e0:	c3 5e       	subi	r28, 0xE3	; 227
    37e2:	d2 40       	sbci	r29, 0x02	; 2
    37e4:	cd 51       	subi	r28, 0x1D	; 29
    37e6:	dd 4f       	sbci	r29, 0xFD	; 253
    37e8:	28 81       	ld	r18, Y
    37ea:	39 81       	ldd	r19, Y+1	; 0x01
    37ec:	4a 81       	ldd	r20, Y+2	; 0x02
    37ee:	5b 81       	ldd	r21, Y+3	; 0x03
    37f0:	c3 5e       	subi	r28, 0xE3	; 227
    37f2:	d2 40       	sbci	r29, 0x02	; 2
    37f4:	cd 56       	subi	r28, 0x6D	; 109
    37f6:	de 4f       	sbci	r29, 0xFE	; 254
    37f8:	28 83       	st	Y, r18
    37fa:	39 83       	std	Y+1, r19	; 0x01
    37fc:	4a 83       	std	Y+2, r20	; 0x02
    37fe:	5b 83       	std	Y+3, r21	; 0x03
    3800:	c3 59       	subi	r28, 0x93	; 147
    3802:	d1 40       	sbci	r29, 0x01	; 1

00003804 <.Loc.738>:
    3804:	8e 01       	movw	r16, r28
    3806:	0f 5d       	subi	r16, 0xDF	; 223
    3808:	1e 4f       	sbci	r17, 0xFE	; 254
    380a:	cd 56       	subi	r28, 0x6D	; 109
    380c:	de 4f       	sbci	r29, 0xFE	; 254
    380e:	68 81       	ld	r22, Y
    3810:	79 81       	ldd	r23, Y+1	; 0x01
    3812:	8a 81       	ldd	r24, Y+2	; 0x02
    3814:	9b 81       	ldd	r25, Y+3	; 0x03
    3816:	c3 59       	subi	r28, 0x93	; 147
    3818:	d1 40       	sbci	r29, 0x01	; 1
    381a:	0e 94 d6 1f 	call	0x3fac	; 0x3fac <__fixunssfsi>
    381e:	c9 51       	subi	r28, 0x19	; 25
    3820:	dd 4f       	sbci	r29, 0xFD	; 253
    3822:	68 83       	st	Y, r22
    3824:	79 83       	std	Y+1, r23	; 0x01
    3826:	8a 83       	std	Y+2, r24	; 0x02
    3828:	9b 83       	std	Y+3, r25	; 0x03
    382a:	c7 5e       	subi	r28, 0xE7	; 231
    382c:	d2 40       	sbci	r29, 0x02	; 2
    382e:	c9 51       	subi	r28, 0x19	; 25
    3830:	dd 4f       	sbci	r29, 0xFD	; 253
    3832:	e8 81       	ld	r30, Y
    3834:	f9 81       	ldd	r31, Y+1	; 0x01
    3836:	c7 5e       	subi	r28, 0xE7	; 231
    3838:	d2 40       	sbci	r29, 0x02	; 2
    383a:	d8 01       	movw	r26, r16
    383c:	11 96       	adiw	r26, 0x01	; 1
    383e:	fc 93       	st	X, r31
    3840:	ee 93       	st	-X, r30

00003842 <.Loc.739>:
		while(__ticks)
    3842:	26 c0       	rjmp	.+76     	; 0x3890 <.L253>

00003844 <.L254>:
    3844:	ce 01       	movw	r24, r28
    3846:	8d 5d       	subi	r24, 0xDD	; 221
    3848:	9e 4f       	sbci	r25, 0xFE	; 254
    384a:	20 e9       	ldi	r18, 0x90	; 144
    384c:	31 e0       	ldi	r19, 0x01	; 1
    384e:	dc 01       	movw	r26, r24
    3850:	2d 93       	st	X+, r18
    3852:	3c 93       	st	X, r19

00003854 <.LBB268>:
    3854:	ce 01       	movw	r24, r28
    3856:	8d 5d       	subi	r24, 0xDD	; 221
    3858:	9e 4f       	sbci	r25, 0xFE	; 254
    385a:	fc 01       	movw	r30, r24
    385c:	80 81       	ld	r24, Z
    385e:	91 81       	ldd	r25, Z+1	; 0x01

00003860 <.L1^B42>:
    3860:	01 97       	sbiw	r24, 0x01	; 1
    3862:	f1 f7       	brne	.-4      	; 0x3860 <.L1^B42>
    3864:	9e 01       	movw	r18, r28
    3866:	2d 5d       	subi	r18, 0xDD	; 221
    3868:	3e 4f       	sbci	r19, 0xFE	; 254
    386a:	d9 01       	movw	r26, r18
    386c:	8d 93       	st	X+, r24
    386e:	9c 93       	st	X, r25

00003870 <.Loc.741>:
	...

00003872 <.LBE268>:
			__ticks --;
    3872:	ce 01       	movw	r24, r28
    3874:	8f 5d       	subi	r24, 0xDF	; 223
    3876:	9e 4f       	sbci	r25, 0xFE	; 254
    3878:	9e 01       	movw	r18, r28
    387a:	2f 5d       	subi	r18, 0xDF	; 223
    387c:	3e 4f       	sbci	r19, 0xFE	; 254
    387e:	f9 01       	movw	r30, r18
    3880:	20 81       	ld	r18, Z
    3882:	31 81       	ldd	r19, Z+1	; 0x01
    3884:	21 50       	subi	r18, 0x01	; 1
    3886:	31 09       	sbc	r19, r1
    3888:	dc 01       	movw	r26, r24
    388a:	11 96       	adiw	r26, 0x01	; 1
    388c:	3c 93       	st	X, r19
    388e:	2e 93       	st	-X, r18

00003890 <.L253>:
		while(__ticks)
    3890:	ce 01       	movw	r24, r28
    3892:	8f 5d       	subi	r24, 0xDF	; 223
    3894:	9e 4f       	sbci	r25, 0xFE	; 254
    3896:	fc 01       	movw	r30, r24
    3898:	80 81       	ld	r24, Z
    389a:	91 81       	ldd	r25, Z+1	; 0x01
    389c:	00 97       	sbiw	r24, 0x00	; 0
    389e:	91 f6       	brne	.-92     	; 0x3844 <.L254>

000038a0 <.Loc.744>:
		return;
    38a0:	3a c0       	rjmp	.+116    	; 0x3916 <.L255>

000038a2 <.L362>:
		__ticks = (uint16_t)__tmp;
    38a2:	8e 01       	movw	r16, r28
    38a4:	0f 5d       	subi	r16, 0xDF	; 223
    38a6:	1e 4f       	sbci	r17, 0xFE	; 254
    38a8:	ce 01       	movw	r24, r28
    38aa:	83 5e       	subi	r24, 0xE3	; 227
    38ac:	9e 4f       	sbci	r25, 0xFE	; 254
    38ae:	dc 01       	movw	r26, r24
    38b0:	6d 91       	ld	r22, X+
    38b2:	7d 91       	ld	r23, X+
    38b4:	8d 91       	ld	r24, X+
    38b6:	9c 91       	ld	r25, X
    38b8:	0e 94 d6 1f 	call	0x3fac	; 0x3fac <__fixunssfsi>
    38bc:	c5 51       	subi	r28, 0x15	; 21
    38be:	dd 4f       	sbci	r29, 0xFD	; 253
    38c0:	68 83       	st	Y, r22
    38c2:	79 83       	std	Y+1, r23	; 0x01
    38c4:	8a 83       	std	Y+2, r24	; 0x02
    38c6:	9b 83       	std	Y+3, r25	; 0x03
    38c8:	cb 5e       	subi	r28, 0xEB	; 235
    38ca:	d2 40       	sbci	r29, 0x02	; 2
    38cc:	c5 51       	subi	r28, 0x15	; 21
    38ce:	dd 4f       	sbci	r29, 0xFD	; 253
    38d0:	28 81       	ld	r18, Y
    38d2:	39 81       	ldd	r19, Y+1	; 0x01
    38d4:	cb 5e       	subi	r28, 0xEB	; 235
    38d6:	d2 40       	sbci	r29, 0x02	; 2
    38d8:	f8 01       	movw	r30, r16
    38da:	31 83       	std	Z+1, r19	; 0x01
    38dc:	20 83       	st	Z, r18

000038de <.L250>:
    38de:	ce 01       	movw	r24, r28
    38e0:	8b 5d       	subi	r24, 0xDB	; 219
    38e2:	9e 4f       	sbci	r25, 0xFE	; 254
    38e4:	9e 01       	movw	r18, r28
    38e6:	2f 5d       	subi	r18, 0xDF	; 223
    38e8:	3e 4f       	sbci	r19, 0xFE	; 254
    38ea:	d9 01       	movw	r26, r18
    38ec:	2d 91       	ld	r18, X+
    38ee:	3c 91       	ld	r19, X
    38f0:	fc 01       	movw	r30, r24
    38f2:	31 83       	std	Z+1, r19	; 0x01
    38f4:	20 83       	st	Z, r18

000038f6 <.LBB270>:
    38f6:	ce 01       	movw	r24, r28
    38f8:	8b 5d       	subi	r24, 0xDB	; 219
    38fa:	9e 4f       	sbci	r25, 0xFE	; 254
    38fc:	dc 01       	movw	r26, r24
    38fe:	8d 91       	ld	r24, X+
    3900:	9c 91       	ld	r25, X
    3902:	11 97       	sbiw	r26, 0x01	; 1

00003904 <.L1^B43>:
    3904:	01 97       	sbiw	r24, 0x01	; 1
    3906:	f1 f7       	brne	.-4      	; 0x3904 <.L1^B43>
    3908:	9e 01       	movw	r18, r28
    390a:	2b 5d       	subi	r18, 0xDB	; 219
    390c:	3e 4f       	sbci	r19, 0xFE	; 254
    390e:	f9 01       	movw	r30, r18
    3910:	91 83       	std	Z+1, r25	; 0x01
    3912:	80 83       	st	Z, r24

00003914 <.Loc.747>:
	...

00003916 <.L255>:
                            {
                                _delay_ms(30);//Fine-tune this also? do these switches need a different debouncing time or???
                                  StepCounterX -=  1;
    3916:	80 91 1e 02 	lds	r24, 0x021E	; 0x80021e <StepCounterX>
    391a:	90 91 1f 02 	lds	r25, 0x021F	; 0x80021f <StepCounterX+0x1>
    391e:	01 97       	sbiw	r24, 0x01	; 1
    3920:	90 93 1f 02 	sts	0x021F, r25	; 0x80021f <StepCounterX+0x1>
    3924:	80 93 1e 02 	sts	0x021E, r24	; 0x80021e <StepCounterX>

00003928 <.Loc.749>:
                                knop1_ingedrukt = 1;
    3928:	81 e0       	ldi	r24, 0x01	; 1
    392a:	90 e0       	ldi	r25, 0x00	; 0
    392c:	90 93 15 02 	sts	0x0215, r25	; 0x800215 <knop1_ingedrukt+0x1>
    3930:	80 93 14 02 	sts	0x0214, r24	; 0x800214 <knop1_ingedrukt>
    3934:	19 c1       	rjmp	.+562    	; 0x3b68 <.L247>

00003936 <.L246>:
                            }
                        }
                    else
                        {
                        if (knop1_ingedrukt != 0) // knop is zojuist losgelaten
    3936:	80 91 14 02 	lds	r24, 0x0214	; 0x800214 <knop1_ingedrukt>
    393a:	90 91 15 02 	lds	r25, 0x0215	; 0x800215 <knop1_ingedrukt+0x1>

0000393e <.Loc.751>:
    393e:	00 97       	sbiw	r24, 0x00	; 0
    3940:	09 f4       	brne	.+2      	; 0x3944 <L0^A+0x2>

00003942 <L0^A>:
    3942:	12 c1       	rjmp	.+548    	; 0x3b68 <.L247>
    3944:	9e 01       	movw	r18, r28
    3946:	29 5d       	subi	r18, 0xD9	; 217
    3948:	3e 4f       	sbci	r19, 0xFE	; 254
    394a:	80 e0       	ldi	r24, 0x00	; 0
    394c:	90 e0       	ldi	r25, 0x00	; 0
    394e:	a0 ef       	ldi	r26, 0xF0	; 240
    3950:	b1 e4       	ldi	r27, 0x41	; 65
    3952:	f9 01       	movw	r30, r18
    3954:	80 83       	st	Z, r24
    3956:	91 83       	std	Z+1, r25	; 0x01
    3958:	a2 83       	std	Z+2, r26	; 0x02
    395a:	b3 83       	std	Z+3, r27	; 0x03

0000395c <.LBB272>:
	__tmp = ((F_CPU) / 4e3) * __ms;
    395c:	8e 01       	movw	r16, r28
    395e:	05 5d       	subi	r16, 0xD5	; 213
    3960:	1e 4f       	sbci	r17, 0xFE	; 254
    3962:	ce 01       	movw	r24, r28
    3964:	89 5d       	subi	r24, 0xD9	; 217
    3966:	9e 4f       	sbci	r25, 0xFE	; 254
    3968:	20 e0       	ldi	r18, 0x00	; 0
    396a:	30 e0       	ldi	r19, 0x00	; 0
    396c:	4a e7       	ldi	r20, 0x7A	; 122
    396e:	55 e4       	ldi	r21, 0x45	; 69
    3970:	dc 01       	movw	r26, r24
    3972:	6d 91       	ld	r22, X+
    3974:	7d 91       	ld	r23, X+
    3976:	8d 91       	ld	r24, X+
    3978:	9c 91       	ld	r25, X
    397a:	0e 94 57 20 	call	0x40ae	; 0x40ae <__mulsf3>
    397e:	c1 51       	subi	r28, 0x11	; 17
    3980:	dd 4f       	sbci	r29, 0xFD	; 253
    3982:	68 83       	st	Y, r22
    3984:	79 83       	std	Y+1, r23	; 0x01
    3986:	8a 83       	std	Y+2, r24	; 0x02
    3988:	9b 83       	std	Y+3, r25	; 0x03
    398a:	cf 5e       	subi	r28, 0xEF	; 239
    398c:	d2 40       	sbci	r29, 0x02	; 2
    398e:	c1 51       	subi	r28, 0x11	; 17
    3990:	dd 4f       	sbci	r29, 0xFD	; 253
    3992:	28 81       	ld	r18, Y
    3994:	39 81       	ldd	r19, Y+1	; 0x01
    3996:	4a 81       	ldd	r20, Y+2	; 0x02
    3998:	5b 81       	ldd	r21, Y+3	; 0x03
    399a:	cf 5e       	subi	r28, 0xEF	; 239
    399c:	d2 40       	sbci	r29, 0x02	; 2
    399e:	d8 01       	movw	r26, r16
    39a0:	2d 93       	st	X+, r18
    39a2:	3d 93       	st	X+, r19
    39a4:	4d 93       	st	X+, r20
    39a6:	5c 93       	st	X, r21
    39a8:	13 97       	sbiw	r26, 0x03	; 3

000039aa <.Loc.753>:
	if (__tmp < 1.0)
    39aa:	ce 01       	movw	r24, r28
    39ac:	85 5d       	subi	r24, 0xD5	; 213
    39ae:	9e 4f       	sbci	r25, 0xFE	; 254
    39b0:	20 e0       	ldi	r18, 0x00	; 0
    39b2:	30 e0       	ldi	r19, 0x00	; 0
    39b4:	40 e8       	ldi	r20, 0x80	; 128
    39b6:	5f e3       	ldi	r21, 0x3F	; 63
    39b8:	fc 01       	movw	r30, r24
    39ba:	60 81       	ld	r22, Z
    39bc:	71 81       	ldd	r23, Z+1	; 0x01
    39be:	82 81       	ldd	r24, Z+2	; 0x02
    39c0:	93 81       	ldd	r25, Z+3	; 0x03
    39c2:	0e 94 d1 1f 	call	0x3fa2	; 0x3fa2 <__cmpsf2>
    39c6:	88 23       	and	r24, r24
    39c8:	54 f4       	brge	.+20     	; 0x39de <.L363>

000039ca <.Loc.754>:
		__ticks = 1;
    39ca:	ce 01       	movw	r24, r28
    39cc:	81 5d       	subi	r24, 0xD1	; 209
    39ce:	9e 4f       	sbci	r25, 0xFE	; 254
    39d0:	21 e0       	ldi	r18, 0x01	; 1
    39d2:	30 e0       	ldi	r19, 0x00	; 0
    39d4:	dc 01       	movw	r26, r24
    39d6:	11 96       	adiw	r26, 0x01	; 1
    39d8:	3c 93       	st	X, r19
    39da:	2e 93       	st	-X, r18
    39dc:	a5 c0       	rjmp	.+330    	; 0x3b28 <.L258>

000039de <.L363>:
	else if (__tmp > 65535)
    39de:	ce 01       	movw	r24, r28
    39e0:	85 5d       	subi	r24, 0xD5	; 213
    39e2:	9e 4f       	sbci	r25, 0xFE	; 254
    39e4:	20 e0       	ldi	r18, 0x00	; 0
    39e6:	3f ef       	ldi	r19, 0xFF	; 255
    39e8:	4f e7       	ldi	r20, 0x7F	; 127
    39ea:	57 e4       	ldi	r21, 0x47	; 71
    39ec:	fc 01       	movw	r30, r24
    39ee:	60 81       	ld	r22, Z
    39f0:	71 81       	ldd	r23, Z+1	; 0x01
    39f2:	82 81       	ldd	r24, Z+2	; 0x02
    39f4:	93 81       	ldd	r25, Z+3	; 0x03
    39f6:	0e 94 52 20 	call	0x40a4	; 0x40a4 <__gesf2>
    39fa:	88 23       	and	r24, r24
    39fc:	09 f0       	breq	.+2      	; 0x3a00 <L0^A>

000039fe <L0^A>:
    39fe:	0c f4       	brge	.+2      	; 0x3a02 <.Loc.756>

00003a00 <L0^A>:
    3a00:	75 c0       	rjmp	.+234    	; 0x3aec <.L364>

00003a02 <.Loc.756>:
		__ticks = (uint16_t) (__ms * 10.0);
    3a02:	ce 01       	movw	r24, r28
    3a04:	89 5d       	subi	r24, 0xD9	; 217
    3a06:	9e 4f       	sbci	r25, 0xFE	; 254
    3a08:	20 e0       	ldi	r18, 0x00	; 0
    3a0a:	30 e0       	ldi	r19, 0x00	; 0
    3a0c:	40 e2       	ldi	r20, 0x20	; 32
    3a0e:	51 e4       	ldi	r21, 0x41	; 65
    3a10:	dc 01       	movw	r26, r24
    3a12:	6d 91       	ld	r22, X+
    3a14:	7d 91       	ld	r23, X+
    3a16:	8d 91       	ld	r24, X+
    3a18:	9c 91       	ld	r25, X
    3a1a:	0e 94 57 20 	call	0x40ae	; 0x40ae <__mulsf3>
    3a1e:	cd 50       	subi	r28, 0x0D	; 13
    3a20:	dd 4f       	sbci	r29, 0xFD	; 253
    3a22:	68 83       	st	Y, r22
    3a24:	79 83       	std	Y+1, r23	; 0x01
    3a26:	8a 83       	std	Y+2, r24	; 0x02
    3a28:	9b 83       	std	Y+3, r25	; 0x03
    3a2a:	c3 5f       	subi	r28, 0xF3	; 243
    3a2c:	d2 40       	sbci	r29, 0x02	; 2
    3a2e:	cd 50       	subi	r28, 0x0D	; 13
    3a30:	dd 4f       	sbci	r29, 0xFD	; 253
    3a32:	28 81       	ld	r18, Y
    3a34:	39 81       	ldd	r19, Y+1	; 0x01
    3a36:	4a 81       	ldd	r20, Y+2	; 0x02
    3a38:	5b 81       	ldd	r21, Y+3	; 0x03
    3a3a:	c3 5f       	subi	r28, 0xF3	; 243
    3a3c:	d2 40       	sbci	r29, 0x02	; 2
    3a3e:	c9 56       	subi	r28, 0x69	; 105
    3a40:	de 4f       	sbci	r29, 0xFE	; 254
    3a42:	28 83       	st	Y, r18
    3a44:	39 83       	std	Y+1, r19	; 0x01
    3a46:	4a 83       	std	Y+2, r20	; 0x02
    3a48:	5b 83       	std	Y+3, r21	; 0x03
    3a4a:	c7 59       	subi	r28, 0x97	; 151
    3a4c:	d1 40       	sbci	r29, 0x01	; 1

00003a4e <.Loc.757>:
    3a4e:	8e 01       	movw	r16, r28
    3a50:	01 5d       	subi	r16, 0xD1	; 209
    3a52:	1e 4f       	sbci	r17, 0xFE	; 254
    3a54:	c9 56       	subi	r28, 0x69	; 105
    3a56:	de 4f       	sbci	r29, 0xFE	; 254
    3a58:	68 81       	ld	r22, Y
    3a5a:	79 81       	ldd	r23, Y+1	; 0x01
    3a5c:	8a 81       	ldd	r24, Y+2	; 0x02
    3a5e:	9b 81       	ldd	r25, Y+3	; 0x03
    3a60:	c7 59       	subi	r28, 0x97	; 151
    3a62:	d1 40       	sbci	r29, 0x01	; 1
    3a64:	0e 94 d6 1f 	call	0x3fac	; 0x3fac <__fixunssfsi>
    3a68:	c9 50       	subi	r28, 0x09	; 9
    3a6a:	dd 4f       	sbci	r29, 0xFD	; 253
    3a6c:	68 83       	st	Y, r22
    3a6e:	79 83       	std	Y+1, r23	; 0x01
    3a70:	8a 83       	std	Y+2, r24	; 0x02
    3a72:	9b 83       	std	Y+3, r25	; 0x03
    3a74:	c7 5f       	subi	r28, 0xF7	; 247
    3a76:	d2 40       	sbci	r29, 0x02	; 2
    3a78:	c9 50       	subi	r28, 0x09	; 9
    3a7a:	dd 4f       	sbci	r29, 0xFD	; 253
    3a7c:	e8 81       	ld	r30, Y
    3a7e:	f9 81       	ldd	r31, Y+1	; 0x01
    3a80:	c7 5f       	subi	r28, 0xF7	; 247
    3a82:	d2 40       	sbci	r29, 0x02	; 2
    3a84:	d8 01       	movw	r26, r16
    3a86:	11 96       	adiw	r26, 0x01	; 1
    3a88:	fc 93       	st	X, r31
    3a8a:	ee 93       	st	-X, r30

00003a8c <.Loc.758>:
		while(__ticks)
    3a8c:	26 c0       	rjmp	.+76     	; 0x3ada <.L261>

00003a8e <.L262>:
    3a8e:	ce 01       	movw	r24, r28
    3a90:	8f 5c       	subi	r24, 0xCF	; 207
    3a92:	9e 4f       	sbci	r25, 0xFE	; 254
    3a94:	20 e9       	ldi	r18, 0x90	; 144
    3a96:	31 e0       	ldi	r19, 0x01	; 1
    3a98:	dc 01       	movw	r26, r24
    3a9a:	2d 93       	st	X+, r18
    3a9c:	3c 93       	st	X, r19

00003a9e <.LBB274>:
    3a9e:	ce 01       	movw	r24, r28
    3aa0:	8f 5c       	subi	r24, 0xCF	; 207
    3aa2:	9e 4f       	sbci	r25, 0xFE	; 254
    3aa4:	fc 01       	movw	r30, r24
    3aa6:	80 81       	ld	r24, Z
    3aa8:	91 81       	ldd	r25, Z+1	; 0x01

00003aaa <.L1^B44>:
    3aaa:	01 97       	sbiw	r24, 0x01	; 1
    3aac:	f1 f7       	brne	.-4      	; 0x3aaa <.L1^B44>
    3aae:	9e 01       	movw	r18, r28
    3ab0:	2f 5c       	subi	r18, 0xCF	; 207
    3ab2:	3e 4f       	sbci	r19, 0xFE	; 254
    3ab4:	d9 01       	movw	r26, r18
    3ab6:	8d 93       	st	X+, r24
    3ab8:	9c 93       	st	X, r25

00003aba <.Loc.760>:
	...

00003abc <.LBE274>:
			__ticks --;
    3abc:	ce 01       	movw	r24, r28
    3abe:	81 5d       	subi	r24, 0xD1	; 209
    3ac0:	9e 4f       	sbci	r25, 0xFE	; 254
    3ac2:	9e 01       	movw	r18, r28
    3ac4:	21 5d       	subi	r18, 0xD1	; 209
    3ac6:	3e 4f       	sbci	r19, 0xFE	; 254
    3ac8:	f9 01       	movw	r30, r18
    3aca:	20 81       	ld	r18, Z
    3acc:	31 81       	ldd	r19, Z+1	; 0x01
    3ace:	21 50       	subi	r18, 0x01	; 1
    3ad0:	31 09       	sbc	r19, r1
    3ad2:	dc 01       	movw	r26, r24
    3ad4:	11 96       	adiw	r26, 0x01	; 1
    3ad6:	3c 93       	st	X, r19
    3ad8:	2e 93       	st	-X, r18

00003ada <.L261>:
		while(__ticks)
    3ada:	ce 01       	movw	r24, r28
    3adc:	81 5d       	subi	r24, 0xD1	; 209
    3ade:	9e 4f       	sbci	r25, 0xFE	; 254
    3ae0:	fc 01       	movw	r30, r24
    3ae2:	80 81       	ld	r24, Z
    3ae4:	91 81       	ldd	r25, Z+1	; 0x01
    3ae6:	00 97       	sbiw	r24, 0x00	; 0
    3ae8:	91 f6       	brne	.-92     	; 0x3a8e <.L262>

00003aea <.Loc.763>:
		return;
    3aea:	3a c0       	rjmp	.+116    	; 0x3b60 <.L263>

00003aec <.L364>:
		__ticks = (uint16_t)__tmp;
    3aec:	8e 01       	movw	r16, r28
    3aee:	01 5d       	subi	r16, 0xD1	; 209
    3af0:	1e 4f       	sbci	r17, 0xFE	; 254
    3af2:	ce 01       	movw	r24, r28
    3af4:	85 5d       	subi	r24, 0xD5	; 213
    3af6:	9e 4f       	sbci	r25, 0xFE	; 254
    3af8:	dc 01       	movw	r26, r24
    3afa:	6d 91       	ld	r22, X+
    3afc:	7d 91       	ld	r23, X+
    3afe:	8d 91       	ld	r24, X+
    3b00:	9c 91       	ld	r25, X
    3b02:	0e 94 d6 1f 	call	0x3fac	; 0x3fac <__fixunssfsi>
    3b06:	c5 50       	subi	r28, 0x05	; 5
    3b08:	dd 4f       	sbci	r29, 0xFD	; 253
    3b0a:	68 83       	st	Y, r22
    3b0c:	79 83       	std	Y+1, r23	; 0x01
    3b0e:	8a 83       	std	Y+2, r24	; 0x02
    3b10:	9b 83       	std	Y+3, r25	; 0x03
    3b12:	cb 5f       	subi	r28, 0xFB	; 251
    3b14:	d2 40       	sbci	r29, 0x02	; 2
    3b16:	c5 50       	subi	r28, 0x05	; 5
    3b18:	dd 4f       	sbci	r29, 0xFD	; 253
    3b1a:	28 81       	ld	r18, Y
    3b1c:	39 81       	ldd	r19, Y+1	; 0x01
    3b1e:	cb 5f       	subi	r28, 0xFB	; 251
    3b20:	d2 40       	sbci	r29, 0x02	; 2
    3b22:	f8 01       	movw	r30, r16
    3b24:	31 83       	std	Z+1, r19	; 0x01
    3b26:	20 83       	st	Z, r18

00003b28 <.L258>:
    3b28:	ce 01       	movw	r24, r28
    3b2a:	8d 5c       	subi	r24, 0xCD	; 205
    3b2c:	9e 4f       	sbci	r25, 0xFE	; 254
    3b2e:	9e 01       	movw	r18, r28
    3b30:	21 5d       	subi	r18, 0xD1	; 209
    3b32:	3e 4f       	sbci	r19, 0xFE	; 254
    3b34:	d9 01       	movw	r26, r18
    3b36:	2d 91       	ld	r18, X+
    3b38:	3c 91       	ld	r19, X
    3b3a:	fc 01       	movw	r30, r24
    3b3c:	31 83       	std	Z+1, r19	; 0x01
    3b3e:	20 83       	st	Z, r18

00003b40 <.LBB276>:
    3b40:	ce 01       	movw	r24, r28
    3b42:	8d 5c       	subi	r24, 0xCD	; 205
    3b44:	9e 4f       	sbci	r25, 0xFE	; 254
    3b46:	dc 01       	movw	r26, r24
    3b48:	8d 91       	ld	r24, X+
    3b4a:	9c 91       	ld	r25, X
    3b4c:	11 97       	sbiw	r26, 0x01	; 1

00003b4e <.L1^B45>:
    3b4e:	01 97       	sbiw	r24, 0x01	; 1
    3b50:	f1 f7       	brne	.-4      	; 0x3b4e <.L1^B45>
    3b52:	9e 01       	movw	r18, r28
    3b54:	2d 5c       	subi	r18, 0xCD	; 205
    3b56:	3e 4f       	sbci	r19, 0xFE	; 254
    3b58:	f9 01       	movw	r30, r18
    3b5a:	91 83       	std	Z+1, r25	; 0x01
    3b5c:	80 83       	st	Z, r24

00003b5e <.Loc.766>:
	...

00003b60 <.L263>:
                            {
                                _delay_ms(30);
                                knop1_ingedrukt = 0;
    3b60:	10 92 15 02 	sts	0x0215, r1	; 0x800215 <knop1_ingedrukt+0x1>
    3b64:	10 92 14 02 	sts	0x0214, r1	; 0x800214 <knop1_ingedrukt>

00003b68 <.L247>:
                            }
                        }

                    if(StepCounterX == 0)
    3b68:	80 91 1e 02 	lds	r24, 0x021E	; 0x80021e <StepCounterX>
    3b6c:	90 91 1f 02 	lds	r25, 0x021F	; 0x80021f <StepCounterX+0x1>

00003b70 <.Loc.769>:
    3b70:	00 97       	sbiw	r24, 0x00	; 0
    3b72:	c1 f4       	brne	.+48     	; 0x3ba4 <.L264>

00003b74 <.Loc.770>:
                    {
                        h_bridge_set_percentage(0);
    3b74:	80 e0       	ldi	r24, 0x00	; 0
    3b76:	0e 94 bd 01 	call	0x37a	; 0x37a <h_bridge_set_percentage>

00003b7a <.Loc.771>:
                        PORTA = (1 << RelaisY); //Yet-again first h-bridge and THEN the port. Net zoals je eigenlijk een laptop accu moet ontkoppelen.
    3b7a:	82 e2       	ldi	r24, 0x22	; 34
    3b7c:	90 e0       	ldi	r25, 0x00	; 0

00003b7e <.Loc.772>:
    3b7e:	24 e0       	ldi	r18, 0x04	; 4
    3b80:	dc 01       	movw	r26, r24
    3b82:	2c 93       	st	X, r18

00003b84 <.Loc.773>:
                        PORTB ^= (1 << PB7); //Debug Light X-as
    3b84:	85 e2       	ldi	r24, 0x25	; 37
    3b86:	90 e0       	ldi	r25, 0x00	; 0
    3b88:	fc 01       	movw	r30, r24
    3b8a:	30 81       	ld	r19, Z
    3b8c:	85 e2       	ldi	r24, 0x25	; 37
    3b8e:	90 e0       	ldi	r25, 0x00	; 0

00003b90 <.Loc.774>:
    3b90:	20 e8       	ldi	r18, 0x80	; 128
    3b92:	23 27       	eor	r18, r19
    3b94:	dc 01       	movw	r26, r24
    3b96:	2c 93       	st	X, r18

00003b98 <.Loc.775>:
                        MenuLayer = 60;
    3b98:	8c e3       	ldi	r24, 0x3C	; 60
    3b9a:	90 e0       	ldi	r25, 0x00	; 0
    3b9c:	90 93 01 02 	sts	0x0201, r25	; 0x800201 <MenuLayer+0x1>
    3ba0:	80 93 00 02 	sts	0x0200, r24	; 0x800200 <MenuLayer>

00003ba4 <.L264>:
                    }
                        n=StepCounterX;// Here for display purposes. Handy Debug Tool.
    3ba4:	80 91 1e 02 	lds	r24, 0x021E	; 0x80021e <StepCounterX>
    3ba8:	90 91 1f 02 	lds	r25, 0x021F	; 0x80021f <StepCounterX+0x1>
    3bac:	90 93 0f 02 	sts	0x020F, r25	; 0x80020f <n+0x1>
    3bb0:	80 93 0e 02 	sts	0x020E, r24	; 0x80020e <n>

00003bb4 <.Loc.777>:
                        Refresh();
    3bb4:	0e 94 2e 03 	call	0x65c	; 0x65c <Refresh>

00003bb8 <.Loc.778>:
                }break;
    3bb8:	85 c1       	rjmp	.+778    	; 0x3ec4 <.L59>

00003bba <.L48>:


                case 60:{ //Back down
                    PORTA = ~(1 << (RelaisZ));//Z-as aan
    3bba:	82 e2       	ldi	r24, 0x22	; 34
    3bbc:	90 e0       	ldi	r25, 0x00	; 0

00003bbe <.Loc.780>:
    3bbe:	2f ee       	ldi	r18, 0xEF	; 239
    3bc0:	fc 01       	movw	r30, r24
    3bc2:	20 83       	st	Z, r18

00003bc4 <.Loc.781>:
                    PORTB ^= (1 << PB5); //Debug Light Z-as
    3bc4:	85 e2       	ldi	r24, 0x25	; 37
    3bc6:	90 e0       	ldi	r25, 0x00	; 0
    3bc8:	dc 01       	movw	r26, r24
    3bca:	3c 91       	ld	r19, X
    3bcc:	85 e2       	ldi	r24, 0x25	; 37
    3bce:	90 e0       	ldi	r25, 0x00	; 0

00003bd0 <.Loc.782>:
    3bd0:	20 e2       	ldi	r18, 0x20	; 32
    3bd2:	23 27       	eor	r18, r19
    3bd4:	fc 01       	movw	r30, r24
    3bd6:	20 83       	st	Z, r18

00003bd8 <.Loc.783>:

                    h_bridge_set_percentage(20);
    3bd8:	84 e1       	ldi	r24, 0x14	; 20
    3bda:	0e 94 bd 01 	call	0x37a	; 0x37a <h_bridge_set_percentage>
    3bde:	9e 01       	movw	r18, r28
    3be0:	2b 5c       	subi	r18, 0xCB	; 203
    3be2:	3e 4f       	sbci	r19, 0xFE	; 254
    3be4:	80 e0       	ldi	r24, 0x00	; 0
    3be6:	90 e8       	ldi	r25, 0x80	; 128
    3be8:	ab eb       	ldi	r26, 0xBB	; 187
    3bea:	b4 e4       	ldi	r27, 0x44	; 68
    3bec:	f9 01       	movw	r30, r18
    3bee:	80 83       	st	Z, r24
    3bf0:	91 83       	std	Z+1, r25	; 0x01
    3bf2:	a2 83       	std	Z+2, r26	; 0x02
    3bf4:	b3 83       	std	Z+3, r27	; 0x03

00003bf6 <.LBB278>:
	__tmp = ((F_CPU) / 4e3) * __ms;
    3bf6:	8e 01       	movw	r16, r28
    3bf8:	07 5c       	subi	r16, 0xC7	; 199
    3bfa:	1e 4f       	sbci	r17, 0xFE	; 254
    3bfc:	ce 01       	movw	r24, r28
    3bfe:	8b 5c       	subi	r24, 0xCB	; 203
    3c00:	9e 4f       	sbci	r25, 0xFE	; 254
    3c02:	20 e0       	ldi	r18, 0x00	; 0
    3c04:	30 e0       	ldi	r19, 0x00	; 0
    3c06:	4a e7       	ldi	r20, 0x7A	; 122
    3c08:	55 e4       	ldi	r21, 0x45	; 69
    3c0a:	dc 01       	movw	r26, r24
    3c0c:	6d 91       	ld	r22, X+
    3c0e:	7d 91       	ld	r23, X+
    3c10:	8d 91       	ld	r24, X+
    3c12:	9c 91       	ld	r25, X
    3c14:	0e 94 57 20 	call	0x40ae	; 0x40ae <__mulsf3>
    3c18:	c1 50       	subi	r28, 0x01	; 1
    3c1a:	dd 4f       	sbci	r29, 0xFD	; 253
    3c1c:	68 83       	st	Y, r22
    3c1e:	79 83       	std	Y+1, r23	; 0x01
    3c20:	8a 83       	std	Y+2, r24	; 0x02
    3c22:	9b 83       	std	Y+3, r25	; 0x03
    3c24:	cf 5f       	subi	r28, 0xFF	; 255
    3c26:	d2 40       	sbci	r29, 0x02	; 2
    3c28:	c1 50       	subi	r28, 0x01	; 1
    3c2a:	dd 4f       	sbci	r29, 0xFD	; 253
    3c2c:	28 81       	ld	r18, Y
    3c2e:	39 81       	ldd	r19, Y+1	; 0x01
    3c30:	4a 81       	ldd	r20, Y+2	; 0x02
    3c32:	5b 81       	ldd	r21, Y+3	; 0x03
    3c34:	cf 5f       	subi	r28, 0xFF	; 255
    3c36:	d2 40       	sbci	r29, 0x02	; 2
    3c38:	d8 01       	movw	r26, r16
    3c3a:	2d 93       	st	X+, r18
    3c3c:	3d 93       	st	X+, r19
    3c3e:	4d 93       	st	X+, r20
    3c40:	5c 93       	st	X, r21
    3c42:	13 97       	sbiw	r26, 0x03	; 3

00003c44 <.Loc.785>:
	if (__tmp < 1.0)
    3c44:	ce 01       	movw	r24, r28
    3c46:	87 5c       	subi	r24, 0xC7	; 199
    3c48:	9e 4f       	sbci	r25, 0xFE	; 254
    3c4a:	20 e0       	ldi	r18, 0x00	; 0
    3c4c:	30 e0       	ldi	r19, 0x00	; 0
    3c4e:	40 e8       	ldi	r20, 0x80	; 128
    3c50:	5f e3       	ldi	r21, 0x3F	; 63
    3c52:	fc 01       	movw	r30, r24
    3c54:	60 81       	ld	r22, Z
    3c56:	71 81       	ldd	r23, Z+1	; 0x01
    3c58:	82 81       	ldd	r24, Z+2	; 0x02
    3c5a:	93 81       	ldd	r25, Z+3	; 0x03
    3c5c:	0e 94 d1 1f 	call	0x3fa2	; 0x3fa2 <__cmpsf2>
    3c60:	88 23       	and	r24, r24
    3c62:	54 f4       	brge	.+20     	; 0x3c78 <.L365>

00003c64 <.Loc.786>:
		__ticks = 1;
    3c64:	ce 01       	movw	r24, r28
    3c66:	83 5c       	subi	r24, 0xC3	; 195
    3c68:	9e 4f       	sbci	r25, 0xFE	; 254
    3c6a:	21 e0       	ldi	r18, 0x01	; 1
    3c6c:	30 e0       	ldi	r19, 0x00	; 0
    3c6e:	dc 01       	movw	r26, r24
    3c70:	11 96       	adiw	r26, 0x01	; 1
    3c72:	3c 93       	st	X, r19
    3c74:	2e 93       	st	-X, r18
    3c76:	a5 c0       	rjmp	.+330    	; 0x3dc2 <.L267>

00003c78 <.L365>:
	else if (__tmp > 65535)
    3c78:	ce 01       	movw	r24, r28
    3c7a:	87 5c       	subi	r24, 0xC7	; 199
    3c7c:	9e 4f       	sbci	r25, 0xFE	; 254
    3c7e:	20 e0       	ldi	r18, 0x00	; 0
    3c80:	3f ef       	ldi	r19, 0xFF	; 255
    3c82:	4f e7       	ldi	r20, 0x7F	; 127
    3c84:	57 e4       	ldi	r21, 0x47	; 71
    3c86:	fc 01       	movw	r30, r24
    3c88:	60 81       	ld	r22, Z
    3c8a:	71 81       	ldd	r23, Z+1	; 0x01
    3c8c:	82 81       	ldd	r24, Z+2	; 0x02
    3c8e:	93 81       	ldd	r25, Z+3	; 0x03
    3c90:	0e 94 52 20 	call	0x40a4	; 0x40a4 <__gesf2>
    3c94:	88 23       	and	r24, r24
    3c96:	09 f0       	breq	.+2      	; 0x3c9a <L0^A>

00003c98 <L0^A>:
    3c98:	0c f4       	brge	.+2      	; 0x3c9c <.Loc.788>

00003c9a <L0^A>:
    3c9a:	75 c0       	rjmp	.+234    	; 0x3d86 <.L366>

00003c9c <.Loc.788>:
		__ticks = (uint16_t) (__ms * 10.0);
    3c9c:	ce 01       	movw	r24, r28
    3c9e:	8b 5c       	subi	r24, 0xCB	; 203
    3ca0:	9e 4f       	sbci	r25, 0xFE	; 254
    3ca2:	20 e0       	ldi	r18, 0x00	; 0
    3ca4:	30 e0       	ldi	r19, 0x00	; 0
    3ca6:	40 e2       	ldi	r20, 0x20	; 32
    3ca8:	51 e4       	ldi	r21, 0x41	; 65
    3caa:	dc 01       	movw	r26, r24
    3cac:	6d 91       	ld	r22, X+
    3cae:	7d 91       	ld	r23, X+
    3cb0:	8d 91       	ld	r24, X+
    3cb2:	9c 91       	ld	r25, X
    3cb4:	0e 94 57 20 	call	0x40ae	; 0x40ae <__mulsf3>
    3cb8:	cd 5f       	subi	r28, 0xFD	; 253
    3cba:	dc 4f       	sbci	r29, 0xFC	; 252
    3cbc:	68 83       	st	Y, r22
    3cbe:	79 83       	std	Y+1, r23	; 0x01
    3cc0:	8a 83       	std	Y+2, r24	; 0x02
    3cc2:	9b 83       	std	Y+3, r25	; 0x03
    3cc4:	c3 50       	subi	r28, 0x03	; 3
    3cc6:	d3 40       	sbci	r29, 0x03	; 3
    3cc8:	cd 5f       	subi	r28, 0xFD	; 253
    3cca:	dc 4f       	sbci	r29, 0xFC	; 252
    3ccc:	28 81       	ld	r18, Y
    3cce:	39 81       	ldd	r19, Y+1	; 0x01
    3cd0:	4a 81       	ldd	r20, Y+2	; 0x02
    3cd2:	5b 81       	ldd	r21, Y+3	; 0x03
    3cd4:	c3 50       	subi	r28, 0x03	; 3
    3cd6:	d3 40       	sbci	r29, 0x03	; 3
    3cd8:	c5 56       	subi	r28, 0x65	; 101
    3cda:	de 4f       	sbci	r29, 0xFE	; 254
    3cdc:	28 83       	st	Y, r18
    3cde:	39 83       	std	Y+1, r19	; 0x01
    3ce0:	4a 83       	std	Y+2, r20	; 0x02
    3ce2:	5b 83       	std	Y+3, r21	; 0x03
    3ce4:	cb 59       	subi	r28, 0x9B	; 155
    3ce6:	d1 40       	sbci	r29, 0x01	; 1

00003ce8 <.Loc.789>:
    3ce8:	8e 01       	movw	r16, r28
    3cea:	03 5c       	subi	r16, 0xC3	; 195
    3cec:	1e 4f       	sbci	r17, 0xFE	; 254
    3cee:	c5 56       	subi	r28, 0x65	; 101
    3cf0:	de 4f       	sbci	r29, 0xFE	; 254
    3cf2:	68 81       	ld	r22, Y
    3cf4:	79 81       	ldd	r23, Y+1	; 0x01
    3cf6:	8a 81       	ldd	r24, Y+2	; 0x02
    3cf8:	9b 81       	ldd	r25, Y+3	; 0x03
    3cfa:	cb 59       	subi	r28, 0x9B	; 155
    3cfc:	d1 40       	sbci	r29, 0x01	; 1
    3cfe:	0e 94 d6 1f 	call	0x3fac	; 0x3fac <__fixunssfsi>
    3d02:	c9 5f       	subi	r28, 0xF9	; 249
    3d04:	dc 4f       	sbci	r29, 0xFC	; 252
    3d06:	68 83       	st	Y, r22
    3d08:	79 83       	std	Y+1, r23	; 0x01
    3d0a:	8a 83       	std	Y+2, r24	; 0x02
    3d0c:	9b 83       	std	Y+3, r25	; 0x03
    3d0e:	c7 50       	subi	r28, 0x07	; 7
    3d10:	d3 40       	sbci	r29, 0x03	; 3
    3d12:	c9 5f       	subi	r28, 0xF9	; 249
    3d14:	dc 4f       	sbci	r29, 0xFC	; 252
    3d16:	e8 81       	ld	r30, Y
    3d18:	f9 81       	ldd	r31, Y+1	; 0x01
    3d1a:	c7 50       	subi	r28, 0x07	; 7
    3d1c:	d3 40       	sbci	r29, 0x03	; 3
    3d1e:	d8 01       	movw	r26, r16
    3d20:	11 96       	adiw	r26, 0x01	; 1
    3d22:	fc 93       	st	X, r31
    3d24:	ee 93       	st	-X, r30

00003d26 <.Loc.790>:
		while(__ticks)
    3d26:	26 c0       	rjmp	.+76     	; 0x3d74 <.L270>

00003d28 <.L271>:
    3d28:	ce 01       	movw	r24, r28
    3d2a:	81 5c       	subi	r24, 0xC1	; 193
    3d2c:	9e 4f       	sbci	r25, 0xFE	; 254
    3d2e:	20 e9       	ldi	r18, 0x90	; 144
    3d30:	31 e0       	ldi	r19, 0x01	; 1
    3d32:	dc 01       	movw	r26, r24
    3d34:	2d 93       	st	X+, r18
    3d36:	3c 93       	st	X, r19

00003d38 <.LBB280>:
    3d38:	ce 01       	movw	r24, r28
    3d3a:	81 5c       	subi	r24, 0xC1	; 193
    3d3c:	9e 4f       	sbci	r25, 0xFE	; 254
    3d3e:	fc 01       	movw	r30, r24
    3d40:	80 81       	ld	r24, Z
    3d42:	91 81       	ldd	r25, Z+1	; 0x01

00003d44 <.L1^B46>:
    3d44:	01 97       	sbiw	r24, 0x01	; 1
    3d46:	f1 f7       	brne	.-4      	; 0x3d44 <.L1^B46>
    3d48:	9e 01       	movw	r18, r28
    3d4a:	21 5c       	subi	r18, 0xC1	; 193
    3d4c:	3e 4f       	sbci	r19, 0xFE	; 254
    3d4e:	d9 01       	movw	r26, r18
    3d50:	8d 93       	st	X+, r24
    3d52:	9c 93       	st	X, r25

00003d54 <.Loc.792>:
	...

00003d56 <.LBE280>:
			__ticks --;
    3d56:	ce 01       	movw	r24, r28
    3d58:	83 5c       	subi	r24, 0xC3	; 195
    3d5a:	9e 4f       	sbci	r25, 0xFE	; 254
    3d5c:	9e 01       	movw	r18, r28
    3d5e:	23 5c       	subi	r18, 0xC3	; 195
    3d60:	3e 4f       	sbci	r19, 0xFE	; 254
    3d62:	f9 01       	movw	r30, r18
    3d64:	20 81       	ld	r18, Z
    3d66:	31 81       	ldd	r19, Z+1	; 0x01
    3d68:	21 50       	subi	r18, 0x01	; 1
    3d6a:	31 09       	sbc	r19, r1
    3d6c:	dc 01       	movw	r26, r24
    3d6e:	11 96       	adiw	r26, 0x01	; 1
    3d70:	3c 93       	st	X, r19
    3d72:	2e 93       	st	-X, r18

00003d74 <.L270>:
		while(__ticks)
    3d74:	ce 01       	movw	r24, r28
    3d76:	83 5c       	subi	r24, 0xC3	; 195
    3d78:	9e 4f       	sbci	r25, 0xFE	; 254
    3d7a:	fc 01       	movw	r30, r24
    3d7c:	80 81       	ld	r24, Z
    3d7e:	91 81       	ldd	r25, Z+1	; 0x01
    3d80:	00 97       	sbiw	r24, 0x00	; 0
    3d82:	91 f6       	brne	.-92     	; 0x3d28 <.L271>

00003d84 <.Loc.795>:
		return;
    3d84:	39 c0       	rjmp	.+114    	; 0x3df8 <.L272>

00003d86 <.L366>:
		__ticks = (uint16_t)__tmp;
    3d86:	8e 01       	movw	r16, r28
    3d88:	03 5c       	subi	r16, 0xC3	; 195
    3d8a:	1e 4f       	sbci	r17, 0xFE	; 254
    3d8c:	ce 01       	movw	r24, r28
    3d8e:	87 5c       	subi	r24, 0xC7	; 199
    3d90:	9e 4f       	sbci	r25, 0xFE	; 254
    3d92:	dc 01       	movw	r26, r24
    3d94:	6d 91       	ld	r22, X+
    3d96:	7d 91       	ld	r23, X+
    3d98:	8d 91       	ld	r24, X+
    3d9a:	9c 91       	ld	r25, X
    3d9c:	0e 94 d6 1f 	call	0x3fac	; 0x3fac <__fixunssfsi>
    3da0:	c5 5f       	subi	r28, 0xF5	; 245
    3da2:	dc 4f       	sbci	r29, 0xFC	; 252
    3da4:	68 83       	st	Y, r22
    3da6:	79 83       	std	Y+1, r23	; 0x01
    3da8:	8a 83       	std	Y+2, r24	; 0x02
    3daa:	9b 83       	std	Y+3, r25	; 0x03
    3dac:	cb 50       	subi	r28, 0x0B	; 11
    3dae:	d3 40       	sbci	r29, 0x03	; 3
    3db0:	c5 5f       	subi	r28, 0xF5	; 245
    3db2:	dc 4f       	sbci	r29, 0xFC	; 252
    3db4:	28 81       	ld	r18, Y
    3db6:	39 81       	ldd	r19, Y+1	; 0x01
    3db8:	cb 50       	subi	r28, 0x0B	; 11
    3dba:	d3 40       	sbci	r29, 0x03	; 3
    3dbc:	f8 01       	movw	r30, r16
    3dbe:	31 83       	std	Z+1, r19	; 0x01
    3dc0:	20 83       	st	Z, r18

00003dc2 <.L267>:
    3dc2:	ce 01       	movw	r24, r28
    3dc4:	8f 5b       	subi	r24, 0xBF	; 191
    3dc6:	9e 4f       	sbci	r25, 0xFE	; 254
    3dc8:	9e 01       	movw	r18, r28
    3dca:	23 5c       	subi	r18, 0xC3	; 195
    3dcc:	3e 4f       	sbci	r19, 0xFE	; 254
    3dce:	d9 01       	movw	r26, r18
    3dd0:	2d 91       	ld	r18, X+
    3dd2:	3c 91       	ld	r19, X
    3dd4:	fc 01       	movw	r30, r24
    3dd6:	31 83       	std	Z+1, r19	; 0x01
    3dd8:	20 83       	st	Z, r18

00003dda <.LBB282>:
    3dda:	ce 01       	movw	r24, r28
    3ddc:	8f 5b       	subi	r24, 0xBF	; 191
    3dde:	9e 4f       	sbci	r25, 0xFE	; 254
    3de0:	dc 01       	movw	r26, r24
    3de2:	8d 91       	ld	r24, X+
    3de4:	9c 91       	ld	r25, X

00003de6 <.L1^B47>:
    3de6:	01 97       	sbiw	r24, 0x01	; 1
    3de8:	f1 f7       	brne	.-4      	; 0x3de6 <.L1^B47>
    3dea:	9e 01       	movw	r18, r28
    3dec:	2f 5b       	subi	r18, 0xBF	; 191
    3dee:	3e 4f       	sbci	r19, 0xFE	; 254
    3df0:	f9 01       	movw	r30, r18
    3df2:	91 83       	std	Z+1, r25	; 0x01
    3df4:	80 83       	st	Z, r24

00003df6 <.Loc.798>:
	...

00003df8 <.L272>:
                    _delay_ms(1500);//Yeag replace this with a timer instead in the final release.
                    h_bridge_set_percentage(0);
    3df8:	80 e0       	ldi	r24, 0x00	; 0
    3dfa:	0e 94 bd 01 	call	0x37a	; 0x37a <h_bridge_set_percentage>

00003dfe <.Loc.800>:

                    PORTA = ~(1 << (RelaisMagnet));//Magneet laat los
    3dfe:	82 e2       	ldi	r24, 0x22	; 34
    3e00:	90 e0       	ldi	r25, 0x00	; 0

00003e02 <.Loc.801>:
    3e02:	2d ef       	ldi	r18, 0xFD	; 253
    3e04:	dc 01       	movw	r26, r24
    3e06:	2c 93       	st	X, r18

00003e08 <.Loc.802>:
                    PORTB ^= (1 << PB4); //Debug Light Magnet
    3e08:	85 e2       	ldi	r24, 0x25	; 37
    3e0a:	90 e0       	ldi	r25, 0x00	; 0
    3e0c:	fc 01       	movw	r30, r24
    3e0e:	30 81       	ld	r19, Z
    3e10:	85 e2       	ldi	r24, 0x25	; 37
    3e12:	90 e0       	ldi	r25, 0x00	; 0

00003e14 <.Loc.803>:
    3e14:	20 e1       	ldi	r18, 0x10	; 16
    3e16:	23 27       	eor	r18, r19
    3e18:	dc 01       	movw	r26, r24
    3e1a:	2c 93       	st	X, r18

00003e1c <.Loc.804>:

                    MenuLayer = 65;
    3e1c:	81 e4       	ldi	r24, 0x41	; 65
    3e1e:	90 e0       	ldi	r25, 0x00	; 0
    3e20:	90 93 01 02 	sts	0x0201, r25	; 0x800201 <MenuLayer+0x1>
    3e24:	80 93 00 02 	sts	0x0200, r24	; 0x800200 <MenuLayer>

00003e28 <.Loc.805>:
                }break;
    3e28:	4d c0       	rjmp	.+154    	; 0x3ec4 <.L59>

00003e2a <.L47>:


                case 65:{
                    h_bridge_set_percentage(-20);
    3e2a:	8c ee       	ldi	r24, 0xEC	; 236
    3e2c:	0e 94 bd 01 	call	0x37a	; 0x37a <h_bridge_set_percentage>

00003e30 <.Loc.807>:
                        if (PINC & (1 << Zend)) {
    3e30:	86 e2       	ldi	r24, 0x26	; 38
    3e32:	90 e0       	ldi	r25, 0x00	; 0
    3e34:	fc 01       	movw	r30, r24
    3e36:	80 81       	ld	r24, Z

00003e38 <.Loc.808>:
    3e38:	88 2f       	mov	r24, r24
    3e3a:	90 e0       	ldi	r25, 0x00	; 0
    3e3c:	84 70       	andi	r24, 0x04	; 4
    3e3e:	99 27       	eor	r25, r25

00003e40 <.Loc.809>:
    3e40:	00 97       	sbiw	r24, 0x00	; 0
    3e42:	09 f4       	brne	.+2      	; 0x3e46 <.Loc.810>

00003e44 <L0^A>:
    3e44:	3e c0       	rjmp	.+124    	; 0x3ec2 <.L370>

00003e46 <.Loc.810>:
                            h_bridge_set_percentage(0);
    3e46:	80 e0       	ldi	r24, 0x00	; 0
    3e48:	0e 94 bd 01 	call	0x37a	; 0x37a <h_bridge_set_percentage>

00003e4c <.Loc.811>:

                            PORTA = (1 << RelaisZ);//Switch Relais off of Z-as.
    3e4c:	82 e2       	ldi	r24, 0x22	; 34
    3e4e:	90 e0       	ldi	r25, 0x00	; 0

00003e50 <.Loc.812>:
    3e50:	20 e1       	ldi	r18, 0x10	; 16
    3e52:	dc 01       	movw	r26, r24
    3e54:	2c 93       	st	X, r18

00003e56 <.Loc.813>:
                            PORTB ^= (1 << PB5); //Debug Light Z-as
    3e56:	85 e2       	ldi	r24, 0x25	; 37
    3e58:	90 e0       	ldi	r25, 0x00	; 0
    3e5a:	fc 01       	movw	r30, r24
    3e5c:	30 81       	ld	r19, Z
    3e5e:	85 e2       	ldi	r24, 0x25	; 37
    3e60:	90 e0       	ldi	r25, 0x00	; 0

00003e62 <.Loc.814>:
    3e62:	20 e2       	ldi	r18, 0x20	; 32
    3e64:	23 27       	eor	r18, r19
    3e66:	dc 01       	movw	r26, r24
    3e68:	2c 93       	st	X, r18

00003e6a <.Loc.815>:
                            PORTA = (1 << (RelaisMagnet));//Magneet kleeft weer (energy saving measure)
    3e6a:	82 e2       	ldi	r24, 0x22	; 34
    3e6c:	90 e0       	ldi	r25, 0x00	; 0

00003e6e <.Loc.816>:
    3e6e:	22 e0       	ldi	r18, 0x02	; 2
    3e70:	fc 01       	movw	r30, r24
    3e72:	20 83       	st	Z, r18

00003e74 <.Loc.817>:
                            PORTB ^= (1 << PB4); //Debug Light Magnet
    3e74:	85 e2       	ldi	r24, 0x25	; 37
    3e76:	90 e0       	ldi	r25, 0x00	; 0
    3e78:	dc 01       	movw	r26, r24
    3e7a:	3c 91       	ld	r19, X
    3e7c:	85 e2       	ldi	r24, 0x25	; 37
    3e7e:	90 e0       	ldi	r25, 0x00	; 0

00003e80 <.Loc.818>:
    3e80:	20 e1       	ldi	r18, 0x10	; 16
    3e82:	23 27       	eor	r18, r19
    3e84:	fc 01       	movw	r30, r24
    3e86:	20 83       	st	Z, r18

00003e88 <.Loc.819>:
                            MenuLayer = 70;
    3e88:	86 e4       	ldi	r24, 0x46	; 70
    3e8a:	90 e0       	ldi	r25, 0x00	; 0
    3e8c:	90 93 01 02 	sts	0x0201, r25	; 0x800201 <MenuLayer+0x1>
    3e90:	80 93 00 02 	sts	0x0200, r24	; 0x800200 <MenuLayer>

00003e94 <.Loc.820>:
                            }
                }break;
    3e94:	16 c0       	rjmp	.+44     	; 0x3ec2 <.L370>

00003e96 <.L45>:


                case 70:{
                    MenuLayer = 10;
    3e96:	8a e0       	ldi	r24, 0x0A	; 10
    3e98:	90 e0       	ldi	r25, 0x00	; 0
    3e9a:	90 93 01 02 	sts	0x0201, r25	; 0x800201 <MenuLayer+0x1>
    3e9e:	80 93 00 02 	sts	0x0200, r24	; 0x800200 <MenuLayer>

00003ea2 <.Loc.822>:
                }break;
    3ea2:	10 c0       	rjmp	.+32     	; 0x3ec4 <.L59>

00003ea4 <.L44>:


                default:{
                   DisplayState='Err';
    3ea4:	82 e7       	ldi	r24, 0x72	; 114
    3ea6:	80 93 02 02 	sts	0x0202, r24	; 0x800202 <DisplayState>

00003eaa <.Loc.824>:
                   Refresh();
    3eaa:	0e 94 2e 03 	call	0x65c	; 0x65c <Refresh>

00003eae <.Loc.825>:
                }break;
    3eae:	0a c0       	rjmp	.+20     	; 0x3ec4 <.L59>

00003eb0 <.L367>:
                }break;
    3eb0:	00 00       	nop
    3eb2:	0c 94 bd 03 	jmp	0x77a	; 0x77a <.L274>

00003eb6 <.L368>:
                }break;
    3eb6:	00 00       	nop
    3eb8:	0c 94 bd 03 	jmp	0x77a	; 0x77a <.L274>

00003ebc <.L369>:
                }break;
    3ebc:	00 00       	nop
    3ebe:	0c 94 bd 03 	jmp	0x77a	; 0x77a <.L274>

00003ec2 <.L370>:
	...

00003ec4 <.L59>:
                if (PIND & (1 << ReSwitch))  //Noodstop Ding
    3ec4:	0c 94 bd 03 	jmp	0x77a	; 0x77a <.L274>

00003ec8 <__vector_42>:
    return 0;
}


ISR(TIMER4_COMPA_vect)
{
    3ec8:	1f 92       	push	r1
    3eca:	0f 92       	push	r0
    3ecc:	0f b6       	in	r0, 0x3f	; 63
    3ece:	0f 92       	push	r0
    3ed0:	11 24       	eor	r1, r1
    3ed2:	2f 93       	push	r18
    3ed4:	3f 93       	push	r19
    3ed6:	5f 93       	push	r21
    3ed8:	6f 93       	push	r22
    3eda:	7f 93       	push	r23
    3edc:	8f 93       	push	r24
    3ede:	9f 93       	push	r25
    3ee0:	af 93       	push	r26
    3ee2:	bf 93       	push	r27
    3ee4:	cf 93       	push	r28
    3ee6:	df 93       	push	r29
    3ee8:	cd b7       	in	r28, 0x3d	; 61
    3eea:	de b7       	in	r29, 0x3e	; 62

00003eec <.Loc.832>:

    {
    o=n%10;
    3eec:	80 91 0e 02 	lds	r24, 0x020E	; 0x80020e <n>
    3ef0:	90 91 0f 02 	lds	r25, 0x020F	; 0x80020f <n+0x1>
    3ef4:	2a e0       	ldi	r18, 0x0A	; 10
    3ef6:	30 e0       	ldi	r19, 0x00	; 0
    3ef8:	b9 01       	movw	r22, r18
    3efa:	0e 94 92 1f 	call	0x3f24	; 0x3f24 <__divmodhi4>

00003efe <.Loc.833>:
    3efe:	80 93 10 02 	sts	0x0210, r24	; 0x800210 <o>

00003f02 <.Loc.834>:
	//t=(n/10)%10;
    }


}
    3f02:	00 00       	nop
    3f04:	df 91       	pop	r29
    3f06:	cf 91       	pop	r28
    3f08:	bf 91       	pop	r27
    3f0a:	af 91       	pop	r26
    3f0c:	9f 91       	pop	r25
    3f0e:	8f 91       	pop	r24
    3f10:	7f 91       	pop	r23
    3f12:	6f 91       	pop	r22
    3f14:	5f 91       	pop	r21
    3f16:	3f 91       	pop	r19
    3f18:	2f 91       	pop	r18
    3f1a:	0f 90       	pop	r0
    3f1c:	0f be       	out	0x3f, r0	; 63
    3f1e:	0f 90       	pop	r0
    3f20:	1f 90       	pop	r1
    3f22:	18 95       	reti

00003f24 <__divmodhi4>:
    3f24:	97 fb       	bst	r25, 7

00003f26 <.Loc.1>:
    3f26:	07 2e       	mov	r0, r23

00003f28 <.Loc.2>:
    3f28:	16 f4       	brtc	.+4      	; 0x3f2e <.L^B1>

00003f2a <.Loc.3>:
    3f2a:	00 94       	com	r0

00003f2c <.Loc.4>:
    3f2c:	07 d0       	rcall	.+14     	; 0x3f3c <__divmodhi4_neg1>

00003f2e <.L^B1>:
    3f2e:	77 fd       	sbrc	r23, 7

00003f30 <.Loc.6>:
    3f30:	09 d0       	rcall	.+18     	; 0x3f44 <__divmodhi4_neg2>

00003f32 <.Loc.7>:
    3f32:	0e 94 bd 1f 	call	0x3f7a	; 0x3f7a <__udivmodhi4>

00003f36 <.Loc.8>:
    3f36:	07 fc       	sbrc	r0, 7

00003f38 <.Loc.9>:
    3f38:	05 d0       	rcall	.+10     	; 0x3f44 <__divmodhi4_neg2>

00003f3a <.Loc.10>:
    3f3a:	3e f4       	brtc	.+14     	; 0x3f4a <__divmodhi4_exit>

00003f3c <__divmodhi4_neg1>:
    3f3c:	90 95       	com	r25

00003f3e <.Loc.12>:
    3f3e:	81 95       	neg	r24

00003f40 <.Loc.13>:
    3f40:	9f 4f       	sbci	r25, 0xFF	; 255

00003f42 <.Loc.14>:
    3f42:	08 95       	ret

00003f44 <__divmodhi4_neg2>:
    3f44:	70 95       	com	r23

00003f46 <.Loc.16>:
    3f46:	61 95       	neg	r22

00003f48 <.Loc.17>:
    3f48:	7f 4f       	sbci	r23, 0xFF	; 255

00003f4a <__divmodhi4_exit>:
    3f4a:	08 95       	ret

00003f4c <__tablejump2__>:
    3f4c:	ee 0f       	add	r30, r30

00003f4e <.Loc.1>:
    3f4e:	ff 1f       	adc	r31, r31

00003f50 <.Loc.2>:
    3f50:	88 1f       	adc	r24, r24

00003f52 <.Loc.3>:
    3f52:	8b bf       	out	0x3b, r24	; 59

00003f54 <.Loc.4>:
    3f54:	07 90       	elpm	r0, Z+

00003f56 <.Loc.5>:
    3f56:	f6 91       	elpm	r31, Z

00003f58 <.Loc.6>:
    3f58:	e0 2d       	mov	r30, r0

00003f5a <.Loc.7>:
    3f5a:	19 94       	eijmp

00003f5c <__umulhisi3>:
    3f5c:	a2 9f       	mul	r26, r18

00003f5e <.Loc.1>:
    3f5e:	b0 01       	movw	r22, r0

00003f60 <.Loc.2>:
    3f60:	b3 9f       	mul	r27, r19

00003f62 <.Loc.3>:
    3f62:	c0 01       	movw	r24, r0

00003f64 <.Loc.4>:
    3f64:	a3 9f       	mul	r26, r19

00003f66 <.Loc.5>:
    3f66:	70 0d       	add	r23, r0

00003f68 <.Loc.6>:
    3f68:	81 1d       	adc	r24, r1

00003f6a <.Loc.7>:
    3f6a:	11 24       	eor	r1, r1

00003f6c <.Loc.8>:
    3f6c:	91 1d       	adc	r25, r1

00003f6e <.Loc.9>:
    3f6e:	b2 9f       	mul	r27, r18

00003f70 <.Loc.10>:
    3f70:	70 0d       	add	r23, r0

00003f72 <.Loc.11>:
    3f72:	81 1d       	adc	r24, r1

00003f74 <.Loc.12>:
    3f74:	11 24       	eor	r1, r1

00003f76 <.Loc.13>:
    3f76:	91 1d       	adc	r25, r1

00003f78 <.Loc.14>:
    3f78:	08 95       	ret

00003f7a <__udivmodhi4>:
    3f7a:	aa 1b       	sub	r26, r26

00003f7c <.Loc.1>:
    3f7c:	bb 1b       	sub	r27, r27

00003f7e <.Loc.2>:
    3f7e:	51 e1       	ldi	r21, 0x11	; 17

00003f80 <.Loc.3>:
    3f80:	07 c0       	rjmp	.+14     	; 0x3f90 <__udivmodhi4_ep>

00003f82 <__udivmodhi4_loop>:
    3f82:	aa 1f       	adc	r26, r26

00003f84 <.Loc.5>:
    3f84:	bb 1f       	adc	r27, r27

00003f86 <.Loc.6>:
    3f86:	a6 17       	cp	r26, r22

00003f88 <.Loc.7>:
    3f88:	b7 07       	cpc	r27, r23

00003f8a <.Loc.8>:
    3f8a:	10 f0       	brcs	.+4      	; 0x3f90 <__udivmodhi4_ep>

00003f8c <.Loc.9>:
    3f8c:	a6 1b       	sub	r26, r22

00003f8e <.Loc.10>:
    3f8e:	b7 0b       	sbc	r27, r23

00003f90 <__udivmodhi4_ep>:
    3f90:	88 1f       	adc	r24, r24

00003f92 <.Loc.12>:
    3f92:	99 1f       	adc	r25, r25

00003f94 <.Loc.13>:
    3f94:	5a 95       	dec	r21

00003f96 <.Loc.14>:
    3f96:	a9 f7       	brne	.-22     	; 0x3f82 <__udivmodhi4_loop>

00003f98 <.Loc.15>:
    3f98:	80 95       	com	r24

00003f9a <.Loc.16>:
    3f9a:	90 95       	com	r25

00003f9c <.Loc.17>:
    3f9c:	bc 01       	movw	r22, r24

00003f9e <.Loc.18>:
    3f9e:	cd 01       	movw	r24, r26

00003fa0 <.Loc.19>:
    3fa0:	08 95       	ret

00003fa2 <__cmpsf2>:
    3fa2:	0e 94 05 20 	call	0x400a	; 0x400a <__fp_cmp>
    3fa6:	08 f4       	brcc	.+2      	; 0x3faa <.L1^B1>
    3fa8:	81 e0       	ldi	r24, 0x01	; 1

00003faa <.L1^B1>:
    3faa:	08 95       	ret

00003fac <__fixunssfsi>:
    3fac:	0e 94 31 20 	call	0x4062	; 0x4062 <__fp_splitA>
    3fb0:	88 f0       	brcs	.+34     	; 0x3fd4 <.L_err>
    3fb2:	9f 57       	subi	r25, 0x7F	; 127
    3fb4:	98 f0       	brcs	.+38     	; 0x3fdc <.L_zr>
    3fb6:	b9 2f       	mov	r27, r25
    3fb8:	99 27       	eor	r25, r25
    3fba:	b7 51       	subi	r27, 0x17	; 23
    3fbc:	b0 f0       	brcs	.+44     	; 0x3fea <.L4^B1>
    3fbe:	e1 f0       	breq	.+56     	; 0x3ff8 <.L_sign>

00003fc0 <.L1^B1>:
    3fc0:	66 0f       	add	r22, r22
    3fc2:	77 1f       	adc	r23, r23
    3fc4:	88 1f       	adc	r24, r24
    3fc6:	99 1f       	adc	r25, r25
    3fc8:	1a f0       	brmi	.+6      	; 0x3fd0 <.L2^B1>
    3fca:	ba 95       	dec	r27
    3fcc:	c9 f7       	brne	.-14     	; 0x3fc0 <.L1^B1>
    3fce:	14 c0       	rjmp	.+40     	; 0x3ff8 <.L_sign>

00003fd0 <.L2^B1>:
    3fd0:	b1 30       	cpi	r27, 0x01	; 1
    3fd2:	91 f0       	breq	.+36     	; 0x3ff8 <.L_sign>

00003fd4 <.L_err>:
    3fd4:	0e 94 4b 20 	call	0x4096	; 0x4096 <__fp_zero>
    3fd8:	b1 e0       	ldi	r27, 0x01	; 1
    3fda:	08 95       	ret

00003fdc <.L_zr>:
    3fdc:	0c 94 4b 20 	jmp	0x4096	; 0x4096 <__fp_zero>

00003fe0 <.L3^B1>:
    3fe0:	67 2f       	mov	r22, r23
    3fe2:	78 2f       	mov	r23, r24
    3fe4:	88 27       	eor	r24, r24
    3fe6:	b8 5f       	subi	r27, 0xF8	; 248
    3fe8:	39 f0       	breq	.+14     	; 0x3ff8 <.L_sign>

00003fea <.L4^B1>:
    3fea:	b9 3f       	cpi	r27, 0xF9	; 249
    3fec:	cc f3       	brlt	.-14     	; 0x3fe0 <.L3^B1>

00003fee <.L5^B1>:
    3fee:	86 95       	lsr	r24
    3ff0:	77 95       	ror	r23
    3ff2:	67 95       	ror	r22
    3ff4:	b3 95       	inc	r27
    3ff6:	d9 f7       	brne	.-10     	; 0x3fee <.L5^B1>

00003ff8 <.L_sign>:
    3ff8:	3e f4       	brtc	.+14     	; 0x4008 <.L6^B1>
    3ffa:	90 95       	com	r25
    3ffc:	80 95       	com	r24
    3ffe:	70 95       	com	r23
    4000:	61 95       	neg	r22
    4002:	7f 4f       	sbci	r23, 0xFF	; 255
    4004:	8f 4f       	sbci	r24, 0xFF	; 255
    4006:	9f 4f       	sbci	r25, 0xFF	; 255

00004008 <.L6^B1>:
    4008:	08 95       	ret

0000400a <__fp_cmp>:
    400a:	99 0f       	add	r25, r25
    400c:	00 08       	sbc	r0, r0
    400e:	55 0f       	add	r21, r21
    4010:	aa 0b       	sbc	r26, r26
    4012:	e0 e8       	ldi	r30, 0x80	; 128
    4014:	fe ef       	ldi	r31, 0xFE	; 254
    4016:	16 16       	cp	r1, r22
    4018:	17 06       	cpc	r1, r23
    401a:	e8 07       	cpc	r30, r24
    401c:	f9 07       	cpc	r31, r25
    401e:	c0 f0       	brcs	.+48     	; 0x4050 <.L9^B1>
    4020:	12 16       	cp	r1, r18
    4022:	13 06       	cpc	r1, r19
    4024:	e4 07       	cpc	r30, r20
    4026:	f5 07       	cpc	r31, r21
    4028:	98 f0       	brcs	.+38     	; 0x4050 <.L9^B1>
    402a:	62 1b       	sub	r22, r18
    402c:	73 0b       	sbc	r23, r19
    402e:	84 0b       	sbc	r24, r20
    4030:	95 0b       	sbc	r25, r21
    4032:	39 f4       	brne	.+14     	; 0x4042 <.L1^B1>
    4034:	0a 26       	eor	r0, r26
    4036:	61 f0       	breq	.+24     	; 0x4050 <.L9^B1>
    4038:	23 2b       	or	r18, r19
    403a:	24 2b       	or	r18, r20
    403c:	25 2b       	or	r18, r21
    403e:	21 f4       	brne	.+8      	; 0x4048 <.L2^B1>
    4040:	08 95       	ret

00004042 <.L1^B1>:
    4042:	0a 26       	eor	r0, r26
    4044:	09 f4       	brne	.+2      	; 0x4048 <.L2^B1>
    4046:	a1 40       	sbci	r26, 0x01	; 1

00004048 <.L2^B1>:
    4048:	a6 95       	lsr	r26
    404a:	8f ef       	ldi	r24, 0xFF	; 255
    404c:	81 1d       	adc	r24, r1
    404e:	81 1d       	adc	r24, r1

00004050 <.L9^B1>:
    4050:	08 95       	ret

00004052 <__fp_split3>:
    4052:	57 fd       	sbrc	r21, 7
    4054:	90 58       	subi	r25, 0x80	; 128
    4056:	44 0f       	add	r20, r20
    4058:	55 1f       	adc	r21, r21
    405a:	59 f0       	breq	.+22     	; 0x4072 <.L4^B1>
    405c:	5f 3f       	cpi	r21, 0xFF	; 255
    405e:	71 f0       	breq	.+28     	; 0x407c <.L5^B1>

00004060 <.L1^B1>:
    4060:	47 95       	ror	r20

00004062 <__fp_splitA>:
    4062:	88 0f       	add	r24, r24
    4064:	97 fb       	bst	r25, 7
    4066:	99 1f       	adc	r25, r25
    4068:	61 f0       	breq	.+24     	; 0x4082 <.L6^B1>
    406a:	9f 3f       	cpi	r25, 0xFF	; 255
    406c:	79 f0       	breq	.+30     	; 0x408c <.L7^B1>

0000406e <.L3^B1>:
    406e:	87 95       	ror	r24
    4070:	08 95       	ret

00004072 <.L4^B1>:
    4072:	12 16       	cp	r1, r18
    4074:	13 06       	cpc	r1, r19
    4076:	14 06       	cpc	r1, r20
    4078:	55 1f       	adc	r21, r21
    407a:	f2 cf       	rjmp	.-28     	; 0x4060 <.L1^B1>

0000407c <.L5^B1>:
    407c:	46 95       	lsr	r20
    407e:	f1 df       	rcall	.-30     	; 0x4062 <__fp_splitA>
    4080:	08 c0       	rjmp	.+16     	; 0x4092 <.L8^B1>

00004082 <.L6^B1>:
    4082:	16 16       	cp	r1, r22
    4084:	17 06       	cpc	r1, r23
    4086:	18 06       	cpc	r1, r24
    4088:	99 1f       	adc	r25, r25
    408a:	f1 cf       	rjmp	.-30     	; 0x406e <.L3^B1>

0000408c <.L7^B1>:
    408c:	86 95       	lsr	r24
    408e:	71 05       	cpc	r23, r1
    4090:	61 05       	cpc	r22, r1

00004092 <.L8^B1>:
    4092:	08 94       	sec
    4094:	08 95       	ret

00004096 <__fp_zero>:
    4096:	e8 94       	clt

00004098 <__fp_szero>:
    4098:	bb 27       	eor	r27, r27
    409a:	66 27       	eor	r22, r22
    409c:	77 27       	eor	r23, r23
    409e:	cb 01       	movw	r24, r22
    40a0:	97 f9       	bld	r25, 7
    40a2:	08 95       	ret

000040a4 <__gesf2>:
    40a4:	0e 94 05 20 	call	0x400a	; 0x400a <__fp_cmp>
    40a8:	08 f4       	brcc	.+2      	; 0x40ac <.L1^B1>
    40aa:	8f ef       	ldi	r24, 0xFF	; 255

000040ac <.L1^B1>:
    40ac:	08 95       	ret

000040ae <__mulsf3>:
    40ae:	0e 94 6a 20 	call	0x40d4	; 0x40d4 <__mulsf3x>
    40b2:	0c 94 db 20 	jmp	0x41b6	; 0x41b6 <__fp_round>

000040b6 <.L^B1>:
    40b6:	0e 94 cd 20 	call	0x419a	; 0x419a <__fp_pscA>
    40ba:	38 f0       	brcs	.+14     	; 0x40ca <.L1^B1>
    40bc:	0e 94 d4 20 	call	0x41a8	; 0x41a8 <__fp_pscB>
    40c0:	20 f0       	brcs	.+8      	; 0x40ca <.L1^B1>
    40c2:	95 23       	and	r25, r21
    40c4:	11 f0       	breq	.+4      	; 0x40ca <.L1^B1>
    40c6:	0c 94 c4 20 	jmp	0x4188	; 0x4188 <__fp_inf>

000040ca <.L1^B1>:
    40ca:	0c 94 ca 20 	jmp	0x4194	; 0x4194 <__fp_nan>

000040ce <.L2^B1>:
    40ce:	11 24       	eor	r1, r1
    40d0:	0c 94 4c 20 	jmp	0x4098	; 0x4098 <__fp_szero>

000040d4 <__mulsf3x>:
    40d4:	0e 94 29 20 	call	0x4052	; 0x4052 <__fp_split3>
    40d8:	70 f3       	brcs	.-36     	; 0x40b6 <.L^B1>

000040da <__mulsf3_pse>:
    40da:	95 9f       	mul	r25, r21
    40dc:	c1 f3       	breq	.-16     	; 0x40ce <.L2^B1>
    40de:	95 0f       	add	r25, r21
    40e0:	50 e0       	ldi	r21, 0x00	; 0
    40e2:	55 1f       	adc	r21, r21
    40e4:	62 9f       	mul	r22, r18
    40e6:	f0 01       	movw	r30, r0
    40e8:	72 9f       	mul	r23, r18
    40ea:	bb 27       	eor	r27, r27
    40ec:	f0 0d       	add	r31, r0
    40ee:	b1 1d       	adc	r27, r1
    40f0:	63 9f       	mul	r22, r19
    40f2:	aa 27       	eor	r26, r26
    40f4:	f0 0d       	add	r31, r0
    40f6:	b1 1d       	adc	r27, r1
    40f8:	aa 1f       	adc	r26, r26
    40fa:	64 9f       	mul	r22, r20
    40fc:	66 27       	eor	r22, r22
    40fe:	b0 0d       	add	r27, r0
    4100:	a1 1d       	adc	r26, r1
    4102:	66 1f       	adc	r22, r22
    4104:	82 9f       	mul	r24, r18
    4106:	22 27       	eor	r18, r18
    4108:	b0 0d       	add	r27, r0
    410a:	a1 1d       	adc	r26, r1
    410c:	62 1f       	adc	r22, r18
    410e:	73 9f       	mul	r23, r19
    4110:	b0 0d       	add	r27, r0
    4112:	a1 1d       	adc	r26, r1
    4114:	62 1f       	adc	r22, r18
    4116:	83 9f       	mul	r24, r19
    4118:	a0 0d       	add	r26, r0
    411a:	61 1d       	adc	r22, r1
    411c:	22 1f       	adc	r18, r18
    411e:	74 9f       	mul	r23, r20
    4120:	33 27       	eor	r19, r19
    4122:	a0 0d       	add	r26, r0
    4124:	61 1d       	adc	r22, r1
    4126:	23 1f       	adc	r18, r19
    4128:	84 9f       	mul	r24, r20
    412a:	60 0d       	add	r22, r0
    412c:	21 1d       	adc	r18, r1
    412e:	82 2f       	mov	r24, r18
    4130:	76 2f       	mov	r23, r22
    4132:	6a 2f       	mov	r22, r26
    4134:	11 24       	eor	r1, r1
    4136:	9f 57       	subi	r25, 0x7F	; 127
    4138:	50 40       	sbci	r21, 0x00	; 0
    413a:	9a f0       	brmi	.+38     	; 0x4162 <.L13^B1>
    413c:	f1 f0       	breq	.+60     	; 0x417a <.L15^B1>

0000413e <.L10^B1>:
    413e:	88 23       	and	r24, r24
    4140:	4a f0       	brmi	.+18     	; 0x4154 <.L11^B1>
    4142:	ee 0f       	add	r30, r30
    4144:	ff 1f       	adc	r31, r31
    4146:	bb 1f       	adc	r27, r27
    4148:	66 1f       	adc	r22, r22
    414a:	77 1f       	adc	r23, r23
    414c:	88 1f       	adc	r24, r24
    414e:	91 50       	subi	r25, 0x01	; 1
    4150:	50 40       	sbci	r21, 0x00	; 0
    4152:	a9 f7       	brne	.-22     	; 0x413e <.L10^B1>

00004154 <.L11^B1>:
    4154:	9e 3f       	cpi	r25, 0xFE	; 254
    4156:	51 05       	cpc	r21, r1
    4158:	80 f0       	brcs	.+32     	; 0x417a <.L15^B1>
    415a:	0c 94 c4 20 	jmp	0x4188	; 0x4188 <__fp_inf>

0000415e <.L12^B1>:
    415e:	0c 94 4c 20 	jmp	0x4098	; 0x4098 <__fp_szero>

00004162 <.L13^B1>:
    4162:	5f 3f       	cpi	r21, 0xFF	; 255
    4164:	e4 f3       	brlt	.-8      	; 0x415e <.L12^B1>
    4166:	98 3e       	cpi	r25, 0xE8	; 232
    4168:	d4 f3       	brlt	.-12     	; 0x415e <.L12^B1>

0000416a <.L14^B1>:
    416a:	86 95       	lsr	r24
    416c:	77 95       	ror	r23
    416e:	67 95       	ror	r22
    4170:	b7 95       	ror	r27
    4172:	f7 95       	ror	r31
    4174:	e7 95       	ror	r30
    4176:	9f 5f       	subi	r25, 0xFF	; 255
    4178:	c1 f7       	brne	.-16     	; 0x416a <.L14^B1>

0000417a <.L15^B1>:
    417a:	fe 2b       	or	r31, r30
    417c:	88 0f       	add	r24, r24
    417e:	91 1d       	adc	r25, r1
    4180:	96 95       	lsr	r25
    4182:	87 95       	ror	r24
    4184:	97 f9       	bld	r25, 7
    4186:	08 95       	ret

00004188 <__fp_inf>:
    4188:	97 f9       	bld	r25, 7
    418a:	9f 67       	ori	r25, 0x7F	; 127
    418c:	80 e8       	ldi	r24, 0x80	; 128
    418e:	70 e0       	ldi	r23, 0x00	; 0
    4190:	60 e0       	ldi	r22, 0x00	; 0
    4192:	08 95       	ret

00004194 <__fp_nan>:
    4194:	9f ef       	ldi	r25, 0xFF	; 255
    4196:	80 ec       	ldi	r24, 0xC0	; 192
    4198:	08 95       	ret

0000419a <__fp_pscA>:
    419a:	00 24       	eor	r0, r0
    419c:	0a 94       	dec	r0
    419e:	16 16       	cp	r1, r22
    41a0:	17 06       	cpc	r1, r23
    41a2:	18 06       	cpc	r1, r24
    41a4:	09 06       	cpc	r0, r25
    41a6:	08 95       	ret

000041a8 <__fp_pscB>:
    41a8:	00 24       	eor	r0, r0
    41aa:	0a 94       	dec	r0
    41ac:	12 16       	cp	r1, r18
    41ae:	13 06       	cpc	r1, r19
    41b0:	14 06       	cpc	r1, r20
    41b2:	05 06       	cpc	r0, r21
    41b4:	08 95       	ret

000041b6 <__fp_round>:
    41b6:	09 2e       	mov	r0, r25
    41b8:	03 94       	inc	r0
    41ba:	00 0c       	add	r0, r0
    41bc:	11 f4       	brne	.+4      	; 0x41c2 <.L1^B1>
    41be:	88 23       	and	r24, r24
    41c0:	52 f0       	brmi	.+20     	; 0x41d6 <.L3^B1>

000041c2 <.L1^B1>:
    41c2:	bb 0f       	add	r27, r27
    41c4:	40 f4       	brcc	.+16     	; 0x41d6 <.L3^B1>
    41c6:	bf 2b       	or	r27, r31
    41c8:	11 f4       	brne	.+4      	; 0x41ce <.L2^B1>
    41ca:	60 ff       	sbrs	r22, 0
    41cc:	04 c0       	rjmp	.+8      	; 0x41d6 <.L3^B1>

000041ce <.L2^B1>:
    41ce:	6f 5f       	subi	r22, 0xFF	; 255
    41d0:	7f 4f       	sbci	r23, 0xFF	; 255
    41d2:	8f 4f       	sbci	r24, 0xFF	; 255
    41d4:	9f 4f       	sbci	r25, 0xFF	; 255

000041d6 <.L3^B1>:
    41d6:	08 95       	ret

000041d8 <_exit>:
    41d8:	f8 94       	cli

000041da <__stop_program>:
    41da:	ff cf       	rjmp	.-2      	; 0x41da <__stop_program>

000041dc <L0^A>:
    41dc:	ab 04       	cpc	r10, r11
    41de:	06 05       	cpc	r16, r6
    41e0:	4e 05       	cpc	r20, r14
    41e2:	52 1f       	adc	r21, r18
    41e4:	52 1f       	adc	r21, r18
    41e6:	52 1f       	adc	r21, r18
    41e8:	52 1f       	adc	r21, r18
    41ea:	52 1f       	adc	r21, r18
    41ec:	52 1f       	adc	r21, r18
    41ee:	52 1f       	adc	r21, r18
    41f0:	98 05       	cpc	r25, r8
    41f2:	52 1f       	adc	r21, r18
    41f4:	52 1f       	adc	r21, r18
    41f6:	52 1f       	adc	r21, r18
    41f8:	52 1f       	adc	r21, r18
    41fa:	df 0d       	add	r29, r15
    41fc:	52 1f       	adc	r21, r18
    41fe:	52 1f       	adc	r21, r18
    4200:	52 1f       	adc	r21, r18
    4202:	52 1f       	adc	r21, r18
    4204:	37 17       	cp	r19, r23
    4206:	52 1f       	adc	r21, r18
    4208:	52 1f       	adc	r21, r18
    420a:	52 1f       	adc	r21, r18
    420c:	52 1f       	adc	r21, r18
    420e:	80 18       	sub	r8, r0
    4210:	52 1f       	adc	r21, r18
    4212:	52 1f       	adc	r21, r18
    4214:	52 1f       	adc	r21, r18
    4216:	52 1f       	adc	r21, r18
    4218:	ab 18       	sub	r10, r11
    421a:	52 1f       	adc	r21, r18
    421c:	52 1f       	adc	r21, r18
    421e:	52 1f       	adc	r21, r18
    4220:	52 1f       	adc	r21, r18
    4222:	52 1f       	adc	r21, r18
    4224:	52 1f       	adc	r21, r18
    4226:	52 1f       	adc	r21, r18
    4228:	52 1f       	adc	r21, r18
    422a:	52 1f       	adc	r21, r18
    422c:	46 1b       	sub	r20, r22
    422e:	52 1f       	adc	r21, r18
    4230:	52 1f       	adc	r21, r18
    4232:	52 1f       	adc	r21, r18
    4234:	52 1f       	adc	r21, r18
    4236:	52 1f       	adc	r21, r18
    4238:	52 1f       	adc	r21, r18
    423a:	52 1f       	adc	r21, r18
    423c:	52 1f       	adc	r21, r18
    423e:	52 1f       	adc	r21, r18
    4240:	dd 1d       	adc	r29, r13
    4242:	52 1f       	adc	r21, r18
    4244:	52 1f       	adc	r21, r18
    4246:	52 1f       	adc	r21, r18
    4248:	52 1f       	adc	r21, r18
    424a:	15 1f       	adc	r17, r21
    424c:	52 1f       	adc	r21, r18
    424e:	52 1f       	adc	r21, r18
    4250:	52 1f       	adc	r21, r18
    4252:	52 1f       	adc	r21, r18
    4254:	4b 1f       	adc	r20, r27
