
bin\Debug\Portaalkraan_Finale.elf:     file format elf32-avr

Sections:
Idx Name          Size      VMA       LMA       File off  Algn
  0 .data         00000012  00800200  000041d0  00004284  2**0
                  CONTENTS, ALLOC, LOAD, DATA
  1 .text         000041d0  00000000  00000000  000000b4  2**1
                  CONTENTS, ALLOC, LOAD, READONLY, CODE
  2 .bss          0000000e  00800212  00800212  00004296  2**0
                  ALLOC
  3 .fuse         00000003  00820000  00820000  00004296  2**0
                  CONTENTS, ALLOC, LOAD, DATA
  4 .comment      00000012  00000000  00000000  00004299  2**0
                  CONTENTS, READONLY
  5 .note.gnu.avr.deviceinfo 00000040  00000000  00000000  000042ac  2**2
                  CONTENTS, READONLY, OCTETS
  6 .debug_aranges 00000118  00000000  00000000  000042f0  2**3
                  CONTENTS, READONLY, DEBUGGING, OCTETS
  7 .debug_info   00001988  00000000  00000000  00004408  2**0
                  CONTENTS, READONLY, DEBUGGING, OCTETS
  8 .debug_abbrev 00000e32  00000000  00000000  00005d90  2**0
                  CONTENTS, READONLY, DEBUGGING, OCTETS
  9 .debug_line   00001fb7  00000000  00000000  00006bc2  2**0
                  CONTENTS, READONLY, DEBUGGING, OCTETS
 10 .debug_frame  00000234  00000000  00000000  00008b7c  2**2
                  CONTENTS, READONLY, DEBUGGING, OCTETS
 11 .debug_str    00000652  00000000  00000000  00008db0  2**0
                  CONTENTS, READONLY, DEBUGGING, OCTETS
 12 .debug_line_str 00000175  00000000  00000000  00009402  2**0
                  CONTENTS, READONLY, DEBUGGING, OCTETS

Disassembly of section .text:

00000000 <__vectors>:
       0:	0c 94 8c 00 	jmp	0x118	; 0x118 <__ctors_end>
       4:	0c 94 ad 00 	jmp	0x15a	; 0x15a <__bad_interrupt>
       8:	0c 94 ad 00 	jmp	0x15a	; 0x15a <__bad_interrupt>
       c:	0c 94 ad 00 	jmp	0x15a	; 0x15a <__bad_interrupt>
      10:	0c 94 ad 00 	jmp	0x15a	; 0x15a <__bad_interrupt>
      14:	0c 94 ad 00 	jmp	0x15a	; 0x15a <__bad_interrupt>
      18:	0c 94 ad 00 	jmp	0x15a	; 0x15a <__bad_interrupt>
      1c:	0c 94 ad 00 	jmp	0x15a	; 0x15a <__bad_interrupt>
      20:	0c 94 ad 00 	jmp	0x15a	; 0x15a <__bad_interrupt>
      24:	0c 94 ad 00 	jmp	0x15a	; 0x15a <__bad_interrupt>
      28:	0c 94 ad 00 	jmp	0x15a	; 0x15a <__bad_interrupt>
      2c:	0c 94 ad 00 	jmp	0x15a	; 0x15a <__bad_interrupt>
      30:	0c 94 ad 00 	jmp	0x15a	; 0x15a <__bad_interrupt>
      34:	0c 94 ad 00 	jmp	0x15a	; 0x15a <__bad_interrupt>
      38:	0c 94 ad 00 	jmp	0x15a	; 0x15a <__bad_interrupt>
      3c:	0c 94 ad 00 	jmp	0x15a	; 0x15a <__bad_interrupt>
      40:	0c 94 ad 00 	jmp	0x15a	; 0x15a <__bad_interrupt>
      44:	0c 94 ad 00 	jmp	0x15a	; 0x15a <__bad_interrupt>
      48:	0c 94 ad 00 	jmp	0x15a	; 0x15a <__bad_interrupt>
      4c:	0c 94 ad 00 	jmp	0x15a	; 0x15a <__bad_interrupt>
      50:	0c 94 ad 00 	jmp	0x15a	; 0x15a <__bad_interrupt>
      54:	0c 94 1e 01 	jmp	0x23c	; 0x23c <__vector_21>
      58:	0c 94 4c 01 	jmp	0x298	; 0x298 <__vector_22>
      5c:	0c 94 af 00 	jmp	0x15e	; 0x15e <__vector_23>
      60:	0c 94 ad 00 	jmp	0x15a	; 0x15a <__bad_interrupt>
      64:	0c 94 ad 00 	jmp	0x15a	; 0x15a <__bad_interrupt>
      68:	0c 94 ad 00 	jmp	0x15a	; 0x15a <__bad_interrupt>
      6c:	0c 94 ad 00 	jmp	0x15a	; 0x15a <__bad_interrupt>
      70:	0c 94 ad 00 	jmp	0x15a	; 0x15a <__bad_interrupt>
      74:	0c 94 ad 00 	jmp	0x15a	; 0x15a <__bad_interrupt>
      78:	0c 94 ad 00 	jmp	0x15a	; 0x15a <__bad_interrupt>
      7c:	0c 94 ad 00 	jmp	0x15a	; 0x15a <__bad_interrupt>
      80:	0c 94 ad 00 	jmp	0x15a	; 0x15a <__bad_interrupt>
      84:	0c 94 ad 00 	jmp	0x15a	; 0x15a <__bad_interrupt>
      88:	0c 94 ad 00 	jmp	0x15a	; 0x15a <__bad_interrupt>
      8c:	0c 94 ad 00 	jmp	0x15a	; 0x15a <__bad_interrupt>
      90:	0c 94 ad 00 	jmp	0x15a	; 0x15a <__bad_interrupt>
      94:	0c 94 ad 00 	jmp	0x15a	; 0x15a <__bad_interrupt>
      98:	0c 94 ad 00 	jmp	0x15a	; 0x15a <__bad_interrupt>
      9c:	0c 94 ad 00 	jmp	0x15a	; 0x15a <__bad_interrupt>
      a0:	0c 94 ad 00 	jmp	0x15a	; 0x15a <__bad_interrupt>
      a4:	0c 94 ad 00 	jmp	0x15a	; 0x15a <__bad_interrupt>
      a8:	0c 94 21 1f 	jmp	0x3e42	; 0x3e42 <__vector_42>
      ac:	0c 94 ad 00 	jmp	0x15a	; 0x15a <__bad_interrupt>
      b0:	0c 94 ad 00 	jmp	0x15a	; 0x15a <__bad_interrupt>
      b4:	0c 94 ad 00 	jmp	0x15a	; 0x15a <__bad_interrupt>
      b8:	0c 94 ad 00 	jmp	0x15a	; 0x15a <__bad_interrupt>
      bc:	0c 94 ad 00 	jmp	0x15a	; 0x15a <__bad_interrupt>
      c0:	0c 94 ad 00 	jmp	0x15a	; 0x15a <__bad_interrupt>
      c4:	0c 94 ad 00 	jmp	0x15a	; 0x15a <__bad_interrupt>
      c8:	0c 94 ad 00 	jmp	0x15a	; 0x15a <__bad_interrupt>
      cc:	0c 94 ad 00 	jmp	0x15a	; 0x15a <__bad_interrupt>
      d0:	0c 94 ad 00 	jmp	0x15a	; 0x15a <__bad_interrupt>
      d4:	0c 94 ad 00 	jmp	0x15a	; 0x15a <__bad_interrupt>
      d8:	0c 94 ad 00 	jmp	0x15a	; 0x15a <__bad_interrupt>
      dc:	0c 94 ad 00 	jmp	0x15a	; 0x15a <__bad_interrupt>
      e0:	0c 94 ad 00 	jmp	0x15a	; 0x15a <__bad_interrupt>

000000e4 <__trampolines_start>:
      e4:	0c 94 f7 04 	jmp	0x9ee	; 0x9ee <.L56>
      e8:	0c 94 be 0d 	jmp	0x1b7c	; 0x1b7c <.L53>
      ec:	0c 94 75 18 	jmp	0x30ea	; 0x30ea <.L50>
      f0:	0c 94 a8 04 	jmp	0x950	; 0x950 <.L57>
      f4:	0c 94 bb 03 	jmp	0x776	; 0x776 <.L273>
      f8:	0c 94 16 17 	jmp	0x2e2c	; 0x2e2c <.L52>
      fc:	0c 94 4e 18 	jmp	0x309c	; 0x309c <.L51>
     100:	0c 94 0b 1f 	jmp	0x3e16	; 0x3e16 <.L45>
     104:	0c 94 9e 1d 	jmp	0x3b3c	; 0x3b3c <.L48>
     108:	0c 94 77 05 	jmp	0xaee	; 0xaee <.L54>
     10c:	0c 94 0b 1b 	jmp	0x3616	; 0x3616 <.L49>
     110:	0c 94 d6 1e 	jmp	0x3dac	; 0x3dac <.L47>
     114:	0c 94 37 05 	jmp	0xa6e	; 0xa6e <.L55>

00000118 <__ctors_end>:
     118:	11 24       	eor	r1, r1
     11a:	1f be       	out	0x3f, r1	; 63
     11c:	cf ef       	ldi	r28, 0xFF	; 255
     11e:	d1 e2       	ldi	r29, 0x21	; 33
     120:	de bf       	out	0x3e, r29	; 62
     122:	cd bf       	out	0x3d, r28	; 61
     124:	00 e0       	ldi	r16, 0x00	; 0
     126:	0c bf       	out	0x3c, r16	; 60

00000128 <__do_copy_data>:
     128:	12 e0       	ldi	r17, 0x02	; 2

0000012a <.Loc.1>:
     12a:	a0 e0       	ldi	r26, 0x00	; 0

0000012c <.Loc.2>:
     12c:	b2 e0       	ldi	r27, 0x02	; 2

0000012e <.Loc.3>:
     12e:	e0 ed       	ldi	r30, 0xD0	; 208

00000130 <.Loc.4>:
     130:	f1 e4       	ldi	r31, 0x41	; 65

00000132 <.Loc.5>:
     132:	00 e0       	ldi	r16, 0x00	; 0

00000134 <.Loc.6>:
     134:	0b bf       	out	0x3b, r16	; 59

00000136 <.Loc.7>:
     136:	02 c0       	rjmp	.+4      	; 0x13c <.L__do_copy_data_start>

00000138 <.L__do_copy_data_loop>:
     138:	07 90       	elpm	r0, Z+

0000013a <.Loc.9>:
     13a:	0d 92       	st	X+, r0

0000013c <.L__do_copy_data_start>:
     13c:	a2 31       	cpi	r26, 0x12	; 18

0000013e <.Loc.11>:
     13e:	b1 07       	cpc	r27, r17

00000140 <.Loc.12>:
     140:	d9 f7       	brne	.-10     	; 0x138 <.L__do_copy_data_loop>

00000142 <__do_clear_bss>:
     142:	22 e0       	ldi	r18, 0x02	; 2

00000144 <.Loc.1>:
     144:	a2 e1       	ldi	r26, 0x12	; 18

00000146 <.Loc.2>:
     146:	b2 e0       	ldi	r27, 0x02	; 2

00000148 <.Loc.3>:
     148:	01 c0       	rjmp	.+2      	; 0x14c <.Loc.5>

0000014a <.Loc.4>:
     14a:	1d 92       	st	X+, r1

0000014c <.Loc.5>:
     14c:	a0 32       	cpi	r26, 0x20	; 32

0000014e <.Loc.6>:
     14e:	b2 07       	cpc	r27, r18

00000150 <.Loc.7>:
     150:	e1 f7       	brne	.-8      	; 0x14a <.Loc.4>

00000152 <L0^A>:
     152:	0e 94 ac 03 	call	0x758	; 0x758 <main>
     156:	0c 94 a9 20 	jmp	0x4152	; 0x4152 <_exit>

0000015a <__bad_interrupt>:
     15a:	0c 94 00 00 	jmp	0	; 0x0 <__vectors>

0000015e <__vector_23>:
#include <avr/io.h>
#include <avr/interrupt.h>
#include "h_bridge.h"

ISR(TIMER0_OVF_vect)
{
     15e:	1f 92       	push	r1
     160:	0f 92       	push	r0
     162:	0f b6       	in	r0, 0x3f	; 63
     164:	0f 92       	push	r0
     166:	11 24       	eor	r1, r1
     168:	0b b6       	in	r0, 0x3b	; 59
     16a:	0f 92       	push	r0
     16c:	2f 93       	push	r18
     16e:	8f 93       	push	r24
     170:	9f 93       	push	r25
     172:	ef 93       	push	r30
     174:	ff 93       	push	r31
     176:	cf 93       	push	r28
     178:	df 93       	push	r29
     17a:	cd b7       	in	r28, 0x3d	; 61
     17c:	de b7       	in	r29, 0x3e	; 62

0000017e <.Loc.1>:
	if (OCR0A == 0 && OCR0B == 0)
     17e:	87 e4       	ldi	r24, 0x47	; 71
     180:	90 e0       	ldi	r25, 0x00	; 0
     182:	fc 01       	movw	r30, r24
     184:	80 81       	ld	r24, Z

00000186 <.Loc.2>:
     186:	88 23       	and	r24, r24
     188:	c9 f4       	brne	.+50     	; 0x1bc <.L2>

0000018a <.Loc.3>:
     18a:	88 e4       	ldi	r24, 0x48	; 72
     18c:	90 e0       	ldi	r25, 0x00	; 0
     18e:	fc 01       	movw	r30, r24
     190:	80 81       	ld	r24, Z

00000192 <.Loc.4>:
     192:	88 23       	and	r24, r24
     194:	99 f4       	brne	.+38     	; 0x1bc <.L2>

00000196 <.Loc.5>:
	{
		PORT_RPWM &= ~(1<<PIN_RPWM);
     196:	82 e0       	ldi	r24, 0x02	; 2
     198:	91 e0       	ldi	r25, 0x01	; 1
     19a:	fc 01       	movw	r30, r24
     19c:	20 81       	ld	r18, Z

0000019e <.Loc.6>:
     19e:	82 e0       	ldi	r24, 0x02	; 2
     1a0:	91 e0       	ldi	r25, 0x01	; 1

000001a2 <.Loc.7>:
     1a2:	2f 7b       	andi	r18, 0xBF	; 191
     1a4:	fc 01       	movw	r30, r24
     1a6:	20 83       	st	Z, r18

000001a8 <.Loc.8>:
		PORT_LPWM &= ~(1<<PIN_LPWM);
     1a8:	81 e3       	ldi	r24, 0x31	; 49
     1aa:	90 e0       	ldi	r25, 0x00	; 0
     1ac:	fc 01       	movw	r30, r24
     1ae:	20 81       	ld	r18, Z

000001b0 <.Loc.9>:
     1b0:	81 e3       	ldi	r24, 0x31	; 49
     1b2:	90 e0       	ldi	r25, 0x00	; 0

000001b4 <.Loc.10>:
     1b4:	2f 7d       	andi	r18, 0xDF	; 223
     1b6:	fc 01       	movw	r30, r24
     1b8:	20 83       	st	Z, r18

000001ba <.Loc.11>:
	else if (OCR0B != 0)
	{
		PORT_RPWM &= ~(1<<PIN_RPWM);
		PORT_LPWM |= (1<<PIN_LPWM);
	}
}
     1ba:	31 c0       	rjmp	.+98     	; 0x21e <.L5>

000001bc <.L2>:
	else if (OCR0A != 0)
     1bc:	87 e4       	ldi	r24, 0x47	; 71
     1be:	90 e0       	ldi	r25, 0x00	; 0
     1c0:	fc 01       	movw	r30, r24
     1c2:	80 81       	ld	r24, Z

000001c4 <.Loc.13>:
     1c4:	88 23       	and	r24, r24
     1c6:	99 f0       	breq	.+38     	; 0x1ee <.L4>

000001c8 <.Loc.14>:
		PORT_LPWM &= ~(1<<PIN_LPWM);
     1c8:	81 e3       	ldi	r24, 0x31	; 49
     1ca:	90 e0       	ldi	r25, 0x00	; 0
     1cc:	fc 01       	movw	r30, r24
     1ce:	20 81       	ld	r18, Z

000001d0 <.Loc.15>:
     1d0:	81 e3       	ldi	r24, 0x31	; 49
     1d2:	90 e0       	ldi	r25, 0x00	; 0

000001d4 <.Loc.16>:
     1d4:	2f 7d       	andi	r18, 0xDF	; 223
     1d6:	fc 01       	movw	r30, r24
     1d8:	20 83       	st	Z, r18

000001da <.Loc.17>:
		PORT_RPWM |= (1<<PIN_RPWM);
     1da:	82 e0       	ldi	r24, 0x02	; 2
     1dc:	91 e0       	ldi	r25, 0x01	; 1
     1de:	fc 01       	movw	r30, r24
     1e0:	20 81       	ld	r18, Z
     1e2:	82 e0       	ldi	r24, 0x02	; 2
     1e4:	91 e0       	ldi	r25, 0x01	; 1

000001e6 <.Loc.18>:
     1e6:	20 64       	ori	r18, 0x40	; 64
     1e8:	fc 01       	movw	r30, r24
     1ea:	20 83       	st	Z, r18

000001ec <.Loc.19>:
}
     1ec:	18 c0       	rjmp	.+48     	; 0x21e <.L5>

000001ee <.L4>:
	else if (OCR0B != 0)
     1ee:	88 e4       	ldi	r24, 0x48	; 72
     1f0:	90 e0       	ldi	r25, 0x00	; 0
     1f2:	fc 01       	movw	r30, r24
     1f4:	80 81       	ld	r24, Z

000001f6 <.Loc.21>:
     1f6:	88 23       	and	r24, r24
     1f8:	91 f0       	breq	.+36     	; 0x21e <.L5>

000001fa <.Loc.22>:
		PORT_RPWM &= ~(1<<PIN_RPWM);
     1fa:	82 e0       	ldi	r24, 0x02	; 2
     1fc:	91 e0       	ldi	r25, 0x01	; 1
     1fe:	fc 01       	movw	r30, r24
     200:	20 81       	ld	r18, Z

00000202 <.Loc.23>:
     202:	82 e0       	ldi	r24, 0x02	; 2
     204:	91 e0       	ldi	r25, 0x01	; 1

00000206 <.Loc.24>:
     206:	2f 7b       	andi	r18, 0xBF	; 191
     208:	fc 01       	movw	r30, r24
     20a:	20 83       	st	Z, r18

0000020c <.Loc.25>:
		PORT_LPWM |= (1<<PIN_LPWM);
     20c:	81 e3       	ldi	r24, 0x31	; 49
     20e:	90 e0       	ldi	r25, 0x00	; 0
     210:	fc 01       	movw	r30, r24
     212:	20 81       	ld	r18, Z
     214:	81 e3       	ldi	r24, 0x31	; 49
     216:	90 e0       	ldi	r25, 0x00	; 0

00000218 <.Loc.26>:
     218:	20 62       	ori	r18, 0x20	; 32
     21a:	fc 01       	movw	r30, r24
     21c:	20 83       	st	Z, r18

0000021e <.L5>:
}
     21e:	00 00       	nop
     220:	df 91       	pop	r29
     222:	cf 91       	pop	r28
     224:	ff 91       	pop	r31
     226:	ef 91       	pop	r30
     228:	9f 91       	pop	r25
     22a:	8f 91       	pop	r24
     22c:	2f 91       	pop	r18
     22e:	0f 90       	pop	r0
     230:	0b be       	out	0x3b, r0	; 59
     232:	0f 90       	pop	r0
     234:	0f be       	out	0x3f, r0	; 63
     236:	0f 90       	pop	r0
     238:	1f 90       	pop	r1
     23a:	18 95       	reti

0000023c <__vector_21>:

ISR(TIMER0_COMPA_vect)
{
     23c:	1f 92       	push	r1
     23e:	0f 92       	push	r0
     240:	0f b6       	in	r0, 0x3f	; 63
     242:	0f 92       	push	r0
     244:	11 24       	eor	r1, r1
     246:	0b b6       	in	r0, 0x3b	; 59
     248:	0f 92       	push	r0
     24a:	2f 93       	push	r18
     24c:	8f 93       	push	r24
     24e:	9f 93       	push	r25
     250:	ef 93       	push	r30
     252:	ff 93       	push	r31
     254:	cf 93       	push	r28
     256:	df 93       	push	r29
     258:	cd b7       	in	r28, 0x3d	; 61
     25a:	de b7       	in	r29, 0x3e	; 62

0000025c <.Loc.29>:
	if (OCR0A != 255)
     25c:	87 e4       	ldi	r24, 0x47	; 71
     25e:	90 e0       	ldi	r25, 0x00	; 0
     260:	fc 01       	movw	r30, r24
     262:	80 81       	ld	r24, Z

00000264 <.Loc.30>:
     264:	8f 3f       	cpi	r24, 0xFF	; 255
     266:	49 f0       	breq	.+18     	; 0x27a <.L8>

00000268 <.Loc.31>:
	{
		PORT_RPWM &= ~(1<<PIN_RPWM);
     268:	82 e0       	ldi	r24, 0x02	; 2
     26a:	91 e0       	ldi	r25, 0x01	; 1
     26c:	fc 01       	movw	r30, r24
     26e:	20 81       	ld	r18, Z

00000270 <.Loc.32>:
     270:	82 e0       	ldi	r24, 0x02	; 2
     272:	91 e0       	ldi	r25, 0x01	; 1

00000274 <.Loc.33>:
     274:	2f 7b       	andi	r18, 0xBF	; 191
     276:	fc 01       	movw	r30, r24
     278:	20 83       	st	Z, r18

0000027a <.L8>:
	}
}
     27a:	00 00       	nop
     27c:	df 91       	pop	r29
     27e:	cf 91       	pop	r28
     280:	ff 91       	pop	r31
     282:	ef 91       	pop	r30
     284:	9f 91       	pop	r25
     286:	8f 91       	pop	r24
     288:	2f 91       	pop	r18
     28a:	0f 90       	pop	r0
     28c:	0b be       	out	0x3b, r0	; 59
     28e:	0f 90       	pop	r0
     290:	0f be       	out	0x3f, r0	; 63
     292:	0f 90       	pop	r0
     294:	1f 90       	pop	r1
     296:	18 95       	reti

00000298 <__vector_22>:

ISR(TIMER0_COMPB_vect)
{
     298:	1f 92       	push	r1
     29a:	0f 92       	push	r0
     29c:	0f b6       	in	r0, 0x3f	; 63
     29e:	0f 92       	push	r0
     2a0:	11 24       	eor	r1, r1
     2a2:	0b b6       	in	r0, 0x3b	; 59
     2a4:	0f 92       	push	r0
     2a6:	2f 93       	push	r18
     2a8:	8f 93       	push	r24
     2aa:	9f 93       	push	r25
     2ac:	ef 93       	push	r30
     2ae:	ff 93       	push	r31
     2b0:	cf 93       	push	r28
     2b2:	df 93       	push	r29
     2b4:	cd b7       	in	r28, 0x3d	; 61
     2b6:	de b7       	in	r29, 0x3e	; 62

000002b8 <.Loc.36>:
	if (OCR0B != 255)
     2b8:	88 e4       	ldi	r24, 0x48	; 72
     2ba:	90 e0       	ldi	r25, 0x00	; 0
     2bc:	fc 01       	movw	r30, r24
     2be:	80 81       	ld	r24, Z

000002c0 <.Loc.37>:
     2c0:	8f 3f       	cpi	r24, 0xFF	; 255
     2c2:	49 f0       	breq	.+18     	; 0x2d6 <.L11>

000002c4 <.Loc.38>:
	{
		PORT_LPWM &= ~(1<<PIN_LPWM);
     2c4:	81 e3       	ldi	r24, 0x31	; 49
     2c6:	90 e0       	ldi	r25, 0x00	; 0
     2c8:	fc 01       	movw	r30, r24
     2ca:	20 81       	ld	r18, Z

000002cc <.Loc.39>:
     2cc:	81 e3       	ldi	r24, 0x31	; 49
     2ce:	90 e0       	ldi	r25, 0x00	; 0

000002d0 <.Loc.40>:
     2d0:	2f 7d       	andi	r18, 0xDF	; 223
     2d2:	fc 01       	movw	r30, r24
     2d4:	20 83       	st	Z, r18

000002d6 <.L11>:
	}
}
     2d6:	00 00       	nop
     2d8:	df 91       	pop	r29
     2da:	cf 91       	pop	r28
     2dc:	ff 91       	pop	r31
     2de:	ef 91       	pop	r30
     2e0:	9f 91       	pop	r25
     2e2:	8f 91       	pop	r24
     2e4:	2f 91       	pop	r18
     2e6:	0f 90       	pop	r0
     2e8:	0b be       	out	0x3b, r0	; 59
     2ea:	0f 90       	pop	r0
     2ec:	0f be       	out	0x3f, r0	; 63
     2ee:	0f 90       	pop	r0
     2f0:	1f 90       	pop	r1
     2f2:	18 95       	reti

000002f4 <init_h_bridge>:

void init_h_bridge(void)
{
     2f4:	cf 93       	push	r28
     2f6:	df 93       	push	r29
     2f8:	cd b7       	in	r28, 0x3d	; 61
     2fa:	de b7       	in	r29, 0x3e	; 62

000002fc <.Loc.43>:
	// Config pins as output
	DDR_RPWM |= (1<<PIN_RPWM);
     2fc:	81 e0       	ldi	r24, 0x01	; 1
     2fe:	91 e0       	ldi	r25, 0x01	; 1
     300:	fc 01       	movw	r30, r24
     302:	20 81       	ld	r18, Z
     304:	81 e0       	ldi	r24, 0x01	; 1
     306:	91 e0       	ldi	r25, 0x01	; 1

00000308 <.Loc.44>:
     308:	20 64       	ori	r18, 0x40	; 64
     30a:	fc 01       	movw	r30, r24
     30c:	20 83       	st	Z, r18

0000030e <.Loc.45>:
	DDR_LPWM |= (1<<PIN_LPWM);
     30e:	80 e3       	ldi	r24, 0x30	; 48
     310:	90 e0       	ldi	r25, 0x00	; 0
     312:	fc 01       	movw	r30, r24
     314:	20 81       	ld	r18, Z
     316:	80 e3       	ldi	r24, 0x30	; 48
     318:	90 e0       	ldi	r25, 0x00	; 0

0000031a <.Loc.46>:
     31a:	20 62       	ori	r18, 0x20	; 32
     31c:	fc 01       	movw	r30, r24
     31e:	20 83       	st	Z, r18

00000320 <.Loc.47>:

	// Output low
	PORT_RPWM &= ~(1<<PIN_RPWM);
     320:	82 e0       	ldi	r24, 0x02	; 2
     322:	91 e0       	ldi	r25, 0x01	; 1
     324:	fc 01       	movw	r30, r24
     326:	20 81       	ld	r18, Z

00000328 <.Loc.48>:
     328:	82 e0       	ldi	r24, 0x02	; 2
     32a:	91 e0       	ldi	r25, 0x01	; 1

0000032c <.Loc.49>:
     32c:	2f 7b       	andi	r18, 0xBF	; 191
     32e:	fc 01       	movw	r30, r24
     330:	20 83       	st	Z, r18

00000332 <.Loc.50>:
	PORT_LPWM &= ~(1<<PIN_LPWM);
     332:	81 e3       	ldi	r24, 0x31	; 49
     334:	90 e0       	ldi	r25, 0x00	; 0
     336:	fc 01       	movw	r30, r24
     338:	20 81       	ld	r18, Z

0000033a <.Loc.51>:
     33a:	81 e3       	ldi	r24, 0x31	; 49
     33c:	90 e0       	ldi	r25, 0x00	; 0

0000033e <.Loc.52>:
     33e:	2f 7d       	andi	r18, 0xDF	; 223
     340:	fc 01       	movw	r30, r24
     342:	20 83       	st	Z, r18

00000344 <.Loc.53>:

	// Use mode 0, clkdiv = 64
	TCCR0A = 0;
     344:	84 e4       	ldi	r24, 0x44	; 68
     346:	90 e0       	ldi	r25, 0x00	; 0

00000348 <.Loc.54>:
     348:	fc 01       	movw	r30, r24
     34a:	10 82       	st	Z, r1

0000034c <.Loc.55>:
	TCCR0B = (0<<CS02) | (1<<CS01) | (1<<CS00);
     34c:	85 e4       	ldi	r24, 0x45	; 69
     34e:	90 e0       	ldi	r25, 0x00	; 0

00000350 <.Loc.56>:
     350:	23 e0       	ldi	r18, 0x03	; 3
     352:	fc 01       	movw	r30, r24
     354:	20 83       	st	Z, r18

00000356 <.Loc.57>:

	// Disable PWM output
	OCR0A = 0;
     356:	87 e4       	ldi	r24, 0x47	; 71
     358:	90 e0       	ldi	r25, 0x00	; 0

0000035a <.Loc.58>:
     35a:	fc 01       	movw	r30, r24
     35c:	10 82       	st	Z, r1

0000035e <.Loc.59>:
	OCR0B = 0;
     35e:	88 e4       	ldi	r24, 0x48	; 72
     360:	90 e0       	ldi	r25, 0x00	; 0

00000362 <.Loc.60>:
     362:	fc 01       	movw	r30, r24
     364:	10 82       	st	Z, r1

00000366 <.Loc.61>:

	// Interrupts on OCA, OCB and OVF
	TIMSK0 = (1<<OCIE0B) | (1<<OCIE0A) | (1<<TOIE0);
     366:	8e e6       	ldi	r24, 0x6E	; 110
     368:	90 e0       	ldi	r25, 0x00	; 0

0000036a <.Loc.62>:
     36a:	27 e0       	ldi	r18, 0x07	; 7
     36c:	fc 01       	movw	r30, r24
     36e:	20 83       	st	Z, r18

00000370 <.Loc.63>:

	sei();
     370:	78 94       	sei

00000372 <.Loc.64>:
}
     372:	00 00       	nop
     374:	df 91       	pop	r29
     376:	cf 91       	pop	r28
     378:	08 95       	ret

0000037a <h_bridge_set_percentage>:

void h_bridge_set_percentage(signed char percentage)
{
     37a:	cf 93       	push	r28
     37c:	df 93       	push	r29
     37e:	0f 92       	push	r0
     380:	cd b7       	in	r28, 0x3d	; 61
     382:	de b7       	in	r29, 0x3e	; 62
     384:	89 83       	std	Y+1, r24	; 0x01

00000386 <.Loc.66>:
	if (percentage >= -100 && percentage <= 100)
     386:	89 81       	ldd	r24, Y+1	; 0x01
     388:	8c 39       	cpi	r24, 0x9C	; 156
     38a:	e4 f1       	brlt	.+120    	; 0x404 <.L16>

0000038c <.Loc.67>:
     38c:	89 81       	ldd	r24, Y+1	; 0x01
     38e:	84 36       	cpi	r24, 0x64	; 100
     390:	09 f0       	breq	.+2      	; 0x394 <.Loc.68>

00000392 <L0^A>:
     392:	c4 f5       	brge	.+112    	; 0x404 <.L16>

00000394 <.Loc.68>:
	{
		if (percentage >= 0)
     394:	89 81       	ldd	r24, Y+1	; 0x01
     396:	88 23       	and	r24, r24
     398:	dc f0       	brlt	.+54     	; 0x3d0 <.L15>

0000039a <.Loc.69>:
		{
			// Disable LPWM, calculate RPWM
			OCR0B = 0;
     39a:	88 e4       	ldi	r24, 0x48	; 72
     39c:	90 e0       	ldi	r25, 0x00	; 0

0000039e <.Loc.70>:
     39e:	fc 01       	movw	r30, r24
     3a0:	10 82       	st	Z, r1

000003a2 <.Loc.71>:
			OCR0A = (255*percentage)/100;
     3a2:	89 81       	ldd	r24, Y+1	; 0x01
     3a4:	08 2e       	mov	r0, r24
     3a6:	00 0c       	add	r0, r0
     3a8:	99 0b       	sbc	r25, r25
     3aa:	2f ef       	ldi	r18, 0xFF	; 255
     3ac:	28 9f       	mul	r18, r24
     3ae:	a0 01       	movw	r20, r0
     3b0:	29 9f       	mul	r18, r25
     3b2:	50 0d       	add	r21, r0
     3b4:	11 24       	eor	r1, r1

000003b6 <.Loc.72>:
     3b6:	24 e6       	ldi	r18, 0x64	; 100
     3b8:	30 e0       	ldi	r19, 0x00	; 0
     3ba:	ca 01       	movw	r24, r20
     3bc:	b9 01       	movw	r22, r18
     3be:	0e 94 4f 1f 	call	0x3e9e	; 0x3e9e <__divmodhi4>
     3c2:	cb 01       	movw	r24, r22
     3c4:	9c 01       	movw	r18, r24

000003c6 <.Loc.73>:
     3c6:	87 e4       	ldi	r24, 0x47	; 71
     3c8:	90 e0       	ldi	r25, 0x00	; 0

000003ca <.Loc.74>:
     3ca:	fc 01       	movw	r30, r24
     3cc:	20 83       	st	Z, r18

000003ce <.Loc.75>:
			// Disable RPWM, calculate LPWM
			OCR0A = 0;
			OCR0B = (255*percentage)/-100;
		}
	}
}
     3ce:	1a c0       	rjmp	.+52     	; 0x404 <.L16>

000003d0 <.L15>:
			OCR0A = 0;
     3d0:	87 e4       	ldi	r24, 0x47	; 71
     3d2:	90 e0       	ldi	r25, 0x00	; 0

000003d4 <.Loc.77>:
     3d4:	fc 01       	movw	r30, r24
     3d6:	10 82       	st	Z, r1

000003d8 <.Loc.78>:
			OCR0B = (255*percentage)/-100;
     3d8:	89 81       	ldd	r24, Y+1	; 0x01
     3da:	08 2e       	mov	r0, r24
     3dc:	00 0c       	add	r0, r0
     3de:	99 0b       	sbc	r25, r25
     3e0:	2f ef       	ldi	r18, 0xFF	; 255
     3e2:	28 9f       	mul	r18, r24
     3e4:	a0 01       	movw	r20, r0
     3e6:	29 9f       	mul	r18, r25
     3e8:	50 0d       	add	r21, r0
     3ea:	11 24       	eor	r1, r1

000003ec <.Loc.79>:
     3ec:	2c e9       	ldi	r18, 0x9C	; 156
     3ee:	3f ef       	ldi	r19, 0xFF	; 255
     3f0:	ca 01       	movw	r24, r20
     3f2:	b9 01       	movw	r22, r18
     3f4:	0e 94 4f 1f 	call	0x3e9e	; 0x3e9e <__divmodhi4>
     3f8:	cb 01       	movw	r24, r22
     3fa:	9c 01       	movw	r18, r24

000003fc <.Loc.80>:
     3fc:	88 e4       	ldi	r24, 0x48	; 72
     3fe:	90 e0       	ldi	r25, 0x00	; 0

00000400 <.Loc.81>:
     400:	fc 01       	movw	r30, r24
     402:	20 83       	st	Z, r18

00000404 <.L16>:
}
     404:	00 00       	nop
     406:	0f 90       	pop	r0
     408:	df 91       	pop	r29
     40a:	cf 91       	pop	r28
     40c:	08 95       	ret

0000040e <init>:

char DisplayState = 'None';


void init (void)
{
     40e:	cf 93       	push	r28
     410:	df 93       	push	r29
     412:	cd b7       	in	r28, 0x3d	; 61
     414:	de b7       	in	r29, 0x3e	; 62

00000416 <.Loc.84>:
    init_h_bridge();                        //MAMMA MIA I MAKE-A DA MOTORS WORKE
     416:	0e 94 7a 01 	call	0x2f4	; 0x2f4 <init_h_bridge>

0000041a <.Loc.85>:
    DDRB = ~((PB7 | PB6 | PB5 | PB4) ); // Config the 4 LEDs
     41a:	84 e2       	ldi	r24, 0x24	; 36
     41c:	90 e0       	ldi	r25, 0x00	; 0

0000041e <.Loc.86>:
     41e:	28 ef       	ldi	r18, 0xF8	; 248
     420:	fc 01       	movw	r30, r24
     422:	20 83       	st	Z, r18

00000424 <.Loc.87>:
    PORTB |=  ~((PB7 | PB6 | PB5 | PB4) )    ;//turn em off
     424:	85 e2       	ldi	r24, 0x25	; 37
     426:	90 e0       	ldi	r25, 0x00	; 0
     428:	fc 01       	movw	r30, r24
     42a:	80 81       	ld	r24, Z

0000042c <.Loc.88>:
     42c:	28 2f       	mov	r18, r24
     42e:	28 6f       	ori	r18, 0xF8	; 248

00000430 <.Loc.89>:
     430:	85 e2       	ldi	r24, 0x25	; 37
     432:	90 e0       	ldi	r25, 0x00	; 0

00000434 <.Loc.90>:
     434:	fc 01       	movw	r30, r24
     436:	20 83       	st	Z, r18

00000438 <.Loc.91>:

    DDRA |= ~(1<< (PA0 | PA2 | PA4 | PA1)); // Config the Relais ports (X,Y,Z, Magnet.)
     438:	81 e2       	ldi	r24, 0x21	; 33
     43a:	90 e0       	ldi	r25, 0x00	; 0
     43c:	fc 01       	movw	r30, r24
     43e:	80 81       	ld	r24, Z

00000440 <.Loc.92>:
     440:	28 2f       	mov	r18, r24
     442:	2f 67       	ori	r18, 0x7F	; 127

00000444 <.Loc.93>:
     444:	81 e2       	ldi	r24, 0x21	; 33
     446:	90 e0       	ldi	r25, 0x00	; 0

00000448 <.Loc.94>:
     448:	fc 01       	movw	r30, r24
     44a:	20 83       	st	Z, r18

0000044c <.Loc.95>:
    PORTA |= (1<< (PA0 | PA2 | PA4 | PA1))    ;//Zet ze standaard uit?
     44c:	82 e2       	ldi	r24, 0x22	; 34
     44e:	90 e0       	ldi	r25, 0x00	; 0
     450:	fc 01       	movw	r30, r24
     452:	20 81       	ld	r18, Z
     454:	82 e2       	ldi	r24, 0x22	; 34
     456:	90 e0       	ldi	r25, 0x00	; 0

00000458 <.Loc.96>:
     458:	20 68       	ori	r18, 0x80	; 128
     45a:	fc 01       	movw	r30, r24
     45c:	20 83       	st	Z, r18

0000045e <.Loc.97>:


    DDRL |= ~(1<< (PL0 | PL2 | PL4 | PL3) ); //Config CUSTOM buttons
     45e:	8a e0       	ldi	r24, 0x0A	; 10
     460:	91 e0       	ldi	r25, 0x01	; 1
     462:	fc 01       	movw	r30, r24
     464:	80 81       	ld	r24, Z

00000466 <.Loc.98>:
     466:	28 2f       	mov	r18, r24
     468:	2f 67       	ori	r18, 0x7F	; 127

0000046a <.Loc.99>:
     46a:	8a e0       	ldi	r24, 0x0A	; 10
     46c:	91 e0       	ldi	r25, 0x01	; 1

0000046e <.Loc.100>:
     46e:	fc 01       	movw	r30, r24
     470:	20 83       	st	Z, r18

00000472 <.Loc.101>:
    DDRD |= (1<< (PD0) ); //Noodstop Reset Ding (Damn You Z-As!)
     472:	8a e2       	ldi	r24, 0x2A	; 42
     474:	90 e0       	ldi	r25, 0x00	; 0
     476:	fc 01       	movw	r30, r24
     478:	20 81       	ld	r18, Z
     47a:	8a e2       	ldi	r24, 0x2A	; 42
     47c:	90 e0       	ldi	r25, 0x00	; 0

0000047e <.Loc.102>:
     47e:	21 60       	ori	r18, 0x01	; 1
     480:	fc 01       	movw	r30, r24
     482:	20 83       	st	Z, r18

00000484 <.Loc.103>:
    DDRC |= ~(1<< (PC3 | PC5 | PC6 | PC4 | PC2) ); //Declare de pins voor de microswitches
     484:	87 e2       	ldi	r24, 0x27	; 39
     486:	90 e0       	ldi	r25, 0x00	; 0
     488:	fc 01       	movw	r30, r24
     48a:	80 81       	ld	r24, Z

0000048c <.Loc.104>:
     48c:	28 2f       	mov	r18, r24
     48e:	2f 67       	ori	r18, 0x7F	; 127

00000490 <.Loc.105>:
     490:	87 e2       	ldi	r24, 0x27	; 39
     492:	90 e0       	ldi	r25, 0x00	; 0

00000494 <.Loc.106>:
     494:	fc 01       	movw	r30, r24
     496:	20 83       	st	Z, r18

00000498 <.Loc.107>:




	// Initialiseer de pinnen voor datain (D8=PH5), shiftclk (D7=PH4) en latchclk (D4=PG5) als output
	DDRH |= (1 << PH5) | (1 << PH4);
     498:	81 e0       	ldi	r24, 0x01	; 1
     49a:	91 e0       	ldi	r25, 0x01	; 1
     49c:	fc 01       	movw	r30, r24
     49e:	20 81       	ld	r18, Z
     4a0:	81 e0       	ldi	r24, 0x01	; 1
     4a2:	91 e0       	ldi	r25, 0x01	; 1

000004a4 <.Loc.108>:
     4a4:	20 63       	ori	r18, 0x30	; 48
     4a6:	fc 01       	movw	r30, r24
     4a8:	20 83       	st	Z, r18

000004aa <.Loc.109>:
	DDRG |= (1 << PG5);
     4aa:	83 e3       	ldi	r24, 0x33	; 51
     4ac:	90 e0       	ldi	r25, 0x00	; 0
     4ae:	fc 01       	movw	r30, r24
     4b0:	20 81       	ld	r18, Z
     4b2:	83 e3       	ldi	r24, 0x33	; 51
     4b4:	90 e0       	ldi	r25, 0x00	; 0

000004b6 <.Loc.110>:
     4b6:	20 62       	ori	r18, 0x20	; 32
     4b8:	fc 01       	movw	r30, r24
     4ba:	20 83       	st	Z, r18

000004bc <.Loc.111>:

	// Maak shiftclk en latchclk laag
	PORTH &= ~(1 << PH4);
     4bc:	82 e0       	ldi	r24, 0x02	; 2
     4be:	91 e0       	ldi	r25, 0x01	; 1
     4c0:	fc 01       	movw	r30, r24
     4c2:	20 81       	ld	r18, Z

000004c4 <.Loc.112>:
     4c4:	82 e0       	ldi	r24, 0x02	; 2
     4c6:	91 e0       	ldi	r25, 0x01	; 1

000004c8 <.Loc.113>:
     4c8:	2f 7e       	andi	r18, 0xEF	; 239
     4ca:	fc 01       	movw	r30, r24
     4cc:	20 83       	st	Z, r18

000004ce <.Loc.114>:
	PORTG &= ~(1 << PG5);
     4ce:	84 e3       	ldi	r24, 0x34	; 52
     4d0:	90 e0       	ldi	r25, 0x00	; 0
     4d2:	fc 01       	movw	r30, r24
     4d4:	20 81       	ld	r18, Z

000004d6 <.Loc.115>:
     4d6:	84 e3       	ldi	r24, 0x34	; 52
     4d8:	90 e0       	ldi	r25, 0x00	; 0

000004da <.Loc.116>:
     4da:	2f 7d       	andi	r18, 0xDF	; 223
     4dc:	fc 01       	movw	r30, r24
     4de:	20 83       	st	Z, r18

000004e0 <.Loc.117>:

	TCCR4A = 0;								// set entire TCCR1A register to 0
     4e0:	80 ea       	ldi	r24, 0xA0	; 160
     4e2:	90 e0       	ldi	r25, 0x00	; 0

000004e4 <.Loc.118>:
     4e4:	fc 01       	movw	r30, r24
     4e6:	10 82       	st	Z, r1

000004e8 <.Loc.119>:
	TCCR4B = 0;								// same for TCCR1B
     4e8:	81 ea       	ldi	r24, 0xA1	; 161
     4ea:	90 e0       	ldi	r25, 0x00	; 0

000004ec <.Loc.120>:
     4ec:	fc 01       	movw	r30, r24
     4ee:	10 82       	st	Z, r1

000004f0 <.Loc.121>:
	TCNT4 = 0;								// initialize counter value to 0
     4f0:	84 ea       	ldi	r24, 0xA4	; 164
     4f2:	90 e0       	ldi	r25, 0x00	; 0

000004f4 <.Loc.122>:
     4f4:	fc 01       	movw	r30, r24
     4f6:	11 82       	std	Z+1, r1	; 0x01
     4f8:	10 82       	st	Z, r1

000004fa <.Loc.123>:

	OCR4A = 1500;							// = (16*10^6) / (1*1024) - 1 / 2 (must be <65536) set compare match register for 2hz increments
     4fa:	88 ea       	ldi	r24, 0xA8	; 168
     4fc:	90 e0       	ldi	r25, 0x00	; 0

000004fe <.Loc.124>:
     4fe:	2c ed       	ldi	r18, 0xDC	; 220
     500:	35 e0       	ldi	r19, 0x05	; 5
     502:	fc 01       	movw	r30, r24
     504:	31 83       	std	Z+1, r19	; 0x01
     506:	20 83       	st	Z, r18

00000508 <.Loc.125>:
	TCCR4B |= (1 << WGM12);					// turn on CTC mode
     508:	81 ea       	ldi	r24, 0xA1	; 161
     50a:	90 e0       	ldi	r25, 0x00	; 0
     50c:	fc 01       	movw	r30, r24
     50e:	20 81       	ld	r18, Z
     510:	81 ea       	ldi	r24, 0xA1	; 161
     512:	90 e0       	ldi	r25, 0x00	; 0

00000514 <.Loc.126>:
     514:	28 60       	ori	r18, 0x08	; 8
     516:	fc 01       	movw	r30, r24
     518:	20 83       	st	Z, r18

0000051a <.Loc.127>:
	TCCR4B |= (1 << CS12) | (1 << CS10);	// Set CS12 and CS10 bits for 1024 prescaler
     51a:	81 ea       	ldi	r24, 0xA1	; 161
     51c:	90 e0       	ldi	r25, 0x00	; 0
     51e:	fc 01       	movw	r30, r24
     520:	20 81       	ld	r18, Z
     522:	81 ea       	ldi	r24, 0xA1	; 161
     524:	90 e0       	ldi	r25, 0x00	; 0

00000526 <.Loc.128>:
     526:	25 60       	ori	r18, 0x05	; 5
     528:	fc 01       	movw	r30, r24
     52a:	20 83       	st	Z, r18

0000052c <.Loc.129>:
	TIMSK4 |= (1 << OCIE4A);				// enable timer compare interrupt
     52c:	82 e7       	ldi	r24, 0x72	; 114
     52e:	90 e0       	ldi	r25, 0x00	; 0
     530:	fc 01       	movw	r30, r24
     532:	20 81       	ld	r18, Z
     534:	82 e7       	ldi	r24, 0x72	; 114
     536:	90 e0       	ldi	r25, 0x00	; 0

00000538 <.Loc.130>:
     538:	22 60       	ori	r18, 0x02	; 2
     53a:	fc 01       	movw	r30, r24
     53c:	20 83       	st	Z, r18

0000053e <.Loc.131>:

	sei();      // allow interrupts
     53e:	78 94       	sei

00000540 <.Loc.132>:
}
     540:	00 00       	nop
     542:	df 91       	pop	r29
     544:	cf 91       	pop	r28
     546:	08 95       	ret

00000548 <send_data>:

void send_data(char data)
{
     548:	cf 93       	push	r28
     54a:	df 93       	push	r29
     54c:	00 d0       	rcall	.+0      	; 0x54e <L0^A>

0000054e <L0^A>:
     54e:	0f 92       	push	r0
     550:	cd b7       	in	r28, 0x3d	; 61
     552:	de b7       	in	r29, 0x3e	; 62
     554:	8c 83       	std	Y+4, r24	; 0x04

00000556 <.Loc.134>:
	char data_new = data;
     556:	8c 81       	ldd	r24, Y+4	; 0x04
     558:	89 83       	std	Y+1, r24	; 0x01

0000055a <.LBB144>:
	// Herhaal voor alle bits in een char
	for (char i = 0; i < 8; i++)
     55a:	1a 82       	std	Y+2, r1	; 0x02

0000055c <.Loc.136>:
     55c:	32 c0       	rjmp	.+100    	; 0x5c2 <.L19>

0000055e <.L22>:
	{
		// Bepaal de waarde van de bit die je naar het schuifregister
		// wil sturen
		char mask = data_new & 1;
     55e:	89 81       	ldd	r24, Y+1	; 0x01
     560:	81 70       	andi	r24, 0x01	; 1
     562:	8b 83       	std	Y+3, r24	; 0x03

00000564 <.Loc.138>:

		// Maak de juiste pin hoog of laag op basis van de bepaalde waarde
		// van het bit
		if (mask > 0) {
     564:	8b 81       	ldd	r24, Y+3	; 0x03
     566:	88 23       	and	r24, r24
     568:	59 f0       	breq	.+22     	; 0x580 <.L20>
     56a:	54 f0       	brlt	.+20     	; 0x580 <.L20>

0000056c <.Loc.139>:
			//send 1
			PORTH |= (1 << PH5);
     56c:	82 e0       	ldi	r24, 0x02	; 2
     56e:	91 e0       	ldi	r25, 0x01	; 1
     570:	fc 01       	movw	r30, r24
     572:	20 81       	ld	r18, Z
     574:	82 e0       	ldi	r24, 0x02	; 2
     576:	91 e0       	ldi	r25, 0x01	; 1

00000578 <.Loc.140>:
     578:	20 62       	ori	r18, 0x20	; 32
     57a:	fc 01       	movw	r30, r24
     57c:	20 83       	st	Z, r18
     57e:	09 c0       	rjmp	.+18     	; 0x592 <.L21>

00000580 <.L20>:
		} else {
			//send 0
			PORTH &= ~(1 << PH5);
     580:	82 e0       	ldi	r24, 0x02	; 2
     582:	91 e0       	ldi	r25, 0x01	; 1
     584:	fc 01       	movw	r30, r24
     586:	20 81       	ld	r18, Z

00000588 <.Loc.142>:
     588:	82 e0       	ldi	r24, 0x02	; 2
     58a:	91 e0       	ldi	r25, 0x01	; 1

0000058c <.Loc.143>:
     58c:	2f 7d       	andi	r18, 0xDF	; 223
     58e:	fc 01       	movw	r30, r24
     590:	20 83       	st	Z, r18

00000592 <.L21>:
		}

		// Toggle shiftclk (hoeveel tijd moest het signaal minimaal hoog zijn?)
		PORTH |= (1 << PH4);
     592:	82 e0       	ldi	r24, 0x02	; 2
     594:	91 e0       	ldi	r25, 0x01	; 1
     596:	fc 01       	movw	r30, r24
     598:	20 81       	ld	r18, Z
     59a:	82 e0       	ldi	r24, 0x02	; 2
     59c:	91 e0       	ldi	r25, 0x01	; 1

0000059e <.Loc.145>:
     59e:	20 61       	ori	r18, 0x10	; 16
     5a0:	fc 01       	movw	r30, r24
     5a2:	20 83       	st	Z, r18

000005a4 <.Loc.146>:
		PORTH &= ~(1 << PH4);
     5a4:	82 e0       	ldi	r24, 0x02	; 2
     5a6:	91 e0       	ldi	r25, 0x01	; 1
     5a8:	fc 01       	movw	r30, r24
     5aa:	20 81       	ld	r18, Z

000005ac <.Loc.147>:
     5ac:	82 e0       	ldi	r24, 0x02	; 2
     5ae:	91 e0       	ldi	r25, 0x01	; 1

000005b0 <.Loc.148>:
     5b0:	2f 7e       	andi	r18, 0xEF	; 239
     5b2:	fc 01       	movw	r30, r24
     5b4:	20 83       	st	Z, r18

000005b6 <.Loc.149>:

		data_new >>= 1;
     5b6:	89 81       	ldd	r24, Y+1	; 0x01
     5b8:	85 95       	asr	r24
     5ba:	89 83       	std	Y+1, r24	; 0x01

000005bc <.LBE145>:
	for (char i = 0; i < 8; i++)
     5bc:	8a 81       	ldd	r24, Y+2	; 0x02
     5be:	8f 5f       	subi	r24, 0xFF	; 255
     5c0:	8a 83       	std	Y+2, r24	; 0x02

000005c2 <.L19>:
     5c2:	8a 81       	ldd	r24, Y+2	; 0x02
     5c4:	87 30       	cpi	r24, 0x07	; 7
     5c6:	59 f2       	breq	.-106    	; 0x55e <.L22>
     5c8:	54 f2       	brlt	.-108    	; 0x55e <.L22>

000005ca <.LBE144>:
	}
}
     5ca:	00 00       	nop
     5cc:	00 00       	nop
     5ce:	0f 90       	pop	r0
     5d0:	0f 90       	pop	r0
     5d2:	0f 90       	pop	r0
     5d4:	0f 90       	pop	r0
     5d6:	df 91       	pop	r29
     5d8:	cf 91       	pop	r28
     5da:	08 95       	ret

000005dc <send_enable>:

void send_enable(char num)
{
     5dc:	cf 93       	push	r28
     5de:	df 93       	push	r29
     5e0:	0f 92       	push	r0
     5e2:	cd b7       	in	r28, 0x3d	; 61
     5e4:	de b7       	in	r29, 0x3e	; 62
     5e6:	89 83       	std	Y+1, r24	; 0x01

000005e8 <.Loc.154>:
	send_data(0x80 >> num);
     5e8:	89 81       	ldd	r24, Y+1	; 0x01
     5ea:	28 2f       	mov	r18, r24
     5ec:	88 0f       	add	r24, r24
     5ee:	33 0b       	sbc	r19, r19
     5f0:	80 e8       	ldi	r24, 0x80	; 128
     5f2:	90 e0       	ldi	r25, 0x00	; 0
     5f4:	02 c0       	rjmp	.+4      	; 0x5fa <.L2^B1>

000005f6 <.L1^B1>:
     5f6:	95 95       	asr	r25
     5f8:	87 95       	ror	r24

000005fa <.L2^B1>:
     5fa:	2a 95       	dec	r18
     5fc:	e2 f7       	brpl	.-8      	; 0x5f6 <.L1^B1>

000005fe <.Loc.155>:
     5fe:	0e 94 a4 02 	call	0x548	; 0x548 <send_data>

00000602 <.Loc.156>:
}
     602:	00 00       	nop
     604:	0f 90       	pop	r0
     606:	df 91       	pop	r29
     608:	cf 91       	pop	r28
     60a:	08 95       	ret

0000060c <display>:

void display(char data, char num)
{
     60c:	cf 93       	push	r28
     60e:	df 93       	push	r29
     610:	0f 92       	push	r0
     612:	0f 92       	push	r0
     614:	cd b7       	in	r28, 0x3d	; 61
     616:	de b7       	in	r29, 0x3e	; 62
     618:	89 83       	std	Y+1, r24	; 0x01
     61a:	6a 83       	std	Y+2, r22	; 0x02

0000061c <.Loc.158>:
	send_data(data);
     61c:	89 81       	ldd	r24, Y+1	; 0x01
     61e:	0e 94 a4 02 	call	0x548	; 0x548 <send_data>

00000622 <.Loc.159>:
	send_enable(num);
     622:	8a 81       	ldd	r24, Y+2	; 0x02
     624:	0e 94 ee 02 	call	0x5dc	; 0x5dc <send_enable>

00000628 <.Loc.160>:

	// Toggle latchclk (hoeveel tijd moest het signaal minimaal hoog zijn?)
	PORTG |= (1 << PG5);
     628:	84 e3       	ldi	r24, 0x34	; 52
     62a:	90 e0       	ldi	r25, 0x00	; 0
     62c:	fc 01       	movw	r30, r24
     62e:	20 81       	ld	r18, Z
     630:	84 e3       	ldi	r24, 0x34	; 52
     632:	90 e0       	ldi	r25, 0x00	; 0

00000634 <.Loc.161>:
     634:	20 62       	ori	r18, 0x20	; 32
     636:	fc 01       	movw	r30, r24
     638:	20 83       	st	Z, r18

0000063a <.Loc.162>:
	PORTG &= ~(1 << PG5);
     63a:	84 e3       	ldi	r24, 0x34	; 52
     63c:	90 e0       	ldi	r25, 0x00	; 0
     63e:	fc 01       	movw	r30, r24
     640:	20 81       	ld	r18, Z

00000642 <.Loc.163>:
     642:	84 e3       	ldi	r24, 0x34	; 52
     644:	90 e0       	ldi	r25, 0x00	; 0

00000646 <.Loc.164>:
     646:	2f 7d       	andi	r18, 0xDF	; 223
     648:	fc 01       	movw	r30, r24
     64a:	20 83       	st	Z, r18

0000064c <.Loc.165>:

}
     64c:	00 00       	nop
     64e:	0f 90       	pop	r0
     650:	0f 90       	pop	r0
     652:	df 91       	pop	r29
     654:	cf 91       	pop	r28
     656:	08 95       	ret

00000658 <Refresh>:

void Refresh(void) //Refreshes the screen so new numbers can be shown. Better than calling it each time. TBh.
{
     658:	cf 93       	push	r28
     65a:	df 93       	push	r29
     65c:	cd b7       	in	r28, 0x3d	; 61
     65e:	de b7       	in	r29, 0x3e	; 62

00000660 <.Loc.167>:
switch (DisplayState){
     660:	80 91 06 02 	lds	r24, 0x0206	; 0x800206 <DisplayState>
     664:	08 2e       	mov	r0, r24
     666:	00 0c       	add	r0, r0
     668:	99 0b       	sbc	r25, r25
     66a:	88 35       	cpi	r24, 0x58	; 88
     66c:	91 05       	cpc	r25, r1
     66e:	21 f0       	breq	.+8      	; 0x678 <.L26>
     670:	89 35       	cpi	r24, 0x59	; 89
     672:	91 05       	cpc	r25, r1
     674:	99 f1       	breq	.+102    	; 0x6dc <.L27>
     676:	60 c0       	rjmp	.+192    	; 0x738 <.L28>

00000678 <.L26>:
        display(0xE3, 0);
        display(0xEF, 1);
    break;

    case 'X':
        if(OCR4A % 10 == 0)
     678:	88 ea       	ldi	r24, 0xA8	; 168
     67a:	90 e0       	ldi	r25, 0x00	; 0
     67c:	fc 01       	movw	r30, r24
     67e:	40 81       	ld	r20, Z
     680:	51 81       	ldd	r21, Z+1	; 0x01

00000682 <.Loc.169>:
     682:	9a 01       	movw	r18, r20
     684:	ad ec       	ldi	r26, 0xCD	; 205
     686:	bc ec       	ldi	r27, 0xCC	; 204
     688:	0e 94 6b 1f 	call	0x3ed6	; 0x3ed6 <__umulhisi3>
     68c:	9c 01       	movw	r18, r24
     68e:	36 95       	lsr	r19
     690:	27 95       	ror	r18
     692:	36 95       	lsr	r19
     694:	27 95       	ror	r18
     696:	36 95       	lsr	r19
     698:	27 95       	ror	r18
     69a:	c9 01       	movw	r24, r18
     69c:	88 0f       	add	r24, r24
     69e:	99 1f       	adc	r25, r25
     6a0:	88 0f       	add	r24, r24
     6a2:	99 1f       	adc	r25, r25
     6a4:	82 0f       	add	r24, r18
     6a6:	93 1f       	adc	r25, r19
     6a8:	88 0f       	add	r24, r24
     6aa:	99 1f       	adc	r25, r25
     6ac:	9a 01       	movw	r18, r20
     6ae:	28 1b       	sub	r18, r24
     6b0:	39 0b       	sbc	r19, r25

000006b2 <.Loc.170>:
     6b2:	21 15       	cp	r18, r1
     6b4:	31 05       	cpc	r19, r1
     6b6:	49 f4       	brne	.+18     	; 0x6ca <.L29>

000006b8 <.Loc.171>:
        {
            display(0xEF, 0);
     6b8:	60 e0       	ldi	r22, 0x00	; 0
     6ba:	8f ee       	ldi	r24, 0xEF	; 239
     6bc:	0e 94 06 03 	call	0x60c	; 0x60c <display>

000006c0 <.Loc.172>:
            display(0xEF, 1);
     6c0:	61 e0       	ldi	r22, 0x01	; 1
     6c2:	8f ee       	ldi	r24, 0xEF	; 239
     6c4:	0e 94 06 03 	call	0x60c	; 0x60c <display>

000006c8 <.Loc.173>:
        else
        {
            display(0xE3, 0);
            display(0xEF, 1);
        }
    break;
     6c8:	37 c0       	rjmp	.+110    	; 0x738 <.L28>

000006ca <.L29>:
            display(0xE3, 0);
     6ca:	60 e0       	ldi	r22, 0x00	; 0
     6cc:	83 ee       	ldi	r24, 0xE3	; 227
     6ce:	0e 94 06 03 	call	0x60c	; 0x60c <display>

000006d2 <.Loc.175>:
            display(0xEF, 1);
     6d2:	61 e0       	ldi	r22, 0x01	; 1
     6d4:	8f ee       	ldi	r24, 0xEF	; 239
     6d6:	0e 94 06 03 	call	0x60c	; 0x60c <display>

000006da <.Loc.176>:
    break;
     6da:	2e c0       	rjmp	.+92     	; 0x738 <.L28>

000006dc <.L27>:

    case 'Y':
        if(OCR4A % 100 == 0) //Also yeah i had to do this this way since else the compiler would scream at me that there are two duplicate cases.
     6dc:	88 ea       	ldi	r24, 0xA8	; 168
     6de:	90 e0       	ldi	r25, 0x00	; 0
     6e0:	fc 01       	movw	r30, r24
     6e2:	40 81       	ld	r20, Z
     6e4:	51 81       	ldd	r21, Z+1	; 0x01

000006e6 <.Loc.178>:
     6e6:	ca 01       	movw	r24, r20
     6e8:	96 95       	lsr	r25
     6ea:	87 95       	ror	r24
     6ec:	96 95       	lsr	r25
     6ee:	87 95       	ror	r24
     6f0:	9c 01       	movw	r18, r24
     6f2:	ab e7       	ldi	r26, 0x7B	; 123
     6f4:	b4 e1       	ldi	r27, 0x14	; 20
     6f6:	0e 94 6b 1f 	call	0x3ed6	; 0x3ed6 <__umulhisi3>
     6fa:	96 95       	lsr	r25
     6fc:	87 95       	ror	r24
     6fe:	64 e6       	ldi	r22, 0x64	; 100
     700:	68 9f       	mul	r22, r24
     702:	90 01       	movw	r18, r0
     704:	69 9f       	mul	r22, r25
     706:	30 0d       	add	r19, r0
     708:	11 24       	eor	r1, r1
     70a:	ca 01       	movw	r24, r20
     70c:	82 1b       	sub	r24, r18
     70e:	93 0b       	sbc	r25, r19

00000710 <.Loc.179>:
     710:	00 97       	sbiw	r24, 0x00	; 0
     712:	49 f4       	brne	.+18     	; 0x726 <.L31>

00000714 <.Loc.180>:
        {
            display(0xF3, 0);
     714:	60 e0       	ldi	r22, 0x00	; 0
     716:	83 ef       	ldi	r24, 0xF3	; 243
     718:	0e 94 06 03 	call	0x60c	; 0x60c <display>

0000071c <.Loc.181>:
            display(0xFF, 1);
     71c:	61 e0       	ldi	r22, 0x01	; 1
     71e:	8f ef       	ldi	r24, 0xFF	; 255
     720:	0e 94 06 03 	call	0x60c	; 0x60c <display>

00000724 <.Loc.182>:
        {
            display(0xE3, 0);
            display(0xEF, 1);
        }

    break;
     724:	08 c0       	rjmp	.+16     	; 0x736 <.L33>

00000726 <.L31>:
            display(0xE3, 0);
     726:	60 e0       	ldi	r22, 0x00	; 0
     728:	83 ee       	ldi	r24, 0xE3	; 227
     72a:	0e 94 06 03 	call	0x60c	; 0x60c <display>

0000072e <.Loc.184>:
            display(0xEF, 1);
     72e:	61 e0       	ldi	r22, 0x01	; 1
     730:	8f ee       	ldi	r24, 0xEF	; 239
     732:	0e 94 06 03 	call	0x60c	; 0x60c <display>

00000736 <.L33>:
	...

00000738 <.L28>:
        display(0XFF, 1);
    break;

        }

		display(display_set[o], 3);
     738:	80 91 14 02 	lds	r24, 0x0214	; 0x800214 <o>
     73c:	08 2e       	mov	r0, r24
     73e:	00 0c       	add	r0, r0
     740:	99 0b       	sbc	r25, r25

00000742 <.Loc.187>:
     742:	89 5f       	subi	r24, 0xF9	; 249
     744:	9d 4f       	sbci	r25, 0xFD	; 253
     746:	fc 01       	movw	r30, r24
     748:	80 81       	ld	r24, Z

0000074a <.Loc.188>:
     74a:	63 e0       	ldi	r22, 0x03	; 3
     74c:	0e 94 06 03 	call	0x60c	; 0x60c <display>

00000750 <.Loc.189>:
//		display(display_set[t], 2); TOTALLY not needed right now. We only count from 0 to 9 after all!.. Maybe i should also cut the 0...

}
     750:	00 00       	nop
     752:	df 91       	pop	r29
     754:	cf 91       	pop	r28
     756:	08 95       	ret

00000758 <main>:




int main(void)
{
     758:	0f 93       	push	r16
     75a:	1f 93       	push	r17
     75c:	cf 93       	push	r28
     75e:	df 93       	push	r29
     760:	cd b7       	in	r28, 0x3d	; 61
     762:	de b7       	in	r29, 0x3e	; 62
     764:	ce 50       	subi	r28, 0x0E	; 14
     766:	d3 40       	sbci	r29, 0x03	; 3
     768:	0f b6       	in	r0, 0x3f	; 63
     76a:	f8 94       	cli
     76c:	de bf       	out	0x3e, r29	; 62
     76e:	0f be       	out	0x3f, r0	; 63
     770:	cd bf       	out	0x3d, r28	; 61

00000772 <.Loc.191>:
    init();
     772:	0e 94 07 02 	call	0x40e	; 0x40e <init>

00000776 <.L273>:
    while(1){
        //Pre-switch code
                if (PIND & (1 << PD0))  //Noodstop Ding
     776:	89 e2       	ldi	r24, 0x29	; 41
     778:	90 e0       	ldi	r25, 0x00	; 0
     77a:	dc 01       	movw	r26, r24
     77c:	8c 91       	ld	r24, X

0000077e <.Loc.193>:
     77e:	88 2f       	mov	r24, r24
     780:	90 e0       	ldi	r25, 0x00	; 0
     782:	81 70       	andi	r24, 0x01	; 1
     784:	99 27       	eor	r25, r25

00000786 <.Loc.194>:
     786:	00 97       	sbiw	r24, 0x00	; 0
     788:	09 f4       	brne	.+2      	; 0x78c <L0^A+0x2>

0000078a <L0^A>:
     78a:	c9 c0       	rjmp	.+402    	; 0x91e <.L35>
     78c:	80 e0       	ldi	r24, 0x00	; 0
     78e:	90 e0       	ldi	r25, 0x00	; 0
     790:	a0 ef       	ldi	r26, 0xF0	; 240
     792:	b1 e4       	ldi	r27, 0x41	; 65
     794:	89 83       	std	Y+1, r24	; 0x01
     796:	9a 83       	std	Y+2, r25	; 0x02
     798:	ab 83       	std	Y+3, r26	; 0x03
     79a:	bc 83       	std	Y+4, r27	; 0x04

0000079c <.LBB146>:

	__builtin_avr_delay_cycles(__ticks_dc);

#else
	uint16_t __ticks;
	__tmp = ((F_CPU) / 4e3) * __ms;
     79c:	20 e0       	ldi	r18, 0x00	; 0
     79e:	30 e0       	ldi	r19, 0x00	; 0
     7a0:	4a e7       	ldi	r20, 0x7A	; 122
     7a2:	55 e4       	ldi	r21, 0x45	; 69
     7a4:	69 81       	ldd	r22, Y+1	; 0x01
     7a6:	7a 81       	ldd	r23, Y+2	; 0x02
     7a8:	8b 81       	ldd	r24, Y+3	; 0x03
     7aa:	9c 81       	ldd	r25, Y+4	; 0x04
     7ac:	0e 94 14 20 	call	0x4028	; 0x4028 <__mulsf3>
     7b0:	c1 56       	subi	r28, 0x61	; 97
     7b2:	de 4f       	sbci	r29, 0xFE	; 254
     7b4:	68 83       	st	Y, r22
     7b6:	79 83       	std	Y+1, r23	; 0x01
     7b8:	8a 83       	std	Y+2, r24	; 0x02
     7ba:	9b 83       	std	Y+3, r25	; 0x03
     7bc:	cf 59       	subi	r28, 0x9F	; 159
     7be:	d1 40       	sbci	r29, 0x01	; 1
     7c0:	c1 56       	subi	r28, 0x61	; 97
     7c2:	de 4f       	sbci	r29, 0xFE	; 254
     7c4:	28 81       	ld	r18, Y
     7c6:	39 81       	ldd	r19, Y+1	; 0x01
     7c8:	4a 81       	ldd	r20, Y+2	; 0x02
     7ca:	5b 81       	ldd	r21, Y+3	; 0x03
     7cc:	cf 59       	subi	r28, 0x9F	; 159
     7ce:	d1 40       	sbci	r29, 0x01	; 1
     7d0:	2d 83       	std	Y+5, r18	; 0x05
     7d2:	3e 83       	std	Y+6, r19	; 0x06
     7d4:	4f 83       	std	Y+7, r20	; 0x07
     7d6:	58 87       	std	Y+8, r21	; 0x08

000007d8 <.Loc.196>:
	if (__tmp < 1.0)
     7d8:	20 e0       	ldi	r18, 0x00	; 0
     7da:	30 e0       	ldi	r19, 0x00	; 0
     7dc:	40 e8       	ldi	r20, 0x80	; 128
     7de:	5f e3       	ldi	r21, 0x3F	; 63
     7e0:	6d 81       	ldd	r22, Y+5	; 0x05
     7e2:	7e 81       	ldd	r23, Y+6	; 0x06
     7e4:	8f 81       	ldd	r24, Y+7	; 0x07
     7e6:	98 85       	ldd	r25, Y+8	; 0x08
     7e8:	0e 94 8e 1f 	call	0x3f1c	; 0x3f1c <__cmpsf2>
     7ec:	88 23       	and	r24, r24
     7ee:	2c f4       	brge	.+10     	; 0x7fa <.L320>

000007f0 <.Loc.197>:
		__ticks = 1;
     7f0:	81 e0       	ldi	r24, 0x01	; 1
     7f2:	90 e0       	ldi	r25, 0x00	; 0
     7f4:	9a 87       	std	Y+10, r25	; 0x0a
     7f6:	89 87       	std	Y+9, r24	; 0x09
     7f8:	76 c0       	rjmp	.+236    	; 0x8e6 <.L38>

000007fa <.L320>:
	else if (__tmp > 65535)
     7fa:	20 e0       	ldi	r18, 0x00	; 0
     7fc:	3f ef       	ldi	r19, 0xFF	; 255
     7fe:	4f e7       	ldi	r20, 0x7F	; 127
     800:	57 e4       	ldi	r21, 0x47	; 71
     802:	6d 81       	ldd	r22, Y+5	; 0x05
     804:	7e 81       	ldd	r23, Y+6	; 0x06
     806:	8f 81       	ldd	r24, Y+7	; 0x07
     808:	98 85       	ldd	r25, Y+8	; 0x08
     80a:	0e 94 0f 20 	call	0x401e	; 0x401e <__gesf2>
     80e:	88 23       	and	r24, r24
     810:	09 f0       	breq	.+2      	; 0x814 <L0^A>

00000812 <L0^A>:
     812:	0c f4       	brge	.+2      	; 0x816 <.Loc.199>

00000814 <L0^A>:
     814:	52 c0       	rjmp	.+164    	; 0x8ba <.L321>

00000816 <.Loc.199>:
	{
		//	__ticks = requested delay in 1/10 ms
		__ticks = (uint16_t) (__ms * 10.0);
     816:	20 e0       	ldi	r18, 0x00	; 0
     818:	30 e0       	ldi	r19, 0x00	; 0
     81a:	40 e2       	ldi	r20, 0x20	; 32
     81c:	51 e4       	ldi	r21, 0x41	; 65
     81e:	69 81       	ldd	r22, Y+1	; 0x01
     820:	7a 81       	ldd	r23, Y+2	; 0x02
     822:	8b 81       	ldd	r24, Y+3	; 0x03
     824:	9c 81       	ldd	r25, Y+4	; 0x04
     826:	0e 94 14 20 	call	0x4028	; 0x4028 <__mulsf3>
     82a:	cd 55       	subi	r28, 0x5D	; 93
     82c:	de 4f       	sbci	r29, 0xFE	; 254
     82e:	68 83       	st	Y, r22
     830:	79 83       	std	Y+1, r23	; 0x01
     832:	8a 83       	std	Y+2, r24	; 0x02
     834:	9b 83       	std	Y+3, r25	; 0x03
     836:	c3 5a       	subi	r28, 0xA3	; 163
     838:	d1 40       	sbci	r29, 0x01	; 1
     83a:	cd 55       	subi	r28, 0x5D	; 93
     83c:	de 4f       	sbci	r29, 0xFE	; 254
     83e:	88 81       	ld	r24, Y
     840:	99 81       	ldd	r25, Y+1	; 0x01
     842:	aa 81       	ldd	r26, Y+2	; 0x02
     844:	bb 81       	ldd	r27, Y+3	; 0x03
     846:	c3 5a       	subi	r28, 0xA3	; 163
     848:	d1 40       	sbci	r29, 0x01	; 1
     84a:	cd 5b       	subi	r28, 0xBD	; 189
     84c:	de 4f       	sbci	r29, 0xFE	; 254
     84e:	88 83       	st	Y, r24
     850:	99 83       	std	Y+1, r25	; 0x01
     852:	aa 83       	std	Y+2, r26	; 0x02
     854:	bb 83       	std	Y+3, r27	; 0x03
     856:	c3 54       	subi	r28, 0x43	; 67
     858:	d1 40       	sbci	r29, 0x01	; 1

0000085a <.Loc.200>:
     85a:	cd 5b       	subi	r28, 0xBD	; 189
     85c:	de 4f       	sbci	r29, 0xFE	; 254
     85e:	68 81       	ld	r22, Y
     860:	79 81       	ldd	r23, Y+1	; 0x01
     862:	8a 81       	ldd	r24, Y+2	; 0x02
     864:	9b 81       	ldd	r25, Y+3	; 0x03
     866:	c3 54       	subi	r28, 0x43	; 67
     868:	d1 40       	sbci	r29, 0x01	; 1
     86a:	0e 94 93 1f 	call	0x3f26	; 0x3f26 <__fixunssfsi>
     86e:	c9 55       	subi	r28, 0x59	; 89
     870:	de 4f       	sbci	r29, 0xFE	; 254
     872:	68 83       	st	Y, r22
     874:	79 83       	std	Y+1, r23	; 0x01
     876:	8a 83       	std	Y+2, r24	; 0x02
     878:	9b 83       	std	Y+3, r25	; 0x03
     87a:	c7 5a       	subi	r28, 0xA7	; 167
     87c:	d1 40       	sbci	r29, 0x01	; 1
     87e:	c9 55       	subi	r28, 0x59	; 89
     880:	de 4f       	sbci	r29, 0xFE	; 254
     882:	a8 81       	ld	r26, Y
     884:	b9 81       	ldd	r27, Y+1	; 0x01
     886:	c7 5a       	subi	r28, 0xA7	; 167
     888:	d1 40       	sbci	r29, 0x01	; 1
     88a:	ba 87       	std	Y+10, r27	; 0x0a
     88c:	a9 87       	std	Y+9, r26	; 0x09

0000088e <.Loc.201>:
		while(__ticks)
     88e:	10 c0       	rjmp	.+32     	; 0x8b0 <.L41>

00000890 <.L42>:
     890:	80 e9       	ldi	r24, 0x90	; 144
     892:	91 e0       	ldi	r25, 0x01	; 1
     894:	9c 87       	std	Y+12, r25	; 0x0c
     896:	8b 87       	std	Y+11, r24	; 0x0b

00000898 <.LBB148>:
		"sbc %B0,__zero_reg__"    "\n\t"
		"brne 1b"
		: "+d" (__count)
	);
#else
	__asm__ volatile (
     898:	8b 85       	ldd	r24, Y+11	; 0x0b
     89a:	9c 85       	ldd	r25, Y+12	; 0x0c

0000089c <.L1^B2>:
     89c:	01 97       	sbiw	r24, 0x01	; 1
     89e:	f1 f7       	brne	.-4      	; 0x89c <.L1^B2>
     8a0:	9c 87       	std	Y+12, r25	; 0x0c
     8a2:	8b 87       	std	Y+11, r24	; 0x0b

000008a4 <.Loc.203>:
	...

000008a6 <.LBE148>:
		{
			// wait 1/10 ms
			_delay_loop_2(((F_CPU) / 4e3) / 10);
			__ticks --;
     8a6:	89 85       	ldd	r24, Y+9	; 0x09
     8a8:	9a 85       	ldd	r25, Y+10	; 0x0a
     8aa:	01 97       	sbiw	r24, 0x01	; 1
     8ac:	9a 87       	std	Y+10, r25	; 0x0a
     8ae:	89 87       	std	Y+9, r24	; 0x09

000008b0 <.L41>:
		while(__ticks)
     8b0:	89 85       	ldd	r24, Y+9	; 0x09
     8b2:	9a 85       	ldd	r25, Y+10	; 0x0a
     8b4:	00 97       	sbiw	r24, 0x00	; 0
     8b6:	61 f7       	brne	.-40     	; 0x890 <.L42>

000008b8 <.Loc.206>:
		}
		return;
     8b8:	21 c0       	rjmp	.+66     	; 0x8fc <.L43>

000008ba <.L321>:
	}
	else
		__ticks = (uint16_t)__tmp;
     8ba:	6d 81       	ldd	r22, Y+5	; 0x05
     8bc:	7e 81       	ldd	r23, Y+6	; 0x06
     8be:	8f 81       	ldd	r24, Y+7	; 0x07
     8c0:	98 85       	ldd	r25, Y+8	; 0x08
     8c2:	0e 94 93 1f 	call	0x3f26	; 0x3f26 <__fixunssfsi>
     8c6:	c5 55       	subi	r28, 0x55	; 85
     8c8:	de 4f       	sbci	r29, 0xFE	; 254
     8ca:	68 83       	st	Y, r22
     8cc:	79 83       	std	Y+1, r23	; 0x01
     8ce:	8a 83       	std	Y+2, r24	; 0x02
     8d0:	9b 83       	std	Y+3, r25	; 0x03
     8d2:	cb 5a       	subi	r28, 0xAB	; 171
     8d4:	d1 40       	sbci	r29, 0x01	; 1
     8d6:	c5 55       	subi	r28, 0x55	; 85
     8d8:	de 4f       	sbci	r29, 0xFE	; 254
     8da:	e8 81       	ld	r30, Y
     8dc:	f9 81       	ldd	r31, Y+1	; 0x01
     8de:	cb 5a       	subi	r28, 0xAB	; 171
     8e0:	d1 40       	sbci	r29, 0x01	; 1
     8e2:	fa 87       	std	Y+10, r31	; 0x0a
     8e4:	e9 87       	std	Y+9, r30	; 0x09

000008e6 <.L38>:
     8e6:	89 85       	ldd	r24, Y+9	; 0x09
     8e8:	9a 85       	ldd	r25, Y+10	; 0x0a
     8ea:	9e 87       	std	Y+14, r25	; 0x0e
     8ec:	8d 87       	std	Y+13, r24	; 0x0d

000008ee <.LBB150>:
     8ee:	8d 85       	ldd	r24, Y+13	; 0x0d
     8f0:	9e 85       	ldd	r25, Y+14	; 0x0e

000008f2 <.L1^B3>:
     8f2:	01 97       	sbiw	r24, 0x01	; 1
     8f4:	f1 f7       	brne	.-4      	; 0x8f2 <.L1^B3>
     8f6:	9e 87       	std	Y+14, r25	; 0x0e
     8f8:	8d 87       	std	Y+13, r24	; 0x0d

000008fa <.Loc.209>:
	...

000008fc <.L43>:
                {
                                _delay_ms(30);
                                StepCounterY=n;
     8fc:	80 91 12 02 	lds	r24, 0x0212	; 0x800212 <n>
     900:	90 91 13 02 	lds	r25, 0x0213	; 0x800213 <n+0x1>
     904:	90 93 03 02 	sts	0x0203, r25	; 0x800203 <StepCounterY+0x1>
     908:	80 93 02 02 	sts	0x0202, r24	; 0x800202 <StepCounterY>

0000090c <.Loc.211>:
                                MenuLayer = 10;
     90c:	8a e0       	ldi	r24, 0x0A	; 10
     90e:	90 e0       	ldi	r25, 0x00	; 0
     910:	90 93 01 02 	sts	0x0201, r25	; 0x800201 <MenuLayer+0x1>
     914:	80 93 00 02 	sts	0x0200, r24	; 0x800200 <MenuLayer>

00000918 <.Loc.212>:
                                DisplayState = 'None';
     918:	85 e6       	ldi	r24, 0x65	; 101
     91a:	80 93 06 02 	sts	0x0206, r24	; 0x800206 <DisplayState>

0000091e <.L35>:
                }



        	switch(MenuLayer) {
     91e:	80 91 00 02 	lds	r24, 0x0200	; 0x800200 <MenuLayer>
     922:	90 91 01 02 	lds	r25, 0x0201	; 0x800201 <MenuLayer+0x1>
     926:	09 2e       	mov	r0, r25
     928:	00 0c       	add	r0, r0
     92a:	aa 0b       	sbc	r26, r26
     92c:	bb 0b       	sbc	r27, r27
     92e:	0a 97       	sbiw	r24, 0x0a	; 10
     930:	a1 09       	sbc	r26, r1
     932:	b1 09       	sbc	r27, r1
     934:	8c 33       	cpi	r24, 0x3C	; 60
     936:	91 05       	cpc	r25, r1
     938:	a1 05       	cpc	r26, r1
     93a:	b1 05       	cpc	r27, r1
     93c:	11 f0       	breq	.+4      	; 0x942 <L0^A+0x2>

0000093e <L0^A>:
     93e:	08 f0       	brcs	.+2      	; 0x942 <L0^A+0x2>

00000940 <L0^A>:
     940:	1a cf       	rjmp	.-460    	; 0x776 <.L273>
     942:	fc 01       	movw	r30, r24
     944:	88 27       	eor	r24, r24
     946:	e5 55       	subi	r30, 0x55	; 85
     948:	ff 4d       	sbci	r31, 0xDF	; 223
     94a:	8f 4f       	sbci	r24, 0xFF	; 255
     94c:	0c 94 63 1f 	jmp	0x3ec6	; 0x3ec6 <__tablejump2__>

00000950 <.L57>:

                case 10:{ //Home Z
                n=1; Refresh(); //Voor debug purposes, zet het display op: 1
     950:	81 e0       	ldi	r24, 0x01	; 1
     952:	90 e0       	ldi	r25, 0x00	; 0
     954:	90 93 13 02 	sts	0x0213, r25	; 0x800213 <n+0x1>
     958:	80 93 12 02 	sts	0x0212, r24	; 0x800212 <n>

0000095c <.Loc.215>:
     95c:	0e 94 2c 03 	call	0x658	; 0x658 <Refresh>

00000960 <.Loc.216>:
                PORTA = ~(1 << (PA1));//Magneet Grijpt niet meer
     960:	82 e2       	ldi	r24, 0x22	; 34
     962:	90 e0       	ldi	r25, 0x00	; 0

00000964 <.Loc.217>:
     964:	2d ef       	ldi	r18, 0xFD	; 253
     966:	dc 01       	movw	r26, r24
     968:	2c 93       	st	X, r18

0000096a <.Loc.218>:
                PORTB ^= (1 << PB4); //Debug Light Magneet
     96a:	85 e2       	ldi	r24, 0x25	; 37
     96c:	90 e0       	ldi	r25, 0x00	; 0
     96e:	fc 01       	movw	r30, r24
     970:	30 81       	ld	r19, Z
     972:	85 e2       	ldi	r24, 0x25	; 37
     974:	90 e0       	ldi	r25, 0x00	; 0

00000976 <.Loc.219>:
     976:	20 e1       	ldi	r18, 0x10	; 16
     978:	23 27       	eor	r18, r19
     97a:	dc 01       	movw	r26, r24
     97c:	2c 93       	st	X, r18

0000097e <.Loc.220>:



                PORTA = ~(1 << PA4);//Switch relais naar Z-as.
     97e:	82 e2       	ldi	r24, 0x22	; 34
     980:	90 e0       	ldi	r25, 0x00	; 0

00000982 <.Loc.221>:
     982:	2f ee       	ldi	r18, 0xEF	; 239
     984:	fc 01       	movw	r30, r24
     986:	20 83       	st	Z, r18

00000988 <.Loc.222>:
                PORTB ^= (1 << PB5); //Debug Light Z-as
     988:	85 e2       	ldi	r24, 0x25	; 37
     98a:	90 e0       	ldi	r25, 0x00	; 0
     98c:	dc 01       	movw	r26, r24
     98e:	3c 91       	ld	r19, X
     990:	85 e2       	ldi	r24, 0x25	; 37
     992:	90 e0       	ldi	r25, 0x00	; 0

00000994 <.Loc.223>:
     994:	20 e2       	ldi	r18, 0x20	; 32
     996:	23 27       	eor	r18, r19
     998:	fc 01       	movw	r30, r24
     99a:	20 83       	st	Z, r18

0000099c <.Loc.224>:
                h_bridge_set_percentage(10); //Zet h-brug voor Z-As
     99c:	8a e0       	ldi	r24, 0x0A	; 10
     99e:	0e 94 bd 01 	call	0x37a	; 0x37a <h_bridge_set_percentage>

000009a2 <.Loc.225>:
                    if (PINC & (1 << PC2)) {
     9a2:	86 e2       	ldi	r24, 0x26	; 38
     9a4:	90 e0       	ldi	r25, 0x00	; 0
     9a6:	dc 01       	movw	r26, r24
     9a8:	8c 91       	ld	r24, X

000009aa <.Loc.226>:
     9aa:	88 2f       	mov	r24, r24
     9ac:	90 e0       	ldi	r25, 0x00	; 0
     9ae:	84 70       	andi	r24, 0x04	; 4
     9b0:	99 27       	eor	r25, r25

000009b2 <.Loc.227>:
     9b2:	00 97       	sbiw	r24, 0x00	; 0
     9b4:	11 f4       	brne	.+4      	; 0x9ba <.Loc.228>

000009b6 <L0^A>:
     9b6:	0c 94 12 1f 	jmp	0x3e24	; 0x3e24 <.L366>

000009ba <.Loc.228>:
                        h_bridge_set_percentage(0); //Als de switch geclicked wordt zet hbrug uit.
     9ba:	80 e0       	ldi	r24, 0x00	; 0
     9bc:	0e 94 bd 01 	call	0x37a	; 0x37a <h_bridge_set_percentage>

000009c0 <.Loc.229>:
                        MenuLayer = 11;
     9c0:	8b e0       	ldi	r24, 0x0B	; 11
     9c2:	90 e0       	ldi	r25, 0x00	; 0
     9c4:	90 93 01 02 	sts	0x0201, r25	; 0x800201 <MenuLayer+0x1>
     9c8:	80 93 00 02 	sts	0x0200, r24	; 0x800200 <MenuLayer>

000009cc <.Loc.230>:
                        PORTA = (1 << PA4);//Switch Relais off of Z-as.
     9cc:	82 e2       	ldi	r24, 0x22	; 34
     9ce:	90 e0       	ldi	r25, 0x00	; 0

000009d0 <.Loc.231>:
     9d0:	20 e1       	ldi	r18, 0x10	; 16
     9d2:	fc 01       	movw	r30, r24
     9d4:	20 83       	st	Z, r18

000009d6 <.Loc.232>:
                        PORTB ^= (1 << PB5); //Debug Light Z-as
     9d6:	85 e2       	ldi	r24, 0x25	; 37
     9d8:	90 e0       	ldi	r25, 0x00	; 0
     9da:	dc 01       	movw	r26, r24
     9dc:	3c 91       	ld	r19, X
     9de:	85 e2       	ldi	r24, 0x25	; 37
     9e0:	90 e0       	ldi	r25, 0x00	; 0

000009e2 <.Loc.233>:
     9e2:	20 e2       	ldi	r18, 0x20	; 32
     9e4:	23 27       	eor	r18, r19
     9e6:	fc 01       	movw	r30, r24
     9e8:	20 83       	st	Z, r18

000009ea <.Loc.234>:
                        }
                }break;
     9ea:	0c 94 12 1f 	jmp	0x3e24	; 0x3e24 <.L366>

000009ee <.L56>:

                case 11:{ // Home X
                n=2; Refresh();
     9ee:	82 e0       	ldi	r24, 0x02	; 2
     9f0:	90 e0       	ldi	r25, 0x00	; 0
     9f2:	90 93 13 02 	sts	0x0213, r25	; 0x800213 <n+0x1>
     9f6:	80 93 12 02 	sts	0x0212, r24	; 0x800212 <n>

000009fa <.Loc.236>:
     9fa:	0e 94 2c 03 	call	0x658	; 0x658 <Refresh>

000009fe <.Loc.237>:
                PORTA = ~(1 << PA2);//Switch relais naar Y-as. (Eogenijk X-as)
     9fe:	82 e2       	ldi	r24, 0x22	; 34
     a00:	90 e0       	ldi	r25, 0x00	; 0

00000a02 <.Loc.238>:
     a02:	2b ef       	ldi	r18, 0xFB	; 251
     a04:	dc 01       	movw	r26, r24
     a06:	2c 93       	st	X, r18

00000a08 <.Loc.239>:
                PORTB ^= (1 << PB6); //Debug Light Y-as
     a08:	85 e2       	ldi	r24, 0x25	; 37
     a0a:	90 e0       	ldi	r25, 0x00	; 0
     a0c:	fc 01       	movw	r30, r24
     a0e:	30 81       	ld	r19, Z
     a10:	85 e2       	ldi	r24, 0x25	; 37
     a12:	90 e0       	ldi	r25, 0x00	; 0

00000a14 <.Loc.240>:
     a14:	20 e4       	ldi	r18, 0x40	; 64
     a16:	23 27       	eor	r18, r19
     a18:	dc 01       	movw	r26, r24
     a1a:	2c 93       	st	X, r18

00000a1c <.Loc.241>:
                h_bridge_set_percentage(-80); //Zou net wat minder dan 12 moeten zijn.
     a1c:	80 eb       	ldi	r24, 0xB0	; 176
     a1e:	0e 94 bd 01 	call	0x37a	; 0x37a <h_bridge_set_percentage>

00000a22 <.Loc.242>:

                    if (PINC & (1 << PC6)) {
     a22:	86 e2       	ldi	r24, 0x26	; 38
     a24:	90 e0       	ldi	r25, 0x00	; 0
     a26:	fc 01       	movw	r30, r24
     a28:	80 81       	ld	r24, Z

00000a2a <.Loc.243>:
     a2a:	88 2f       	mov	r24, r24
     a2c:	90 e0       	ldi	r25, 0x00	; 0
     a2e:	80 74       	andi	r24, 0x40	; 64
     a30:	99 27       	eor	r25, r25

00000a32 <.Loc.244>:
     a32:	00 97       	sbiw	r24, 0x00	; 0
     a34:	11 f4       	brne	.+4      	; 0xa3a <.Loc.245>

00000a36 <L0^A>:
     a36:	0c 94 15 1f 	jmp	0x3e2a	; 0x3e2a <.L367>

00000a3a <.Loc.245>:
                        h_bridge_set_percentage(0);
     a3a:	80 e0       	ldi	r24, 0x00	; 0
     a3c:	0e 94 bd 01 	call	0x37a	; 0x37a <h_bridge_set_percentage>

00000a40 <.Loc.246>:
                        MenuLayer = 12;
     a40:	8c e0       	ldi	r24, 0x0C	; 12
     a42:	90 e0       	ldi	r25, 0x00	; 0
     a44:	90 93 01 02 	sts	0x0201, r25	; 0x800201 <MenuLayer+0x1>
     a48:	80 93 00 02 	sts	0x0200, r24	; 0x800200 <MenuLayer>

00000a4c <.Loc.247>:
                        PORTA = (1 << PA2);//Switch Relais off of X-as.
     a4c:	82 e2       	ldi	r24, 0x22	; 34
     a4e:	90 e0       	ldi	r25, 0x00	; 0

00000a50 <.Loc.248>:
     a50:	24 e0       	ldi	r18, 0x04	; 4
     a52:	dc 01       	movw	r26, r24
     a54:	2c 93       	st	X, r18

00000a56 <.Loc.249>:
                        PORTB ^= (1 << PB6); //Debug Light Y-as
     a56:	85 e2       	ldi	r24, 0x25	; 37
     a58:	90 e0       	ldi	r25, 0x00	; 0
     a5a:	fc 01       	movw	r30, r24
     a5c:	30 81       	ld	r19, Z
     a5e:	85 e2       	ldi	r24, 0x25	; 37
     a60:	90 e0       	ldi	r25, 0x00	; 0

00000a62 <.Loc.250>:
     a62:	20 e4       	ldi	r18, 0x40	; 64
     a64:	23 27       	eor	r18, r19
     a66:	dc 01       	movw	r26, r24
     a68:	2c 93       	st	X, r18

00000a6a <.Loc.251>:
                        }
                }break;
     a6a:	0c 94 15 1f 	jmp	0x3e2a	; 0x3e2a <.L367>

00000a6e <.L55>:

                case 12:{ //Home z
                n=3; Refresh();
     a6e:	83 e0       	ldi	r24, 0x03	; 3
     a70:	90 e0       	ldi	r25, 0x00	; 0
     a72:	90 93 13 02 	sts	0x0213, r25	; 0x800213 <n+0x1>
     a76:	80 93 12 02 	sts	0x0212, r24	; 0x800212 <n>

00000a7a <.Loc.253>:
     a7a:	0e 94 2c 03 	call	0x658	; 0x658 <Refresh>

00000a7e <.Loc.254>:
                PORTA = ~(1 << PA0);//Switch relais naar X-as. (Eogenijk y-as)
     a7e:	82 e2       	ldi	r24, 0x22	; 34
     a80:	90 e0       	ldi	r25, 0x00	; 0

00000a82 <.Loc.255>:
     a82:	2e ef       	ldi	r18, 0xFE	; 254
     a84:	fc 01       	movw	r30, r24
     a86:	20 83       	st	Z, r18

00000a88 <.Loc.256>:
                PORTB ^= (1 << PB7); //Debug Light X-as
     a88:	85 e2       	ldi	r24, 0x25	; 37
     a8a:	90 e0       	ldi	r25, 0x00	; 0
     a8c:	dc 01       	movw	r26, r24
     a8e:	3c 91       	ld	r19, X
     a90:	85 e2       	ldi	r24, 0x25	; 37
     a92:	90 e0       	ldi	r25, 0x00	; 0

00000a94 <.Loc.257>:
     a94:	20 e8       	ldi	r18, 0x80	; 128
     a96:	23 27       	eor	r18, r19
     a98:	fc 01       	movw	r30, r24
     a9a:	20 83       	st	Z, r18

00000a9c <.Loc.258>:
                h_bridge_set_percentage(-20); //Zou net wat minder dan 12 moeten zijn.
     a9c:	8c ee       	ldi	r24, 0xEC	; 236
     a9e:	0e 94 bd 01 	call	0x37a	; 0x37a <h_bridge_set_percentage>

00000aa2 <.Loc.259>:

                    if (PINC & (1 << PC4)) {
     aa2:	86 e2       	ldi	r24, 0x26	; 38
     aa4:	90 e0       	ldi	r25, 0x00	; 0
     aa6:	dc 01       	movw	r26, r24
     aa8:	8c 91       	ld	r24, X

00000aaa <.Loc.260>:
     aaa:	88 2f       	mov	r24, r24
     aac:	90 e0       	ldi	r25, 0x00	; 0
     aae:	80 71       	andi	r24, 0x10	; 16
     ab0:	99 27       	eor	r25, r25

00000ab2 <.Loc.261>:
     ab2:	00 97       	sbiw	r24, 0x00	; 0
     ab4:	11 f4       	brne	.+4      	; 0xaba <.Loc.262>

00000ab6 <L0^A>:
     ab6:	0c 94 18 1f 	jmp	0x3e30	; 0x3e30 <.L368>

00000aba <.Loc.262>:
                        h_bridge_set_percentage(0);
     aba:	80 e0       	ldi	r24, 0x00	; 0
     abc:	0e 94 bd 01 	call	0x37a	; 0x37a <h_bridge_set_percentage>

00000ac0 <.Loc.263>:
                        MenuLayer = 20;
     ac0:	84 e1       	ldi	r24, 0x14	; 20
     ac2:	90 e0       	ldi	r25, 0x00	; 0
     ac4:	90 93 01 02 	sts	0x0201, r25	; 0x800201 <MenuLayer+0x1>
     ac8:	80 93 00 02 	sts	0x0200, r24	; 0x800200 <MenuLayer>

00000acc <.Loc.264>:
                        PORTA = (1 << PA0);//Switch Relais off of X-as.
     acc:	82 e2       	ldi	r24, 0x22	; 34
     ace:	90 e0       	ldi	r25, 0x00	; 0

00000ad0 <.Loc.265>:
     ad0:	21 e0       	ldi	r18, 0x01	; 1
     ad2:	fc 01       	movw	r30, r24
     ad4:	20 83       	st	Z, r18

00000ad6 <.Loc.266>:
                        PORTB ^= (1 << PB7); //Debug Light X-as
     ad6:	85 e2       	ldi	r24, 0x25	; 37
     ad8:	90 e0       	ldi	r25, 0x00	; 0
     ada:	dc 01       	movw	r26, r24
     adc:	3c 91       	ld	r19, X
     ade:	85 e2       	ldi	r24, 0x25	; 37
     ae0:	90 e0       	ldi	r25, 0x00	; 0

00000ae2 <.Loc.267>:
     ae2:	20 e8       	ldi	r18, 0x80	; 128
     ae4:	23 27       	eor	r18, r19
     ae6:	fc 01       	movw	r30, r24
     ae8:	20 83       	st	Z, r18

00000aea <.Loc.268>:
                        }
                }break;
     aea:	0c 94 18 1f 	jmp	0x3e30	; 0x3e30 <.L368>

00000aee <.L54>:


                case 20:{ //Select X
                DisplayState = 'X';
     aee:	88 e5       	ldi	r24, 0x58	; 88
     af0:	80 93 06 02 	sts	0x0206, r24	; 0x800206 <DisplayState>

00000af4 <.Loc.270>:

                    if ((PINL & (1 << PL0)) == 0)
     af4:	89 e0       	ldi	r24, 0x09	; 9
     af6:	91 e0       	ldi	r25, 0x01	; 1
     af8:	dc 01       	movw	r26, r24
     afa:	8c 91       	ld	r24, X

00000afc <.Loc.271>:
     afc:	88 2f       	mov	r24, r24
     afe:	90 e0       	ldi	r25, 0x00	; 0
     b00:	81 70       	andi	r24, 0x01	; 1
     b02:	99 27       	eor	r25, r25

00000b04 <.Loc.272>:
     b04:	00 97       	sbiw	r24, 0x00	; 0
     b06:	09 f0       	breq	.+2      	; 0xb0a <.Loc.273>

00000b08 <L0^A>:
     b08:	dd c0       	rjmp	.+442    	; 0xcc4 <.L61>

00000b0a <.Loc.273>:
                        {
                            if (knop1_ingedrukt == 0) // knop is niet al eerder ingedrukt
     b0a:	80 91 18 02 	lds	r24, 0x0218	; 0x800218 <knop1_ingedrukt>
     b0e:	90 91 19 02 	lds	r25, 0x0219	; 0x800219 <knop1_ingedrukt+0x1>

00000b12 <.Loc.274>:
     b12:	00 97       	sbiw	r24, 0x00	; 0
     b14:	09 f0       	breq	.+2      	; 0xb18 <L0^A+0x2>

00000b16 <L0^A>:
     b16:	99 c1       	rjmp	.+818    	; 0xe4a <.L62>
     b18:	80 e0       	ldi	r24, 0x00	; 0
     b1a:	90 e0       	ldi	r25, 0x00	; 0
     b1c:	a0 ef       	ldi	r26, 0xF0	; 240
     b1e:	b1 e4       	ldi	r27, 0x41	; 65
     b20:	8f 87       	std	Y+15, r24	; 0x0f
     b22:	98 8b       	std	Y+16, r25	; 0x10
     b24:	a9 8b       	std	Y+17, r26	; 0x11
     b26:	ba 8b       	std	Y+18, r27	; 0x12

00000b28 <.LBB152>:
	__tmp = ((F_CPU) / 4e3) * __ms;
     b28:	20 e0       	ldi	r18, 0x00	; 0
     b2a:	30 e0       	ldi	r19, 0x00	; 0
     b2c:	4a e7       	ldi	r20, 0x7A	; 122
     b2e:	55 e4       	ldi	r21, 0x45	; 69
     b30:	6f 85       	ldd	r22, Y+15	; 0x0f
     b32:	78 89       	ldd	r23, Y+16	; 0x10
     b34:	89 89       	ldd	r24, Y+17	; 0x11
     b36:	9a 89       	ldd	r25, Y+18	; 0x12
     b38:	0e 94 14 20 	call	0x4028	; 0x4028 <__mulsf3>
     b3c:	c1 55       	subi	r28, 0x51	; 81
     b3e:	de 4f       	sbci	r29, 0xFE	; 254
     b40:	68 83       	st	Y, r22
     b42:	79 83       	std	Y+1, r23	; 0x01
     b44:	8a 83       	std	Y+2, r24	; 0x02
     b46:	9b 83       	std	Y+3, r25	; 0x03
     b48:	cf 5a       	subi	r28, 0xAF	; 175
     b4a:	d1 40       	sbci	r29, 0x01	; 1
     b4c:	c1 55       	subi	r28, 0x51	; 81
     b4e:	de 4f       	sbci	r29, 0xFE	; 254
     b50:	28 81       	ld	r18, Y
     b52:	39 81       	ldd	r19, Y+1	; 0x01
     b54:	4a 81       	ldd	r20, Y+2	; 0x02
     b56:	5b 81       	ldd	r21, Y+3	; 0x03
     b58:	cf 5a       	subi	r28, 0xAF	; 175
     b5a:	d1 40       	sbci	r29, 0x01	; 1
     b5c:	2b 8b       	std	Y+19, r18	; 0x13
     b5e:	3c 8b       	std	Y+20, r19	; 0x14
     b60:	4d 8b       	std	Y+21, r20	; 0x15
     b62:	5e 8b       	std	Y+22, r21	; 0x16

00000b64 <.Loc.276>:
	if (__tmp < 1.0)
     b64:	20 e0       	ldi	r18, 0x00	; 0
     b66:	30 e0       	ldi	r19, 0x00	; 0
     b68:	40 e8       	ldi	r20, 0x80	; 128
     b6a:	5f e3       	ldi	r21, 0x3F	; 63
     b6c:	6b 89       	ldd	r22, Y+19	; 0x13
     b6e:	7c 89       	ldd	r23, Y+20	; 0x14
     b70:	8d 89       	ldd	r24, Y+21	; 0x15
     b72:	9e 89       	ldd	r25, Y+22	; 0x16
     b74:	0e 94 8e 1f 	call	0x3f1c	; 0x3f1c <__cmpsf2>
     b78:	88 23       	and	r24, r24
     b7a:	2c f4       	brge	.+10     	; 0xb86 <.L322>

00000b7c <.Loc.277>:
		__ticks = 1;
     b7c:	81 e0       	ldi	r24, 0x01	; 1
     b7e:	90 e0       	ldi	r25, 0x00	; 0
     b80:	98 8f       	std	Y+24, r25	; 0x18
     b82:	8f 8b       	std	Y+23, r24	; 0x17
     b84:	76 c0       	rjmp	.+236    	; 0xc72 <.L65>

00000b86 <.L322>:
	else if (__tmp > 65535)
     b86:	20 e0       	ldi	r18, 0x00	; 0
     b88:	3f ef       	ldi	r19, 0xFF	; 255
     b8a:	4f e7       	ldi	r20, 0x7F	; 127
     b8c:	57 e4       	ldi	r21, 0x47	; 71
     b8e:	6b 89       	ldd	r22, Y+19	; 0x13
     b90:	7c 89       	ldd	r23, Y+20	; 0x14
     b92:	8d 89       	ldd	r24, Y+21	; 0x15
     b94:	9e 89       	ldd	r25, Y+22	; 0x16
     b96:	0e 94 0f 20 	call	0x401e	; 0x401e <__gesf2>
     b9a:	88 23       	and	r24, r24
     b9c:	09 f0       	breq	.+2      	; 0xba0 <L0^A>

00000b9e <L0^A>:
     b9e:	0c f4       	brge	.+2      	; 0xba2 <.Loc.279>

00000ba0 <L0^A>:
     ba0:	52 c0       	rjmp	.+164    	; 0xc46 <.L323>

00000ba2 <.Loc.279>:
		__ticks = (uint16_t) (__ms * 10.0);
     ba2:	20 e0       	ldi	r18, 0x00	; 0
     ba4:	30 e0       	ldi	r19, 0x00	; 0
     ba6:	40 e2       	ldi	r20, 0x20	; 32
     ba8:	51 e4       	ldi	r21, 0x41	; 65
     baa:	6f 85       	ldd	r22, Y+15	; 0x0f
     bac:	78 89       	ldd	r23, Y+16	; 0x10
     bae:	89 89       	ldd	r24, Y+17	; 0x11
     bb0:	9a 89       	ldd	r25, Y+18	; 0x12
     bb2:	0e 94 14 20 	call	0x4028	; 0x4028 <__mulsf3>
     bb6:	cd 54       	subi	r28, 0x4D	; 77
     bb8:	de 4f       	sbci	r29, 0xFE	; 254
     bba:	68 83       	st	Y, r22
     bbc:	79 83       	std	Y+1, r23	; 0x01
     bbe:	8a 83       	std	Y+2, r24	; 0x02
     bc0:	9b 83       	std	Y+3, r25	; 0x03
     bc2:	c3 5b       	subi	r28, 0xB3	; 179
     bc4:	d1 40       	sbci	r29, 0x01	; 1
     bc6:	cd 54       	subi	r28, 0x4D	; 77
     bc8:	de 4f       	sbci	r29, 0xFE	; 254
     bca:	88 81       	ld	r24, Y
     bcc:	99 81       	ldd	r25, Y+1	; 0x01
     bce:	aa 81       	ldd	r26, Y+2	; 0x02
     bd0:	bb 81       	ldd	r27, Y+3	; 0x03
     bd2:	c3 5b       	subi	r28, 0xB3	; 179
     bd4:	d1 40       	sbci	r29, 0x01	; 1
     bd6:	c9 5b       	subi	r28, 0xB9	; 185
     bd8:	de 4f       	sbci	r29, 0xFE	; 254
     bda:	88 83       	st	Y, r24
     bdc:	99 83       	std	Y+1, r25	; 0x01
     bde:	aa 83       	std	Y+2, r26	; 0x02
     be0:	bb 83       	std	Y+3, r27	; 0x03
     be2:	c7 54       	subi	r28, 0x47	; 71
     be4:	d1 40       	sbci	r29, 0x01	; 1

00000be6 <.Loc.280>:
     be6:	c9 5b       	subi	r28, 0xB9	; 185
     be8:	de 4f       	sbci	r29, 0xFE	; 254
     bea:	68 81       	ld	r22, Y
     bec:	79 81       	ldd	r23, Y+1	; 0x01
     bee:	8a 81       	ldd	r24, Y+2	; 0x02
     bf0:	9b 81       	ldd	r25, Y+3	; 0x03
     bf2:	c7 54       	subi	r28, 0x47	; 71
     bf4:	d1 40       	sbci	r29, 0x01	; 1
     bf6:	0e 94 93 1f 	call	0x3f26	; 0x3f26 <__fixunssfsi>
     bfa:	c9 54       	subi	r28, 0x49	; 73
     bfc:	de 4f       	sbci	r29, 0xFE	; 254
     bfe:	68 83       	st	Y, r22
     c00:	79 83       	std	Y+1, r23	; 0x01
     c02:	8a 83       	std	Y+2, r24	; 0x02
     c04:	9b 83       	std	Y+3, r25	; 0x03
     c06:	c7 5b       	subi	r28, 0xB7	; 183
     c08:	d1 40       	sbci	r29, 0x01	; 1
     c0a:	c9 54       	subi	r28, 0x49	; 73
     c0c:	de 4f       	sbci	r29, 0xFE	; 254
     c0e:	a8 81       	ld	r26, Y
     c10:	b9 81       	ldd	r27, Y+1	; 0x01
     c12:	c7 5b       	subi	r28, 0xB7	; 183
     c14:	d1 40       	sbci	r29, 0x01	; 1
     c16:	b8 8f       	std	Y+24, r27	; 0x18
     c18:	af 8b       	std	Y+23, r26	; 0x17

00000c1a <.Loc.281>:
		while(__ticks)
     c1a:	10 c0       	rjmp	.+32     	; 0xc3c <.L68>

00000c1c <.L69>:
     c1c:	80 e9       	ldi	r24, 0x90	; 144
     c1e:	91 e0       	ldi	r25, 0x01	; 1
     c20:	9a 8f       	std	Y+26, r25	; 0x1a
     c22:	89 8f       	std	Y+25, r24	; 0x19

00000c24 <.LBB154>:
     c24:	89 8d       	ldd	r24, Y+25	; 0x19
     c26:	9a 8d       	ldd	r25, Y+26	; 0x1a

00000c28 <.L1^B4>:
     c28:	01 97       	sbiw	r24, 0x01	; 1
     c2a:	f1 f7       	brne	.-4      	; 0xc28 <.L1^B4>
     c2c:	9a 8f       	std	Y+26, r25	; 0x1a
     c2e:	89 8f       	std	Y+25, r24	; 0x19

00000c30 <.Loc.283>:
	...

00000c32 <.LBE154>:
			__ticks --;
     c32:	8f 89       	ldd	r24, Y+23	; 0x17
     c34:	98 8d       	ldd	r25, Y+24	; 0x18
     c36:	01 97       	sbiw	r24, 0x01	; 1
     c38:	98 8f       	std	Y+24, r25	; 0x18
     c3a:	8f 8b       	std	Y+23, r24	; 0x17

00000c3c <.L68>:
		while(__ticks)
     c3c:	8f 89       	ldd	r24, Y+23	; 0x17
     c3e:	98 8d       	ldd	r25, Y+24	; 0x18
     c40:	00 97       	sbiw	r24, 0x00	; 0
     c42:	61 f7       	brne	.-40     	; 0xc1c <.L69>

00000c44 <.Loc.286>:
		return;
     c44:	21 c0       	rjmp	.+66     	; 0xc88 <.L70>

00000c46 <.L323>:
		__ticks = (uint16_t)__tmp;
     c46:	6b 89       	ldd	r22, Y+19	; 0x13
     c48:	7c 89       	ldd	r23, Y+20	; 0x14
     c4a:	8d 89       	ldd	r24, Y+21	; 0x15
     c4c:	9e 89       	ldd	r25, Y+22	; 0x16
     c4e:	0e 94 93 1f 	call	0x3f26	; 0x3f26 <__fixunssfsi>
     c52:	c5 54       	subi	r28, 0x45	; 69
     c54:	de 4f       	sbci	r29, 0xFE	; 254
     c56:	68 83       	st	Y, r22
     c58:	79 83       	std	Y+1, r23	; 0x01
     c5a:	8a 83       	std	Y+2, r24	; 0x02
     c5c:	9b 83       	std	Y+3, r25	; 0x03
     c5e:	cb 5b       	subi	r28, 0xBB	; 187
     c60:	d1 40       	sbci	r29, 0x01	; 1
     c62:	c5 54       	subi	r28, 0x45	; 69
     c64:	de 4f       	sbci	r29, 0xFE	; 254
     c66:	e8 81       	ld	r30, Y
     c68:	f9 81       	ldd	r31, Y+1	; 0x01
     c6a:	cb 5b       	subi	r28, 0xBB	; 187
     c6c:	d1 40       	sbci	r29, 0x01	; 1
     c6e:	f8 8f       	std	Y+24, r31	; 0x18
     c70:	ef 8b       	std	Y+23, r30	; 0x17

00000c72 <.L65>:
     c72:	8f 89       	ldd	r24, Y+23	; 0x17
     c74:	98 8d       	ldd	r25, Y+24	; 0x18
     c76:	9c 8f       	std	Y+28, r25	; 0x1c
     c78:	8b 8f       	std	Y+27, r24	; 0x1b

00000c7a <.LBB156>:
     c7a:	8b 8d       	ldd	r24, Y+27	; 0x1b
     c7c:	9c 8d       	ldd	r25, Y+28	; 0x1c

00000c7e <.L1^B5>:
     c7e:	01 97       	sbiw	r24, 0x01	; 1
     c80:	f1 f7       	brne	.-4      	; 0xc7e <.L1^B5>
     c82:	9c 8f       	std	Y+28, r25	; 0x1c
     c84:	8b 8f       	std	Y+27, r24	; 0x1b

00000c86 <.Loc.289>:
	...

00000c88 <.L70>:
                            {
                                _delay_ms(30);
                                if (n>0) //Just here to make sure we don't go into the negatives, since those don't work.
     c88:	80 91 12 02 	lds	r24, 0x0212	; 0x800212 <n>
     c8c:	90 91 13 02 	lds	r25, 0x0213	; 0x800213 <n+0x1>

00000c90 <.Loc.291>:
     c90:	00 97       	sbiw	r24, 0x00	; 0
     c92:	59 f0       	breq	.+22     	; 0xcaa <.L71>
     c94:	54 f0       	brlt	.+20     	; 0xcaa <.L71>

00000c96 <.Loc.292>:
                                    {
                                    n-=1;
     c96:	80 91 12 02 	lds	r24, 0x0212	; 0x800212 <n>
     c9a:	90 91 13 02 	lds	r25, 0x0213	; 0x800213 <n+0x1>
     c9e:	01 97       	sbiw	r24, 0x01	; 1
     ca0:	90 93 13 02 	sts	0x0213, r25	; 0x800213 <n+0x1>
     ca4:	80 93 12 02 	sts	0x0212, r24	; 0x800212 <n>
     ca8:	06 c0       	rjmp	.+12     	; 0xcb6 <.L72>

00000caa <.L71>:
                                    }
                                else {  //Wraparound Action baybee!
                                        n=8;
     caa:	88 e0       	ldi	r24, 0x08	; 8
     cac:	90 e0       	ldi	r25, 0x00	; 0
     cae:	90 93 13 02 	sts	0x0213, r25	; 0x800213 <n+0x1>
     cb2:	80 93 12 02 	sts	0x0212, r24	; 0x800212 <n>

00000cb6 <.L72>:
                                     }
                                knop1_ingedrukt = 1;
     cb6:	81 e0       	ldi	r24, 0x01	; 1
     cb8:	90 e0       	ldi	r25, 0x00	; 0
     cba:	90 93 19 02 	sts	0x0219, r25	; 0x800219 <knop1_ingedrukt+0x1>
     cbe:	80 93 18 02 	sts	0x0218, r24	; 0x800218 <knop1_ingedrukt>
     cc2:	c3 c0       	rjmp	.+390    	; 0xe4a <.L62>

00000cc4 <.L61>:
                            }
                        }
                    else
                        {
                        if (knop1_ingedrukt != 0) // knop is zojuist losgelaten
     cc4:	80 91 18 02 	lds	r24, 0x0218	; 0x800218 <knop1_ingedrukt>
     cc8:	90 91 19 02 	lds	r25, 0x0219	; 0x800219 <knop1_ingedrukt+0x1>

00000ccc <.Loc.296>:
     ccc:	00 97       	sbiw	r24, 0x00	; 0
     cce:	09 f4       	brne	.+2      	; 0xcd2 <L0^A+0x2>

00000cd0 <L0^A>:
     cd0:	bc c0       	rjmp	.+376    	; 0xe4a <.L62>
     cd2:	80 e0       	ldi	r24, 0x00	; 0
     cd4:	90 e0       	ldi	r25, 0x00	; 0
     cd6:	a0 ef       	ldi	r26, 0xF0	; 240
     cd8:	b1 e4       	ldi	r27, 0x41	; 65
     cda:	8d 8f       	std	Y+29, r24	; 0x1d
     cdc:	9e 8f       	std	Y+30, r25	; 0x1e
     cde:	af 8f       	std	Y+31, r26	; 0x1f
     ce0:	b8 a3       	std	Y+32, r27	; 0x20

00000ce2 <.LBB158>:
	__tmp = ((F_CPU) / 4e3) * __ms;
     ce2:	20 e0       	ldi	r18, 0x00	; 0
     ce4:	30 e0       	ldi	r19, 0x00	; 0
     ce6:	4a e7       	ldi	r20, 0x7A	; 122
     ce8:	55 e4       	ldi	r21, 0x45	; 69
     cea:	6d 8d       	ldd	r22, Y+29	; 0x1d
     cec:	7e 8d       	ldd	r23, Y+30	; 0x1e
     cee:	8f 8d       	ldd	r24, Y+31	; 0x1f
     cf0:	98 a1       	ldd	r25, Y+32	; 0x20
     cf2:	0e 94 14 20 	call	0x4028	; 0x4028 <__mulsf3>
     cf6:	c1 54       	subi	r28, 0x41	; 65
     cf8:	de 4f       	sbci	r29, 0xFE	; 254
     cfa:	68 83       	st	Y, r22
     cfc:	79 83       	std	Y+1, r23	; 0x01
     cfe:	8a 83       	std	Y+2, r24	; 0x02
     d00:	9b 83       	std	Y+3, r25	; 0x03
     d02:	cf 5b       	subi	r28, 0xBF	; 191
     d04:	d1 40       	sbci	r29, 0x01	; 1
     d06:	c1 54       	subi	r28, 0x41	; 65
     d08:	de 4f       	sbci	r29, 0xFE	; 254
     d0a:	28 81       	ld	r18, Y
     d0c:	39 81       	ldd	r19, Y+1	; 0x01
     d0e:	4a 81       	ldd	r20, Y+2	; 0x02
     d10:	5b 81       	ldd	r21, Y+3	; 0x03
     d12:	cf 5b       	subi	r28, 0xBF	; 191
     d14:	d1 40       	sbci	r29, 0x01	; 1
     d16:	29 a3       	std	Y+33, r18	; 0x21
     d18:	3a a3       	std	Y+34, r19	; 0x22
     d1a:	4b a3       	std	Y+35, r20	; 0x23
     d1c:	5c a3       	std	Y+36, r21	; 0x24

00000d1e <.Loc.298>:
	if (__tmp < 1.0)
     d1e:	20 e0       	ldi	r18, 0x00	; 0
     d20:	30 e0       	ldi	r19, 0x00	; 0
     d22:	40 e8       	ldi	r20, 0x80	; 128
     d24:	5f e3       	ldi	r21, 0x3F	; 63
     d26:	69 a1       	ldd	r22, Y+33	; 0x21
     d28:	7a a1       	ldd	r23, Y+34	; 0x22
     d2a:	8b a1       	ldd	r24, Y+35	; 0x23
     d2c:	9c a1       	ldd	r25, Y+36	; 0x24
     d2e:	0e 94 8e 1f 	call	0x3f1c	; 0x3f1c <__cmpsf2>
     d32:	88 23       	and	r24, r24
     d34:	2c f4       	brge	.+10     	; 0xd40 <.L324>

00000d36 <.Loc.299>:
		__ticks = 1;
     d36:	81 e0       	ldi	r24, 0x01	; 1
     d38:	90 e0       	ldi	r25, 0x00	; 0
     d3a:	9e a3       	std	Y+38, r25	; 0x26
     d3c:	8d a3       	std	Y+37, r24	; 0x25
     d3e:	76 c0       	rjmp	.+236    	; 0xe2c <.L75>

00000d40 <.L324>:
	else if (__tmp > 65535)
     d40:	20 e0       	ldi	r18, 0x00	; 0
     d42:	3f ef       	ldi	r19, 0xFF	; 255
     d44:	4f e7       	ldi	r20, 0x7F	; 127
     d46:	57 e4       	ldi	r21, 0x47	; 71
     d48:	69 a1       	ldd	r22, Y+33	; 0x21
     d4a:	7a a1       	ldd	r23, Y+34	; 0x22
     d4c:	8b a1       	ldd	r24, Y+35	; 0x23
     d4e:	9c a1       	ldd	r25, Y+36	; 0x24
     d50:	0e 94 0f 20 	call	0x401e	; 0x401e <__gesf2>
     d54:	88 23       	and	r24, r24
     d56:	09 f0       	breq	.+2      	; 0xd5a <L0^A>

00000d58 <L0^A>:
     d58:	0c f4       	brge	.+2      	; 0xd5c <.Loc.301>

00000d5a <L0^A>:
     d5a:	52 c0       	rjmp	.+164    	; 0xe00 <.L325>

00000d5c <.Loc.301>:
		__ticks = (uint16_t) (__ms * 10.0);
     d5c:	20 e0       	ldi	r18, 0x00	; 0
     d5e:	30 e0       	ldi	r19, 0x00	; 0
     d60:	40 e2       	ldi	r20, 0x20	; 32
     d62:	51 e4       	ldi	r21, 0x41	; 65
     d64:	6d 8d       	ldd	r22, Y+29	; 0x1d
     d66:	7e 8d       	ldd	r23, Y+30	; 0x1e
     d68:	8f 8d       	ldd	r24, Y+31	; 0x1f
     d6a:	98 a1       	ldd	r25, Y+32	; 0x20
     d6c:	0e 94 14 20 	call	0x4028	; 0x4028 <__mulsf3>
     d70:	cd 53       	subi	r28, 0x3D	; 61
     d72:	de 4f       	sbci	r29, 0xFE	; 254
     d74:	68 83       	st	Y, r22
     d76:	79 83       	std	Y+1, r23	; 0x01
     d78:	8a 83       	std	Y+2, r24	; 0x02
     d7a:	9b 83       	std	Y+3, r25	; 0x03
     d7c:	c3 5c       	subi	r28, 0xC3	; 195
     d7e:	d1 40       	sbci	r29, 0x01	; 1
     d80:	cd 53       	subi	r28, 0x3D	; 61
     d82:	de 4f       	sbci	r29, 0xFE	; 254
     d84:	88 81       	ld	r24, Y
     d86:	99 81       	ldd	r25, Y+1	; 0x01
     d88:	aa 81       	ldd	r26, Y+2	; 0x02
     d8a:	bb 81       	ldd	r27, Y+3	; 0x03
     d8c:	c3 5c       	subi	r28, 0xC3	; 195
     d8e:	d1 40       	sbci	r29, 0x01	; 1
     d90:	c5 5b       	subi	r28, 0xB5	; 181
     d92:	de 4f       	sbci	r29, 0xFE	; 254
     d94:	88 83       	st	Y, r24
     d96:	99 83       	std	Y+1, r25	; 0x01
     d98:	aa 83       	std	Y+2, r26	; 0x02
     d9a:	bb 83       	std	Y+3, r27	; 0x03
     d9c:	cb 54       	subi	r28, 0x4B	; 75
     d9e:	d1 40       	sbci	r29, 0x01	; 1

00000da0 <.Loc.302>:
     da0:	c5 5b       	subi	r28, 0xB5	; 181
     da2:	de 4f       	sbci	r29, 0xFE	; 254
     da4:	68 81       	ld	r22, Y
     da6:	79 81       	ldd	r23, Y+1	; 0x01
     da8:	8a 81       	ldd	r24, Y+2	; 0x02
     daa:	9b 81       	ldd	r25, Y+3	; 0x03
     dac:	cb 54       	subi	r28, 0x4B	; 75
     dae:	d1 40       	sbci	r29, 0x01	; 1
     db0:	0e 94 93 1f 	call	0x3f26	; 0x3f26 <__fixunssfsi>
     db4:	c9 53       	subi	r28, 0x39	; 57
     db6:	de 4f       	sbci	r29, 0xFE	; 254
     db8:	68 83       	st	Y, r22
     dba:	79 83       	std	Y+1, r23	; 0x01
     dbc:	8a 83       	std	Y+2, r24	; 0x02
     dbe:	9b 83       	std	Y+3, r25	; 0x03
     dc0:	c7 5c       	subi	r28, 0xC7	; 199
     dc2:	d1 40       	sbci	r29, 0x01	; 1
     dc4:	c9 53       	subi	r28, 0x39	; 57
     dc6:	de 4f       	sbci	r29, 0xFE	; 254
     dc8:	a8 81       	ld	r26, Y
     dca:	b9 81       	ldd	r27, Y+1	; 0x01
     dcc:	c7 5c       	subi	r28, 0xC7	; 199
     dce:	d1 40       	sbci	r29, 0x01	; 1
     dd0:	be a3       	std	Y+38, r27	; 0x26
     dd2:	ad a3       	std	Y+37, r26	; 0x25

00000dd4 <.Loc.303>:
		while(__ticks)
     dd4:	10 c0       	rjmp	.+32     	; 0xdf6 <.L78>

00000dd6 <.L79>:
     dd6:	80 e9       	ldi	r24, 0x90	; 144
     dd8:	91 e0       	ldi	r25, 0x01	; 1
     dda:	98 a7       	std	Y+40, r25	; 0x28
     ddc:	8f a3       	std	Y+39, r24	; 0x27

00000dde <.LBB160>:
     dde:	8f a1       	ldd	r24, Y+39	; 0x27
     de0:	98 a5       	ldd	r25, Y+40	; 0x28

00000de2 <.L1^B6>:
     de2:	01 97       	sbiw	r24, 0x01	; 1
     de4:	f1 f7       	brne	.-4      	; 0xde2 <.L1^B6>
     de6:	98 a7       	std	Y+40, r25	; 0x28
     de8:	8f a3       	std	Y+39, r24	; 0x27

00000dea <.Loc.305>:
	...

00000dec <.LBE160>:
			__ticks --;
     dec:	8d a1       	ldd	r24, Y+37	; 0x25
     dee:	9e a1       	ldd	r25, Y+38	; 0x26
     df0:	01 97       	sbiw	r24, 0x01	; 1
     df2:	9e a3       	std	Y+38, r25	; 0x26
     df4:	8d a3       	std	Y+37, r24	; 0x25

00000df6 <.L78>:
		while(__ticks)
     df6:	8d a1       	ldd	r24, Y+37	; 0x25
     df8:	9e a1       	ldd	r25, Y+38	; 0x26
     dfa:	00 97       	sbiw	r24, 0x00	; 0
     dfc:	61 f7       	brne	.-40     	; 0xdd6 <.L79>

00000dfe <.Loc.308>:
		return;
     dfe:	21 c0       	rjmp	.+66     	; 0xe42 <.L80>

00000e00 <.L325>:
		__ticks = (uint16_t)__tmp;
     e00:	69 a1       	ldd	r22, Y+33	; 0x21
     e02:	7a a1       	ldd	r23, Y+34	; 0x22
     e04:	8b a1       	ldd	r24, Y+35	; 0x23
     e06:	9c a1       	ldd	r25, Y+36	; 0x24
     e08:	0e 94 93 1f 	call	0x3f26	; 0x3f26 <__fixunssfsi>
     e0c:	c5 53       	subi	r28, 0x35	; 53
     e0e:	de 4f       	sbci	r29, 0xFE	; 254
     e10:	68 83       	st	Y, r22
     e12:	79 83       	std	Y+1, r23	; 0x01
     e14:	8a 83       	std	Y+2, r24	; 0x02
     e16:	9b 83       	std	Y+3, r25	; 0x03
     e18:	cb 5c       	subi	r28, 0xCB	; 203
     e1a:	d1 40       	sbci	r29, 0x01	; 1
     e1c:	c5 53       	subi	r28, 0x35	; 53
     e1e:	de 4f       	sbci	r29, 0xFE	; 254
     e20:	e8 81       	ld	r30, Y
     e22:	f9 81       	ldd	r31, Y+1	; 0x01
     e24:	cb 5c       	subi	r28, 0xCB	; 203
     e26:	d1 40       	sbci	r29, 0x01	; 1
     e28:	fe a3       	std	Y+38, r31	; 0x26
     e2a:	ed a3       	std	Y+37, r30	; 0x25

00000e2c <.L75>:
     e2c:	8d a1       	ldd	r24, Y+37	; 0x25
     e2e:	9e a1       	ldd	r25, Y+38	; 0x26
     e30:	9a a7       	std	Y+42, r25	; 0x2a
     e32:	89 a7       	std	Y+41, r24	; 0x29

00000e34 <.LBB162>:
     e34:	89 a5       	ldd	r24, Y+41	; 0x29
     e36:	9a a5       	ldd	r25, Y+42	; 0x2a

00000e38 <.L1^B7>:
     e38:	01 97       	sbiw	r24, 0x01	; 1
     e3a:	f1 f7       	brne	.-4      	; 0xe38 <.L1^B7>
     e3c:	9a a7       	std	Y+42, r25	; 0x2a
     e3e:	89 a7       	std	Y+41, r24	; 0x29

00000e40 <.Loc.311>:
	...

00000e42 <.L80>:
                            {
                                _delay_ms(30);
                                knop1_ingedrukt = 0;
     e42:	10 92 19 02 	sts	0x0219, r1	; 0x800219 <knop1_ingedrukt+0x1>
     e46:	10 92 18 02 	sts	0x0218, r1	; 0x800218 <knop1_ingedrukt>

00000e4a <.L62>:
                        }




                    if ((PINL & (1 << PL2)) == 0)
     e4a:	89 e0       	ldi	r24, 0x09	; 9
     e4c:	91 e0       	ldi	r25, 0x01	; 1
     e4e:	dc 01       	movw	r26, r24
     e50:	8c 91       	ld	r24, X

00000e52 <.Loc.314>:
     e52:	88 2f       	mov	r24, r24
     e54:	90 e0       	ldi	r25, 0x00	; 0
     e56:	84 70       	andi	r24, 0x04	; 4
     e58:	99 27       	eor	r25, r25

00000e5a <.Loc.315>:
     e5a:	00 97       	sbiw	r24, 0x00	; 0
     e5c:	09 f0       	breq	.+2      	; 0xe60 <.Loc.316>

00000e5e <L0^A>:
     e5e:	dc c0       	rjmp	.+440    	; 0x1018 <.L81>

00000e60 <.Loc.316>:
                        {
                            if (knop3_ingedrukt == 0) // knop is niet al eerder ingedrukt
     e60:	80 91 1c 02 	lds	r24, 0x021C	; 0x80021c <knop3_ingedrukt>
     e64:	90 91 1d 02 	lds	r25, 0x021D	; 0x80021d <knop3_ingedrukt+0x1>

00000e68 <.Loc.317>:
     e68:	00 97       	sbiw	r24, 0x00	; 0
     e6a:	09 f0       	breq	.+2      	; 0xe6e <L0^A+0x2>

00000e6c <L0^A>:
     e6c:	dd c1       	rjmp	.+954    	; 0x1228 <.L82>
     e6e:	80 e0       	ldi	r24, 0x00	; 0
     e70:	90 e0       	ldi	r25, 0x00	; 0
     e72:	a0 ef       	ldi	r26, 0xF0	; 240
     e74:	b1 e4       	ldi	r27, 0x41	; 65
     e76:	8b a7       	std	Y+43, r24	; 0x2b
     e78:	9c a7       	std	Y+44, r25	; 0x2c
     e7a:	ad a7       	std	Y+45, r26	; 0x2d
     e7c:	be a7       	std	Y+46, r27	; 0x2e

00000e7e <.LBB164>:
	__tmp = ((F_CPU) / 4e3) * __ms;
     e7e:	20 e0       	ldi	r18, 0x00	; 0
     e80:	30 e0       	ldi	r19, 0x00	; 0
     e82:	4a e7       	ldi	r20, 0x7A	; 122
     e84:	55 e4       	ldi	r21, 0x45	; 69
     e86:	6b a5       	ldd	r22, Y+43	; 0x2b
     e88:	7c a5       	ldd	r23, Y+44	; 0x2c
     e8a:	8d a5       	ldd	r24, Y+45	; 0x2d
     e8c:	9e a5       	ldd	r25, Y+46	; 0x2e
     e8e:	0e 94 14 20 	call	0x4028	; 0x4028 <__mulsf3>
     e92:	c1 53       	subi	r28, 0x31	; 49
     e94:	de 4f       	sbci	r29, 0xFE	; 254
     e96:	68 83       	st	Y, r22
     e98:	79 83       	std	Y+1, r23	; 0x01
     e9a:	8a 83       	std	Y+2, r24	; 0x02
     e9c:	9b 83       	std	Y+3, r25	; 0x03
     e9e:	cf 5c       	subi	r28, 0xCF	; 207
     ea0:	d1 40       	sbci	r29, 0x01	; 1
     ea2:	c1 53       	subi	r28, 0x31	; 49
     ea4:	de 4f       	sbci	r29, 0xFE	; 254
     ea6:	28 81       	ld	r18, Y
     ea8:	39 81       	ldd	r19, Y+1	; 0x01
     eaa:	4a 81       	ldd	r20, Y+2	; 0x02
     eac:	5b 81       	ldd	r21, Y+3	; 0x03
     eae:	cf 5c       	subi	r28, 0xCF	; 207
     eb0:	d1 40       	sbci	r29, 0x01	; 1
     eb2:	2f a7       	std	Y+47, r18	; 0x2f
     eb4:	38 ab       	std	Y+48, r19	; 0x30
     eb6:	49 ab       	std	Y+49, r20	; 0x31
     eb8:	5a ab       	std	Y+50, r21	; 0x32

00000eba <.Loc.319>:
	if (__tmp < 1.0)
     eba:	20 e0       	ldi	r18, 0x00	; 0
     ebc:	30 e0       	ldi	r19, 0x00	; 0
     ebe:	40 e8       	ldi	r20, 0x80	; 128
     ec0:	5f e3       	ldi	r21, 0x3F	; 63
     ec2:	6f a5       	ldd	r22, Y+47	; 0x2f
     ec4:	78 a9       	ldd	r23, Y+48	; 0x30
     ec6:	89 a9       	ldd	r24, Y+49	; 0x31
     ec8:	9a a9       	ldd	r25, Y+50	; 0x32
     eca:	0e 94 8e 1f 	call	0x3f1c	; 0x3f1c <__cmpsf2>
     ece:	88 23       	and	r24, r24
     ed0:	2c f4       	brge	.+10     	; 0xedc <.L326>

00000ed2 <.Loc.320>:
		__ticks = 1;
     ed2:	81 e0       	ldi	r24, 0x01	; 1
     ed4:	90 e0       	ldi	r25, 0x00	; 0
     ed6:	9c ab       	std	Y+52, r25	; 0x34
     ed8:	8b ab       	std	Y+51, r24	; 0x33
     eda:	76 c0       	rjmp	.+236    	; 0xfc8 <.L85>

00000edc <.L326>:
	else if (__tmp > 65535)
     edc:	20 e0       	ldi	r18, 0x00	; 0
     ede:	3f ef       	ldi	r19, 0xFF	; 255
     ee0:	4f e7       	ldi	r20, 0x7F	; 127
     ee2:	57 e4       	ldi	r21, 0x47	; 71
     ee4:	6f a5       	ldd	r22, Y+47	; 0x2f
     ee6:	78 a9       	ldd	r23, Y+48	; 0x30
     ee8:	89 a9       	ldd	r24, Y+49	; 0x31
     eea:	9a a9       	ldd	r25, Y+50	; 0x32
     eec:	0e 94 0f 20 	call	0x401e	; 0x401e <__gesf2>
     ef0:	88 23       	and	r24, r24
     ef2:	09 f0       	breq	.+2      	; 0xef6 <L0^A>

00000ef4 <L0^A>:
     ef4:	0c f4       	brge	.+2      	; 0xef8 <.Loc.322>

00000ef6 <L0^A>:
     ef6:	52 c0       	rjmp	.+164    	; 0xf9c <.L327>

00000ef8 <.Loc.322>:
		__ticks = (uint16_t) (__ms * 10.0);
     ef8:	20 e0       	ldi	r18, 0x00	; 0
     efa:	30 e0       	ldi	r19, 0x00	; 0
     efc:	40 e2       	ldi	r20, 0x20	; 32
     efe:	51 e4       	ldi	r21, 0x41	; 65
     f00:	6b a5       	ldd	r22, Y+43	; 0x2b
     f02:	7c a5       	ldd	r23, Y+44	; 0x2c
     f04:	8d a5       	ldd	r24, Y+45	; 0x2d
     f06:	9e a5       	ldd	r25, Y+46	; 0x2e
     f08:	0e 94 14 20 	call	0x4028	; 0x4028 <__mulsf3>
     f0c:	cd 52       	subi	r28, 0x2D	; 45
     f0e:	de 4f       	sbci	r29, 0xFE	; 254
     f10:	68 83       	st	Y, r22
     f12:	79 83       	std	Y+1, r23	; 0x01
     f14:	8a 83       	std	Y+2, r24	; 0x02
     f16:	9b 83       	std	Y+3, r25	; 0x03
     f18:	c3 5d       	subi	r28, 0xD3	; 211
     f1a:	d1 40       	sbci	r29, 0x01	; 1
     f1c:	cd 52       	subi	r28, 0x2D	; 45
     f1e:	de 4f       	sbci	r29, 0xFE	; 254
     f20:	88 81       	ld	r24, Y
     f22:	99 81       	ldd	r25, Y+1	; 0x01
     f24:	aa 81       	ldd	r26, Y+2	; 0x02
     f26:	bb 81       	ldd	r27, Y+3	; 0x03
     f28:	c3 5d       	subi	r28, 0xD3	; 211
     f2a:	d1 40       	sbci	r29, 0x01	; 1
     f2c:	c1 5b       	subi	r28, 0xB1	; 177
     f2e:	de 4f       	sbci	r29, 0xFE	; 254
     f30:	88 83       	st	Y, r24
     f32:	99 83       	std	Y+1, r25	; 0x01
     f34:	aa 83       	std	Y+2, r26	; 0x02
     f36:	bb 83       	std	Y+3, r27	; 0x03
     f38:	cf 54       	subi	r28, 0x4F	; 79
     f3a:	d1 40       	sbci	r29, 0x01	; 1

00000f3c <.Loc.323>:
     f3c:	c1 5b       	subi	r28, 0xB1	; 177
     f3e:	de 4f       	sbci	r29, 0xFE	; 254
     f40:	68 81       	ld	r22, Y
     f42:	79 81       	ldd	r23, Y+1	; 0x01
     f44:	8a 81       	ldd	r24, Y+2	; 0x02
     f46:	9b 81       	ldd	r25, Y+3	; 0x03
     f48:	cf 54       	subi	r28, 0x4F	; 79
     f4a:	d1 40       	sbci	r29, 0x01	; 1
     f4c:	0e 94 93 1f 	call	0x3f26	; 0x3f26 <__fixunssfsi>
     f50:	c9 52       	subi	r28, 0x29	; 41
     f52:	de 4f       	sbci	r29, 0xFE	; 254
     f54:	68 83       	st	Y, r22
     f56:	79 83       	std	Y+1, r23	; 0x01
     f58:	8a 83       	std	Y+2, r24	; 0x02
     f5a:	9b 83       	std	Y+3, r25	; 0x03
     f5c:	c7 5d       	subi	r28, 0xD7	; 215
     f5e:	d1 40       	sbci	r29, 0x01	; 1
     f60:	c9 52       	subi	r28, 0x29	; 41
     f62:	de 4f       	sbci	r29, 0xFE	; 254
     f64:	a8 81       	ld	r26, Y
     f66:	b9 81       	ldd	r27, Y+1	; 0x01
     f68:	c7 5d       	subi	r28, 0xD7	; 215
     f6a:	d1 40       	sbci	r29, 0x01	; 1
     f6c:	bc ab       	std	Y+52, r27	; 0x34
     f6e:	ab ab       	std	Y+51, r26	; 0x33

00000f70 <.Loc.324>:
		while(__ticks)
     f70:	10 c0       	rjmp	.+32     	; 0xf92 <.L88>

00000f72 <.L89>:
     f72:	80 e9       	ldi	r24, 0x90	; 144
     f74:	91 e0       	ldi	r25, 0x01	; 1
     f76:	9e ab       	std	Y+54, r25	; 0x36
     f78:	8d ab       	std	Y+53, r24	; 0x35

00000f7a <.LBB166>:
     f7a:	8d a9       	ldd	r24, Y+53	; 0x35
     f7c:	9e a9       	ldd	r25, Y+54	; 0x36

00000f7e <.L1^B8>:
     f7e:	01 97       	sbiw	r24, 0x01	; 1
     f80:	f1 f7       	brne	.-4      	; 0xf7e <.L1^B8>
     f82:	9e ab       	std	Y+54, r25	; 0x36
     f84:	8d ab       	std	Y+53, r24	; 0x35

00000f86 <.Loc.326>:
	...

00000f88 <.LBE166>:
			__ticks --;
     f88:	8b a9       	ldd	r24, Y+51	; 0x33
     f8a:	9c a9       	ldd	r25, Y+52	; 0x34
     f8c:	01 97       	sbiw	r24, 0x01	; 1
     f8e:	9c ab       	std	Y+52, r25	; 0x34
     f90:	8b ab       	std	Y+51, r24	; 0x33

00000f92 <.L88>:
		while(__ticks)
     f92:	8b a9       	ldd	r24, Y+51	; 0x33
     f94:	9c a9       	ldd	r25, Y+52	; 0x34
     f96:	00 97       	sbiw	r24, 0x00	; 0
     f98:	61 f7       	brne	.-40     	; 0xf72 <.L89>

00000f9a <.Loc.329>:
		return;
     f9a:	21 c0       	rjmp	.+66     	; 0xfde <.L90>

00000f9c <.L327>:
		__ticks = (uint16_t)__tmp;
     f9c:	6f a5       	ldd	r22, Y+47	; 0x2f
     f9e:	78 a9       	ldd	r23, Y+48	; 0x30
     fa0:	89 a9       	ldd	r24, Y+49	; 0x31
     fa2:	9a a9       	ldd	r25, Y+50	; 0x32
     fa4:	0e 94 93 1f 	call	0x3f26	; 0x3f26 <__fixunssfsi>
     fa8:	c5 52       	subi	r28, 0x25	; 37
     faa:	de 4f       	sbci	r29, 0xFE	; 254
     fac:	68 83       	st	Y, r22
     fae:	79 83       	std	Y+1, r23	; 0x01
     fb0:	8a 83       	std	Y+2, r24	; 0x02
     fb2:	9b 83       	std	Y+3, r25	; 0x03
     fb4:	cb 5d       	subi	r28, 0xDB	; 219
     fb6:	d1 40       	sbci	r29, 0x01	; 1
     fb8:	c5 52       	subi	r28, 0x25	; 37
     fba:	de 4f       	sbci	r29, 0xFE	; 254
     fbc:	e8 81       	ld	r30, Y
     fbe:	f9 81       	ldd	r31, Y+1	; 0x01
     fc0:	cb 5d       	subi	r28, 0xDB	; 219
     fc2:	d1 40       	sbci	r29, 0x01	; 1
     fc4:	fc ab       	std	Y+52, r31	; 0x34
     fc6:	eb ab       	std	Y+51, r30	; 0x33

00000fc8 <.L85>:
     fc8:	8b a9       	ldd	r24, Y+51	; 0x33
     fca:	9c a9       	ldd	r25, Y+52	; 0x34
     fcc:	98 af       	std	Y+56, r25	; 0x38
     fce:	8f ab       	std	Y+55, r24	; 0x37

00000fd0 <.LBB168>:
     fd0:	8f a9       	ldd	r24, Y+55	; 0x37
     fd2:	98 ad       	ldd	r25, Y+56	; 0x38

00000fd4 <.L1^B9>:
     fd4:	01 97       	sbiw	r24, 0x01	; 1
     fd6:	f1 f7       	brne	.-4      	; 0xfd4 <.L1^B9>
     fd8:	98 af       	std	Y+56, r25	; 0x38
     fda:	8f ab       	std	Y+55, r24	; 0x37

00000fdc <.Loc.332>:
	...

00000fde <.L90>:
                            {
                                _delay_ms(30);


                                if (n<8) //Just here to make sure we do [] go into the [pos]itives, since those [] work.
     fde:	80 91 12 02 	lds	r24, 0x0212	; 0x800212 <n>
     fe2:	90 91 13 02 	lds	r25, 0x0213	; 0x800213 <n+0x1>

00000fe6 <.Loc.334>:
     fe6:	87 30       	cpi	r24, 0x07	; 7
     fe8:	91 05       	cpc	r25, r1
     fea:	09 f0       	breq	.+2      	; 0xfee <.Loc.335>

00000fec <L0^A>:
     fec:	54 f4       	brge	.+20     	; 0x1002 <.L91>

00000fee <.Loc.335>:
                                    {
                                    n+=1;
     fee:	80 91 12 02 	lds	r24, 0x0212	; 0x800212 <n>
     ff2:	90 91 13 02 	lds	r25, 0x0213	; 0x800213 <n+0x1>
     ff6:	01 96       	adiw	r24, 0x01	; 1
     ff8:	90 93 13 02 	sts	0x0213, r25	; 0x800213 <n+0x1>
     ffc:	80 93 12 02 	sts	0x0212, r24	; 0x800212 <n>
    1000:	04 c0       	rjmp	.+8      	; 0x100a <.L92>

00001002 <.L91>:
                                    }
                                else {  //Wraparound Action baybee!
                                        n=0;
    1002:	10 92 13 02 	sts	0x0213, r1	; 0x800213 <n+0x1>
    1006:	10 92 12 02 	sts	0x0212, r1	; 0x800212 <n>

0000100a <.L92>:
                                     }
                                knop3_ingedrukt = 1;
    100a:	81 e0       	ldi	r24, 0x01	; 1
    100c:	90 e0       	ldi	r25, 0x00	; 0
    100e:	90 93 1d 02 	sts	0x021D, r25	; 0x80021d <knop3_ingedrukt+0x1>
    1012:	80 93 1c 02 	sts	0x021C, r24	; 0x80021c <knop3_ingedrukt>
    1016:	08 c1       	rjmp	.+528    	; 0x1228 <.L82>

00001018 <.L81>:
                            }
                        }
                    else
                        {
                        if (knop3_ingedrukt != 0) // knop is zojuist losgelaten
    1018:	80 91 1c 02 	lds	r24, 0x021C	; 0x80021c <knop3_ingedrukt>
    101c:	90 91 1d 02 	lds	r25, 0x021D	; 0x80021d <knop3_ingedrukt+0x1>

00001020 <.Loc.339>:
    1020:	00 97       	sbiw	r24, 0x00	; 0
    1022:	09 f4       	brne	.+2      	; 0x1026 <L0^A+0x2>

00001024 <L0^A>:
    1024:	01 c1       	rjmp	.+514    	; 0x1228 <.L82>
    1026:	80 e0       	ldi	r24, 0x00	; 0
    1028:	90 e0       	ldi	r25, 0x00	; 0
    102a:	a0 ef       	ldi	r26, 0xF0	; 240
    102c:	b1 e4       	ldi	r27, 0x41	; 65
    102e:	89 af       	std	Y+57, r24	; 0x39
    1030:	9a af       	std	Y+58, r25	; 0x3a
    1032:	ab af       	std	Y+59, r26	; 0x3b
    1034:	bc af       	std	Y+60, r27	; 0x3c

00001036 <.LBB170>:
	__tmp = ((F_CPU) / 4e3) * __ms;
    1036:	20 e0       	ldi	r18, 0x00	; 0
    1038:	30 e0       	ldi	r19, 0x00	; 0
    103a:	4a e7       	ldi	r20, 0x7A	; 122
    103c:	55 e4       	ldi	r21, 0x45	; 69
    103e:	69 ad       	ldd	r22, Y+57	; 0x39
    1040:	7a ad       	ldd	r23, Y+58	; 0x3a
    1042:	8b ad       	ldd	r24, Y+59	; 0x3b
    1044:	9c ad       	ldd	r25, Y+60	; 0x3c
    1046:	0e 94 14 20 	call	0x4028	; 0x4028 <__mulsf3>
    104a:	c1 52       	subi	r28, 0x21	; 33
    104c:	de 4f       	sbci	r29, 0xFE	; 254
    104e:	68 83       	st	Y, r22
    1050:	79 83       	std	Y+1, r23	; 0x01
    1052:	8a 83       	std	Y+2, r24	; 0x02
    1054:	9b 83       	std	Y+3, r25	; 0x03
    1056:	cf 5d       	subi	r28, 0xDF	; 223
    1058:	d1 40       	sbci	r29, 0x01	; 1
    105a:	ce 01       	movw	r24, r28
    105c:	cd 96       	adiw	r24, 0x3d	; 61
    105e:	c1 52       	subi	r28, 0x21	; 33
    1060:	de 4f       	sbci	r29, 0xFE	; 254
    1062:	28 81       	ld	r18, Y
    1064:	39 81       	ldd	r19, Y+1	; 0x01
    1066:	4a 81       	ldd	r20, Y+2	; 0x02
    1068:	5b 81       	ldd	r21, Y+3	; 0x03
    106a:	cf 5d       	subi	r28, 0xDF	; 223
    106c:	d1 40       	sbci	r29, 0x01	; 1
    106e:	dc 01       	movw	r26, r24
    1070:	2d 93       	st	X+, r18
    1072:	3d 93       	st	X+, r19
    1074:	4d 93       	st	X+, r20
    1076:	5c 93       	st	X, r21
    1078:	13 97       	sbiw	r26, 0x03	; 3

0000107a <.Loc.341>:
	if (__tmp < 1.0)
    107a:	20 e0       	ldi	r18, 0x00	; 0
    107c:	30 e0       	ldi	r19, 0x00	; 0
    107e:	40 e8       	ldi	r20, 0x80	; 128
    1080:	5f e3       	ldi	r21, 0x3F	; 63
    1082:	ce 01       	movw	r24, r28
    1084:	cd 96       	adiw	r24, 0x3d	; 61
    1086:	fc 01       	movw	r30, r24
    1088:	60 81       	ld	r22, Z
    108a:	71 81       	ldd	r23, Z+1	; 0x01
    108c:	82 81       	ldd	r24, Z+2	; 0x02
    108e:	93 81       	ldd	r25, Z+3	; 0x03
    1090:	0e 94 8e 1f 	call	0x3f1c	; 0x3f1c <__cmpsf2>
    1094:	88 23       	and	r24, r24
    1096:	54 f4       	brge	.+20     	; 0x10ac <.L328>

00001098 <.Loc.342>:
		__ticks = 1;
    1098:	ce 01       	movw	r24, r28
    109a:	8f 5b       	subi	r24, 0xBF	; 191
    109c:	9f 4f       	sbci	r25, 0xFF	; 255
    109e:	21 e0       	ldi	r18, 0x01	; 1
    10a0:	30 e0       	ldi	r19, 0x00	; 0
    10a2:	dc 01       	movw	r26, r24
    10a4:	11 96       	adiw	r26, 0x01	; 1
    10a6:	3c 93       	st	X, r19
    10a8:	2e 93       	st	-X, r18
    10aa:	9f c0       	rjmp	.+318    	; 0x11ea <.L95>

000010ac <.L328>:
	else if (__tmp > 65535)
    10ac:	20 e0       	ldi	r18, 0x00	; 0
    10ae:	3f ef       	ldi	r19, 0xFF	; 255
    10b0:	4f e7       	ldi	r20, 0x7F	; 127
    10b2:	57 e4       	ldi	r21, 0x47	; 71
    10b4:	ce 01       	movw	r24, r28
    10b6:	cd 96       	adiw	r24, 0x3d	; 61
    10b8:	fc 01       	movw	r30, r24
    10ba:	60 81       	ld	r22, Z
    10bc:	71 81       	ldd	r23, Z+1	; 0x01
    10be:	82 81       	ldd	r24, Z+2	; 0x02
    10c0:	93 81       	ldd	r25, Z+3	; 0x03
    10c2:	0e 94 0f 20 	call	0x401e	; 0x401e <__gesf2>
    10c6:	88 23       	and	r24, r24
    10c8:	09 f0       	breq	.+2      	; 0x10cc <L0^A>

000010ca <L0^A>:
    10ca:	0c f4       	brge	.+2      	; 0x10ce <.Loc.344>

000010cc <L0^A>:
    10cc:	71 c0       	rjmp	.+226    	; 0x11b0 <.L329>

000010ce <.Loc.344>:
		__ticks = (uint16_t) (__ms * 10.0);
    10ce:	20 e0       	ldi	r18, 0x00	; 0
    10d0:	30 e0       	ldi	r19, 0x00	; 0
    10d2:	40 e2       	ldi	r20, 0x20	; 32
    10d4:	51 e4       	ldi	r21, 0x41	; 65
    10d6:	69 ad       	ldd	r22, Y+57	; 0x39
    10d8:	7a ad       	ldd	r23, Y+58	; 0x3a
    10da:	8b ad       	ldd	r24, Y+59	; 0x3b
    10dc:	9c ad       	ldd	r25, Y+60	; 0x3c
    10de:	0e 94 14 20 	call	0x4028	; 0x4028 <__mulsf3>
    10e2:	cd 51       	subi	r28, 0x1D	; 29
    10e4:	de 4f       	sbci	r29, 0xFE	; 254
    10e6:	68 83       	st	Y, r22
    10e8:	79 83       	std	Y+1, r23	; 0x01
    10ea:	8a 83       	std	Y+2, r24	; 0x02
    10ec:	9b 83       	std	Y+3, r25	; 0x03
    10ee:	c3 5e       	subi	r28, 0xE3	; 227
    10f0:	d1 40       	sbci	r29, 0x01	; 1
    10f2:	cd 51       	subi	r28, 0x1D	; 29
    10f4:	de 4f       	sbci	r29, 0xFE	; 254
    10f6:	28 81       	ld	r18, Y
    10f8:	39 81       	ldd	r19, Y+1	; 0x01
    10fa:	4a 81       	ldd	r20, Y+2	; 0x02
    10fc:	5b 81       	ldd	r21, Y+3	; 0x03
    10fe:	c3 5e       	subi	r28, 0xE3	; 227
    1100:	d1 40       	sbci	r29, 0x01	; 1
    1102:	cd 5a       	subi	r28, 0xAD	; 173
    1104:	de 4f       	sbci	r29, 0xFE	; 254
    1106:	28 83       	st	Y, r18
    1108:	39 83       	std	Y+1, r19	; 0x01
    110a:	4a 83       	std	Y+2, r20	; 0x02
    110c:	5b 83       	std	Y+3, r21	; 0x03
    110e:	c3 55       	subi	r28, 0x53	; 83
    1110:	d1 40       	sbci	r29, 0x01	; 1

00001112 <.Loc.345>:
    1112:	8e 01       	movw	r16, r28
    1114:	0f 5b       	subi	r16, 0xBF	; 191
    1116:	1f 4f       	sbci	r17, 0xFF	; 255
    1118:	cd 5a       	subi	r28, 0xAD	; 173
    111a:	de 4f       	sbci	r29, 0xFE	; 254
    111c:	68 81       	ld	r22, Y
    111e:	79 81       	ldd	r23, Y+1	; 0x01
    1120:	8a 81       	ldd	r24, Y+2	; 0x02
    1122:	9b 81       	ldd	r25, Y+3	; 0x03
    1124:	c3 55       	subi	r28, 0x53	; 83
    1126:	d1 40       	sbci	r29, 0x01	; 1
    1128:	0e 94 93 1f 	call	0x3f26	; 0x3f26 <__fixunssfsi>
    112c:	c9 51       	subi	r28, 0x19	; 25
    112e:	de 4f       	sbci	r29, 0xFE	; 254
    1130:	68 83       	st	Y, r22
    1132:	79 83       	std	Y+1, r23	; 0x01
    1134:	8a 83       	std	Y+2, r24	; 0x02
    1136:	9b 83       	std	Y+3, r25	; 0x03
    1138:	c7 5e       	subi	r28, 0xE7	; 231
    113a:	d1 40       	sbci	r29, 0x01	; 1
    113c:	c9 51       	subi	r28, 0x19	; 25
    113e:	de 4f       	sbci	r29, 0xFE	; 254
    1140:	e8 81       	ld	r30, Y
    1142:	f9 81       	ldd	r31, Y+1	; 0x01
    1144:	c7 5e       	subi	r28, 0xE7	; 231
    1146:	d1 40       	sbci	r29, 0x01	; 1
    1148:	d8 01       	movw	r26, r16
    114a:	11 96       	adiw	r26, 0x01	; 1
    114c:	fc 93       	st	X, r31
    114e:	ee 93       	st	-X, r30

00001150 <.Loc.346>:
		while(__ticks)
    1150:	26 c0       	rjmp	.+76     	; 0x119e <.L98>

00001152 <.L99>:
    1152:	ce 01       	movw	r24, r28
    1154:	8d 5b       	subi	r24, 0xBD	; 189
    1156:	9f 4f       	sbci	r25, 0xFF	; 255
    1158:	20 e9       	ldi	r18, 0x90	; 144
    115a:	31 e0       	ldi	r19, 0x01	; 1
    115c:	dc 01       	movw	r26, r24
    115e:	2d 93       	st	X+, r18
    1160:	3c 93       	st	X, r19

00001162 <.LBB172>:
    1162:	ce 01       	movw	r24, r28
    1164:	8d 5b       	subi	r24, 0xBD	; 189
    1166:	9f 4f       	sbci	r25, 0xFF	; 255
    1168:	fc 01       	movw	r30, r24
    116a:	80 81       	ld	r24, Z
    116c:	91 81       	ldd	r25, Z+1	; 0x01

0000116e <.L1^B10>:
    116e:	01 97       	sbiw	r24, 0x01	; 1
    1170:	f1 f7       	brne	.-4      	; 0x116e <.L1^B10>
    1172:	9e 01       	movw	r18, r28
    1174:	2d 5b       	subi	r18, 0xBD	; 189
    1176:	3f 4f       	sbci	r19, 0xFF	; 255
    1178:	d9 01       	movw	r26, r18
    117a:	8d 93       	st	X+, r24
    117c:	9c 93       	st	X, r25

0000117e <.Loc.348>:
	...

00001180 <.LBE172>:
			__ticks --;
    1180:	ce 01       	movw	r24, r28
    1182:	8f 5b       	subi	r24, 0xBF	; 191
    1184:	9f 4f       	sbci	r25, 0xFF	; 255
    1186:	9e 01       	movw	r18, r28
    1188:	2f 5b       	subi	r18, 0xBF	; 191
    118a:	3f 4f       	sbci	r19, 0xFF	; 255
    118c:	f9 01       	movw	r30, r18
    118e:	20 81       	ld	r18, Z
    1190:	31 81       	ldd	r19, Z+1	; 0x01
    1192:	21 50       	subi	r18, 0x01	; 1
    1194:	31 09       	sbc	r19, r1
    1196:	dc 01       	movw	r26, r24
    1198:	11 96       	adiw	r26, 0x01	; 1
    119a:	3c 93       	st	X, r19
    119c:	2e 93       	st	-X, r18

0000119e <.L98>:
		while(__ticks)
    119e:	ce 01       	movw	r24, r28
    11a0:	8f 5b       	subi	r24, 0xBF	; 191
    11a2:	9f 4f       	sbci	r25, 0xFF	; 255
    11a4:	fc 01       	movw	r30, r24
    11a6:	80 81       	ld	r24, Z
    11a8:	91 81       	ldd	r25, Z+1	; 0x01
    11aa:	00 97       	sbiw	r24, 0x00	; 0
    11ac:	91 f6       	brne	.-92     	; 0x1152 <.L99>

000011ae <.Loc.351>:
		return;
    11ae:	38 c0       	rjmp	.+112    	; 0x1220 <.L100>

000011b0 <.L329>:
		__ticks = (uint16_t)__tmp;
    11b0:	8e 01       	movw	r16, r28
    11b2:	0f 5b       	subi	r16, 0xBF	; 191
    11b4:	1f 4f       	sbci	r17, 0xFF	; 255
    11b6:	ce 01       	movw	r24, r28
    11b8:	cd 96       	adiw	r24, 0x3d	; 61
    11ba:	dc 01       	movw	r26, r24
    11bc:	6d 91       	ld	r22, X+
    11be:	7d 91       	ld	r23, X+
    11c0:	8d 91       	ld	r24, X+
    11c2:	9c 91       	ld	r25, X
    11c4:	0e 94 93 1f 	call	0x3f26	; 0x3f26 <__fixunssfsi>
    11c8:	c5 51       	subi	r28, 0x15	; 21
    11ca:	de 4f       	sbci	r29, 0xFE	; 254
    11cc:	68 83       	st	Y, r22
    11ce:	79 83       	std	Y+1, r23	; 0x01
    11d0:	8a 83       	std	Y+2, r24	; 0x02
    11d2:	9b 83       	std	Y+3, r25	; 0x03
    11d4:	cb 5e       	subi	r28, 0xEB	; 235
    11d6:	d1 40       	sbci	r29, 0x01	; 1
    11d8:	c5 51       	subi	r28, 0x15	; 21
    11da:	de 4f       	sbci	r29, 0xFE	; 254
    11dc:	28 81       	ld	r18, Y
    11de:	39 81       	ldd	r19, Y+1	; 0x01
    11e0:	cb 5e       	subi	r28, 0xEB	; 235
    11e2:	d1 40       	sbci	r29, 0x01	; 1
    11e4:	f8 01       	movw	r30, r16
    11e6:	31 83       	std	Z+1, r19	; 0x01
    11e8:	20 83       	st	Z, r18

000011ea <.L95>:
    11ea:	ce 01       	movw	r24, r28
    11ec:	8b 5b       	subi	r24, 0xBB	; 187
    11ee:	9f 4f       	sbci	r25, 0xFF	; 255
    11f0:	9e 01       	movw	r18, r28
    11f2:	2f 5b       	subi	r18, 0xBF	; 191
    11f4:	3f 4f       	sbci	r19, 0xFF	; 255
    11f6:	d9 01       	movw	r26, r18
    11f8:	2d 91       	ld	r18, X+
    11fa:	3c 91       	ld	r19, X
    11fc:	fc 01       	movw	r30, r24
    11fe:	31 83       	std	Z+1, r19	; 0x01
    1200:	20 83       	st	Z, r18

00001202 <.LBB174>:
    1202:	ce 01       	movw	r24, r28
    1204:	8b 5b       	subi	r24, 0xBB	; 187
    1206:	9f 4f       	sbci	r25, 0xFF	; 255
    1208:	dc 01       	movw	r26, r24
    120a:	8d 91       	ld	r24, X+
    120c:	9c 91       	ld	r25, X

0000120e <.L1^B11>:
    120e:	01 97       	sbiw	r24, 0x01	; 1
    1210:	f1 f7       	brne	.-4      	; 0x120e <.L1^B11>
    1212:	9e 01       	movw	r18, r28
    1214:	2b 5b       	subi	r18, 0xBB	; 187
    1216:	3f 4f       	sbci	r19, 0xFF	; 255
    1218:	f9 01       	movw	r30, r18
    121a:	91 83       	std	Z+1, r25	; 0x01
    121c:	80 83       	st	Z, r24

0000121e <.Loc.354>:
	...

00001220 <.L100>:
                            {
                                _delay_ms(30);
                                knop3_ingedrukt = 0;
    1220:	10 92 1d 02 	sts	0x021D, r1	; 0x80021d <knop3_ingedrukt+0x1>
    1224:	10 92 1c 02 	sts	0x021C, r1	; 0x80021c <knop3_ingedrukt>

00001228 <.L82>:
                            }
                        }



                     if ((PINL & (1 << PL4)) == 0)  //switcher
    1228:	89 e0       	ldi	r24, 0x09	; 9
    122a:	91 e0       	ldi	r25, 0x01	; 1
    122c:	dc 01       	movw	r26, r24
    122e:	8c 91       	ld	r24, X

00001230 <.Loc.357>:
    1230:	88 2f       	mov	r24, r24
    1232:	90 e0       	ldi	r25, 0x00	; 0
    1234:	80 71       	andi	r24, 0x10	; 16
    1236:	99 27       	eor	r25, r25

00001238 <.Loc.358>:
    1238:	00 97       	sbiw	r24, 0x00	; 0
    123a:	09 f0       	breq	.+2      	; 0x123e <.Loc.359>

0000123c <L0^A>:
    123c:	32 c1       	rjmp	.+612    	; 0x14a2 <.L101>

0000123e <.Loc.359>:
                        {
                            if (knop2_ingedrukt == 0) // knop is niet al eerder ingedrukt
    123e:	80 91 1a 02 	lds	r24, 0x021A	; 0x80021a <knop2_ingedrukt>
    1242:	90 91 1b 02 	lds	r25, 0x021B	; 0x80021b <knop2_ingedrukt+0x1>

00001246 <.Loc.360>:
    1246:	00 97       	sbiw	r24, 0x00	; 0
    1248:	09 f0       	breq	.+2      	; 0x124c <L0^A+0x2>

0000124a <L0^A>:
    124a:	43 c2       	rjmp	.+1158   	; 0x16d2 <.L102>
    124c:	9e 01       	movw	r18, r28
    124e:	29 5b       	subi	r18, 0xB9	; 185
    1250:	3f 4f       	sbci	r19, 0xFF	; 255
    1252:	80 e0       	ldi	r24, 0x00	; 0
    1254:	90 e0       	ldi	r25, 0x00	; 0
    1256:	a0 ef       	ldi	r26, 0xF0	; 240
    1258:	b1 e4       	ldi	r27, 0x41	; 65
    125a:	f9 01       	movw	r30, r18
    125c:	80 83       	st	Z, r24
    125e:	91 83       	std	Z+1, r25	; 0x01
    1260:	a2 83       	std	Z+2, r26	; 0x02
    1262:	b3 83       	std	Z+3, r27	; 0x03

00001264 <.LBB176>:
	__tmp = ((F_CPU) / 4e3) * __ms;
    1264:	8e 01       	movw	r16, r28
    1266:	05 5b       	subi	r16, 0xB5	; 181
    1268:	1f 4f       	sbci	r17, 0xFF	; 255
    126a:	ce 01       	movw	r24, r28
    126c:	89 5b       	subi	r24, 0xB9	; 185
    126e:	9f 4f       	sbci	r25, 0xFF	; 255
    1270:	20 e0       	ldi	r18, 0x00	; 0
    1272:	30 e0       	ldi	r19, 0x00	; 0
    1274:	4a e7       	ldi	r20, 0x7A	; 122
    1276:	55 e4       	ldi	r21, 0x45	; 69
    1278:	dc 01       	movw	r26, r24
    127a:	6d 91       	ld	r22, X+
    127c:	7d 91       	ld	r23, X+
    127e:	8d 91       	ld	r24, X+
    1280:	9c 91       	ld	r25, X
    1282:	0e 94 14 20 	call	0x4028	; 0x4028 <__mulsf3>
    1286:	c1 51       	subi	r28, 0x11	; 17
    1288:	de 4f       	sbci	r29, 0xFE	; 254
    128a:	68 83       	st	Y, r22
    128c:	79 83       	std	Y+1, r23	; 0x01
    128e:	8a 83       	std	Y+2, r24	; 0x02
    1290:	9b 83       	std	Y+3, r25	; 0x03
    1292:	cf 5e       	subi	r28, 0xEF	; 239
    1294:	d1 40       	sbci	r29, 0x01	; 1
    1296:	c1 51       	subi	r28, 0x11	; 17
    1298:	de 4f       	sbci	r29, 0xFE	; 254
    129a:	28 81       	ld	r18, Y
    129c:	39 81       	ldd	r19, Y+1	; 0x01
    129e:	4a 81       	ldd	r20, Y+2	; 0x02
    12a0:	5b 81       	ldd	r21, Y+3	; 0x03
    12a2:	cf 5e       	subi	r28, 0xEF	; 239
    12a4:	d1 40       	sbci	r29, 0x01	; 1
    12a6:	d8 01       	movw	r26, r16
    12a8:	2d 93       	st	X+, r18
    12aa:	3d 93       	st	X+, r19
    12ac:	4d 93       	st	X+, r20
    12ae:	5c 93       	st	X, r21
    12b0:	13 97       	sbiw	r26, 0x03	; 3

000012b2 <.Loc.362>:
	if (__tmp < 1.0)
    12b2:	ce 01       	movw	r24, r28
    12b4:	85 5b       	subi	r24, 0xB5	; 181
    12b6:	9f 4f       	sbci	r25, 0xFF	; 255
    12b8:	20 e0       	ldi	r18, 0x00	; 0
    12ba:	30 e0       	ldi	r19, 0x00	; 0
    12bc:	40 e8       	ldi	r20, 0x80	; 128
    12be:	5f e3       	ldi	r21, 0x3F	; 63
    12c0:	fc 01       	movw	r30, r24
    12c2:	60 81       	ld	r22, Z
    12c4:	71 81       	ldd	r23, Z+1	; 0x01
    12c6:	82 81       	ldd	r24, Z+2	; 0x02
    12c8:	93 81       	ldd	r25, Z+3	; 0x03
    12ca:	0e 94 8e 1f 	call	0x3f1c	; 0x3f1c <__cmpsf2>
    12ce:	88 23       	and	r24, r24
    12d0:	54 f4       	brge	.+20     	; 0x12e6 <.L330>

000012d2 <.Loc.363>:
		__ticks = 1;
    12d2:	ce 01       	movw	r24, r28
    12d4:	81 5b       	subi	r24, 0xB1	; 177
    12d6:	9f 4f       	sbci	r25, 0xFF	; 255
    12d8:	21 e0       	ldi	r18, 0x01	; 1
    12da:	30 e0       	ldi	r19, 0x00	; 0
    12dc:	dc 01       	movw	r26, r24
    12de:	11 96       	adiw	r26, 0x01	; 1
    12e0:	3c 93       	st	X, r19
    12e2:	2e 93       	st	-X, r18
    12e4:	a5 c0       	rjmp	.+330    	; 0x1430 <.L105>

000012e6 <.L330>:
	else if (__tmp > 65535)
    12e6:	ce 01       	movw	r24, r28
    12e8:	85 5b       	subi	r24, 0xB5	; 181
    12ea:	9f 4f       	sbci	r25, 0xFF	; 255
    12ec:	20 e0       	ldi	r18, 0x00	; 0
    12ee:	3f ef       	ldi	r19, 0xFF	; 255
    12f0:	4f e7       	ldi	r20, 0x7F	; 127
    12f2:	57 e4       	ldi	r21, 0x47	; 71
    12f4:	fc 01       	movw	r30, r24
    12f6:	60 81       	ld	r22, Z
    12f8:	71 81       	ldd	r23, Z+1	; 0x01
    12fa:	82 81       	ldd	r24, Z+2	; 0x02
    12fc:	93 81       	ldd	r25, Z+3	; 0x03
    12fe:	0e 94 0f 20 	call	0x401e	; 0x401e <__gesf2>
    1302:	88 23       	and	r24, r24
    1304:	09 f0       	breq	.+2      	; 0x1308 <L0^A>

00001306 <L0^A>:
    1306:	0c f4       	brge	.+2      	; 0x130a <.Loc.365>

00001308 <L0^A>:
    1308:	75 c0       	rjmp	.+234    	; 0x13f4 <.L331>

0000130a <.Loc.365>:
		__ticks = (uint16_t) (__ms * 10.0);
    130a:	ce 01       	movw	r24, r28
    130c:	89 5b       	subi	r24, 0xB9	; 185
    130e:	9f 4f       	sbci	r25, 0xFF	; 255
    1310:	20 e0       	ldi	r18, 0x00	; 0
    1312:	30 e0       	ldi	r19, 0x00	; 0
    1314:	40 e2       	ldi	r20, 0x20	; 32
    1316:	51 e4       	ldi	r21, 0x41	; 65
    1318:	dc 01       	movw	r26, r24
    131a:	6d 91       	ld	r22, X+
    131c:	7d 91       	ld	r23, X+
    131e:	8d 91       	ld	r24, X+
    1320:	9c 91       	ld	r25, X
    1322:	0e 94 14 20 	call	0x4028	; 0x4028 <__mulsf3>
    1326:	cd 50       	subi	r28, 0x0D	; 13
    1328:	de 4f       	sbci	r29, 0xFE	; 254
    132a:	68 83       	st	Y, r22
    132c:	79 83       	std	Y+1, r23	; 0x01
    132e:	8a 83       	std	Y+2, r24	; 0x02
    1330:	9b 83       	std	Y+3, r25	; 0x03
    1332:	c3 5f       	subi	r28, 0xF3	; 243
    1334:	d1 40       	sbci	r29, 0x01	; 1
    1336:	cd 50       	subi	r28, 0x0D	; 13
    1338:	de 4f       	sbci	r29, 0xFE	; 254
    133a:	28 81       	ld	r18, Y
    133c:	39 81       	ldd	r19, Y+1	; 0x01
    133e:	4a 81       	ldd	r20, Y+2	; 0x02
    1340:	5b 81       	ldd	r21, Y+3	; 0x03
    1342:	c3 5f       	subi	r28, 0xF3	; 243
    1344:	d1 40       	sbci	r29, 0x01	; 1
    1346:	c9 5a       	subi	r28, 0xA9	; 169
    1348:	de 4f       	sbci	r29, 0xFE	; 254
    134a:	28 83       	st	Y, r18
    134c:	39 83       	std	Y+1, r19	; 0x01
    134e:	4a 83       	std	Y+2, r20	; 0x02
    1350:	5b 83       	std	Y+3, r21	; 0x03
    1352:	c7 55       	subi	r28, 0x57	; 87
    1354:	d1 40       	sbci	r29, 0x01	; 1

00001356 <.Loc.366>:
    1356:	8e 01       	movw	r16, r28
    1358:	01 5b       	subi	r16, 0xB1	; 177
    135a:	1f 4f       	sbci	r17, 0xFF	; 255
    135c:	c9 5a       	subi	r28, 0xA9	; 169
    135e:	de 4f       	sbci	r29, 0xFE	; 254
    1360:	68 81       	ld	r22, Y
    1362:	79 81       	ldd	r23, Y+1	; 0x01
    1364:	8a 81       	ldd	r24, Y+2	; 0x02
    1366:	9b 81       	ldd	r25, Y+3	; 0x03
    1368:	c7 55       	subi	r28, 0x57	; 87
    136a:	d1 40       	sbci	r29, 0x01	; 1
    136c:	0e 94 93 1f 	call	0x3f26	; 0x3f26 <__fixunssfsi>
    1370:	c9 50       	subi	r28, 0x09	; 9
    1372:	de 4f       	sbci	r29, 0xFE	; 254
    1374:	68 83       	st	Y, r22
    1376:	79 83       	std	Y+1, r23	; 0x01
    1378:	8a 83       	std	Y+2, r24	; 0x02
    137a:	9b 83       	std	Y+3, r25	; 0x03
    137c:	c7 5f       	subi	r28, 0xF7	; 247
    137e:	d1 40       	sbci	r29, 0x01	; 1
    1380:	c9 50       	subi	r28, 0x09	; 9
    1382:	de 4f       	sbci	r29, 0xFE	; 254
    1384:	e8 81       	ld	r30, Y
    1386:	f9 81       	ldd	r31, Y+1	; 0x01
    1388:	c7 5f       	subi	r28, 0xF7	; 247
    138a:	d1 40       	sbci	r29, 0x01	; 1
    138c:	d8 01       	movw	r26, r16
    138e:	11 96       	adiw	r26, 0x01	; 1
    1390:	fc 93       	st	X, r31
    1392:	ee 93       	st	-X, r30

00001394 <.Loc.367>:
		while(__ticks)
    1394:	26 c0       	rjmp	.+76     	; 0x13e2 <.L108>

00001396 <.L109>:
    1396:	ce 01       	movw	r24, r28
    1398:	8f 5a       	subi	r24, 0xAF	; 175
    139a:	9f 4f       	sbci	r25, 0xFF	; 255
    139c:	20 e9       	ldi	r18, 0x90	; 144
    139e:	31 e0       	ldi	r19, 0x01	; 1
    13a0:	dc 01       	movw	r26, r24
    13a2:	2d 93       	st	X+, r18
    13a4:	3c 93       	st	X, r19

000013a6 <.LBB178>:
    13a6:	ce 01       	movw	r24, r28
    13a8:	8f 5a       	subi	r24, 0xAF	; 175
    13aa:	9f 4f       	sbci	r25, 0xFF	; 255
    13ac:	fc 01       	movw	r30, r24
    13ae:	80 81       	ld	r24, Z
    13b0:	91 81       	ldd	r25, Z+1	; 0x01

000013b2 <.L1^B12>:
    13b2:	01 97       	sbiw	r24, 0x01	; 1
    13b4:	f1 f7       	brne	.-4      	; 0x13b2 <.L1^B12>
    13b6:	9e 01       	movw	r18, r28
    13b8:	2f 5a       	subi	r18, 0xAF	; 175
    13ba:	3f 4f       	sbci	r19, 0xFF	; 255
    13bc:	d9 01       	movw	r26, r18
    13be:	8d 93       	st	X+, r24
    13c0:	9c 93       	st	X, r25

000013c2 <.Loc.369>:
	...

000013c4 <.LBE178>:
			__ticks --;
    13c4:	ce 01       	movw	r24, r28
    13c6:	81 5b       	subi	r24, 0xB1	; 177
    13c8:	9f 4f       	sbci	r25, 0xFF	; 255
    13ca:	9e 01       	movw	r18, r28
    13cc:	21 5b       	subi	r18, 0xB1	; 177
    13ce:	3f 4f       	sbci	r19, 0xFF	; 255
    13d0:	f9 01       	movw	r30, r18
    13d2:	20 81       	ld	r18, Z
    13d4:	31 81       	ldd	r19, Z+1	; 0x01
    13d6:	21 50       	subi	r18, 0x01	; 1
    13d8:	31 09       	sbc	r19, r1
    13da:	dc 01       	movw	r26, r24
    13dc:	11 96       	adiw	r26, 0x01	; 1
    13de:	3c 93       	st	X, r19
    13e0:	2e 93       	st	-X, r18

000013e2 <.L108>:
		while(__ticks)
    13e2:	ce 01       	movw	r24, r28
    13e4:	81 5b       	subi	r24, 0xB1	; 177
    13e6:	9f 4f       	sbci	r25, 0xFF	; 255
    13e8:	fc 01       	movw	r30, r24
    13ea:	80 81       	ld	r24, Z
    13ec:	91 81       	ldd	r25, Z+1	; 0x01
    13ee:	00 97       	sbiw	r24, 0x00	; 0
    13f0:	91 f6       	brne	.-92     	; 0x1396 <.L109>

000013f2 <.Loc.372>:
		return;
    13f2:	3a c0       	rjmp	.+116    	; 0x1468 <.L110>

000013f4 <.L331>:
		__ticks = (uint16_t)__tmp;
    13f4:	8e 01       	movw	r16, r28
    13f6:	01 5b       	subi	r16, 0xB1	; 177
    13f8:	1f 4f       	sbci	r17, 0xFF	; 255
    13fa:	ce 01       	movw	r24, r28
    13fc:	85 5b       	subi	r24, 0xB5	; 181
    13fe:	9f 4f       	sbci	r25, 0xFF	; 255
    1400:	dc 01       	movw	r26, r24
    1402:	6d 91       	ld	r22, X+
    1404:	7d 91       	ld	r23, X+
    1406:	8d 91       	ld	r24, X+
    1408:	9c 91       	ld	r25, X
    140a:	0e 94 93 1f 	call	0x3f26	; 0x3f26 <__fixunssfsi>
    140e:	c5 50       	subi	r28, 0x05	; 5
    1410:	de 4f       	sbci	r29, 0xFE	; 254
    1412:	68 83       	st	Y, r22
    1414:	79 83       	std	Y+1, r23	; 0x01
    1416:	8a 83       	std	Y+2, r24	; 0x02
    1418:	9b 83       	std	Y+3, r25	; 0x03
    141a:	cb 5f       	subi	r28, 0xFB	; 251
    141c:	d1 40       	sbci	r29, 0x01	; 1
    141e:	c5 50       	subi	r28, 0x05	; 5
    1420:	de 4f       	sbci	r29, 0xFE	; 254
    1422:	28 81       	ld	r18, Y
    1424:	39 81       	ldd	r19, Y+1	; 0x01
    1426:	cb 5f       	subi	r28, 0xFB	; 251
    1428:	d1 40       	sbci	r29, 0x01	; 1
    142a:	f8 01       	movw	r30, r16
    142c:	31 83       	std	Z+1, r19	; 0x01
    142e:	20 83       	st	Z, r18

00001430 <.L105>:
    1430:	ce 01       	movw	r24, r28
    1432:	8d 5a       	subi	r24, 0xAD	; 173
    1434:	9f 4f       	sbci	r25, 0xFF	; 255
    1436:	9e 01       	movw	r18, r28
    1438:	21 5b       	subi	r18, 0xB1	; 177
    143a:	3f 4f       	sbci	r19, 0xFF	; 255
    143c:	d9 01       	movw	r26, r18
    143e:	2d 91       	ld	r18, X+
    1440:	3c 91       	ld	r19, X
    1442:	fc 01       	movw	r30, r24
    1444:	31 83       	std	Z+1, r19	; 0x01
    1446:	20 83       	st	Z, r18

00001448 <.LBB180>:
    1448:	ce 01       	movw	r24, r28
    144a:	8d 5a       	subi	r24, 0xAD	; 173
    144c:	9f 4f       	sbci	r25, 0xFF	; 255
    144e:	dc 01       	movw	r26, r24
    1450:	8d 91       	ld	r24, X+
    1452:	9c 91       	ld	r25, X
    1454:	11 97       	sbiw	r26, 0x01	; 1

00001456 <.L1^B13>:
    1456:	01 97       	sbiw	r24, 0x01	; 1
    1458:	f1 f7       	brne	.-4      	; 0x1456 <.L1^B13>
    145a:	9e 01       	movw	r18, r28
    145c:	2d 5a       	subi	r18, 0xAD	; 173
    145e:	3f 4f       	sbci	r19, 0xFF	; 255
    1460:	f9 01       	movw	r30, r18
    1462:	91 83       	std	Z+1, r25	; 0x01
    1464:	80 83       	st	Z, r24

00001466 <.Loc.375>:
	...

00001468 <.L110>:
                            {
                                _delay_ms(30);
                                StepCounterX=n;
    1468:	80 91 12 02 	lds	r24, 0x0212	; 0x800212 <n>
    146c:	90 91 13 02 	lds	r25, 0x0213	; 0x800213 <n+0x1>
    1470:	90 93 05 02 	sts	0x0205, r25	; 0x800205 <StepCounterX+0x1>
    1474:	80 93 04 02 	sts	0x0204, r24	; 0x800204 <StepCounterX>

00001478 <.Loc.377>:
                                MenuLayer = 25; //Switch to Y-as
    1478:	89 e1       	ldi	r24, 0x19	; 25
    147a:	90 e0       	ldi	r25, 0x00	; 0
    147c:	90 93 01 02 	sts	0x0201, r25	; 0x800201 <MenuLayer+0x1>
    1480:	80 93 00 02 	sts	0x0200, r24	; 0x800200 <MenuLayer>

00001484 <.Loc.378>:
                                n=StepCounterY; //New axis starts from 0.
    1484:	80 91 02 02 	lds	r24, 0x0202	; 0x800202 <StepCounterY>
    1488:	90 91 03 02 	lds	r25, 0x0203	; 0x800203 <StepCounterY+0x1>
    148c:	90 93 13 02 	sts	0x0213, r25	; 0x800213 <n+0x1>
    1490:	80 93 12 02 	sts	0x0212, r24	; 0x800212 <n>

00001494 <.Loc.379>:
                                knop2_ingedrukt = 1;
    1494:	81 e0       	ldi	r24, 0x01	; 1
    1496:	90 e0       	ldi	r25, 0x00	; 0
    1498:	90 93 1b 02 	sts	0x021B, r25	; 0x80021b <knop2_ingedrukt+0x1>
    149c:	80 93 1a 02 	sts	0x021A, r24	; 0x80021a <knop2_ingedrukt>
    14a0:	18 c1       	rjmp	.+560    	; 0x16d2 <.L102>

000014a2 <.L101>:
                            }
                        }
                    else
                        {
                        if (knop2_ingedrukt != 0) // knop is zojuist losgelaten
    14a2:	80 91 1a 02 	lds	r24, 0x021A	; 0x80021a <knop2_ingedrukt>
    14a6:	90 91 1b 02 	lds	r25, 0x021B	; 0x80021b <knop2_ingedrukt+0x1>

000014aa <.Loc.381>:
    14aa:	00 97       	sbiw	r24, 0x00	; 0
    14ac:	09 f4       	brne	.+2      	; 0x14b0 <L0^A+0x2>

000014ae <L0^A>:
    14ae:	11 c1       	rjmp	.+546    	; 0x16d2 <.L102>
    14b0:	9e 01       	movw	r18, r28
    14b2:	2b 5a       	subi	r18, 0xAB	; 171
    14b4:	3f 4f       	sbci	r19, 0xFF	; 255
    14b6:	80 e0       	ldi	r24, 0x00	; 0
    14b8:	90 e0       	ldi	r25, 0x00	; 0
    14ba:	a0 ef       	ldi	r26, 0xF0	; 240
    14bc:	b1 e4       	ldi	r27, 0x41	; 65
    14be:	f9 01       	movw	r30, r18
    14c0:	80 83       	st	Z, r24
    14c2:	91 83       	std	Z+1, r25	; 0x01
    14c4:	a2 83       	std	Z+2, r26	; 0x02
    14c6:	b3 83       	std	Z+3, r27	; 0x03

000014c8 <.LBB182>:
	__tmp = ((F_CPU) / 4e3) * __ms;
    14c8:	8e 01       	movw	r16, r28
    14ca:	07 5a       	subi	r16, 0xA7	; 167
    14cc:	1f 4f       	sbci	r17, 0xFF	; 255
    14ce:	ce 01       	movw	r24, r28
    14d0:	8b 5a       	subi	r24, 0xAB	; 171
    14d2:	9f 4f       	sbci	r25, 0xFF	; 255
    14d4:	20 e0       	ldi	r18, 0x00	; 0
    14d6:	30 e0       	ldi	r19, 0x00	; 0
    14d8:	4a e7       	ldi	r20, 0x7A	; 122
    14da:	55 e4       	ldi	r21, 0x45	; 69
    14dc:	dc 01       	movw	r26, r24
    14de:	6d 91       	ld	r22, X+
    14e0:	7d 91       	ld	r23, X+
    14e2:	8d 91       	ld	r24, X+
    14e4:	9c 91       	ld	r25, X
    14e6:	0e 94 14 20 	call	0x4028	; 0x4028 <__mulsf3>
    14ea:	c1 50       	subi	r28, 0x01	; 1
    14ec:	de 4f       	sbci	r29, 0xFE	; 254
    14ee:	68 83       	st	Y, r22
    14f0:	79 83       	std	Y+1, r23	; 0x01
    14f2:	8a 83       	std	Y+2, r24	; 0x02
    14f4:	9b 83       	std	Y+3, r25	; 0x03
    14f6:	cf 5f       	subi	r28, 0xFF	; 255
    14f8:	d1 40       	sbci	r29, 0x01	; 1
    14fa:	c1 50       	subi	r28, 0x01	; 1
    14fc:	de 4f       	sbci	r29, 0xFE	; 254
    14fe:	28 81       	ld	r18, Y
    1500:	39 81       	ldd	r19, Y+1	; 0x01
    1502:	4a 81       	ldd	r20, Y+2	; 0x02
    1504:	5b 81       	ldd	r21, Y+3	; 0x03
    1506:	cf 5f       	subi	r28, 0xFF	; 255
    1508:	d1 40       	sbci	r29, 0x01	; 1
    150a:	d8 01       	movw	r26, r16
    150c:	2d 93       	st	X+, r18
    150e:	3d 93       	st	X+, r19
    1510:	4d 93       	st	X+, r20
    1512:	5c 93       	st	X, r21
    1514:	13 97       	sbiw	r26, 0x03	; 3

00001516 <.Loc.383>:
	if (__tmp < 1.0)
    1516:	ce 01       	movw	r24, r28
    1518:	87 5a       	subi	r24, 0xA7	; 167
    151a:	9f 4f       	sbci	r25, 0xFF	; 255
    151c:	20 e0       	ldi	r18, 0x00	; 0
    151e:	30 e0       	ldi	r19, 0x00	; 0
    1520:	40 e8       	ldi	r20, 0x80	; 128
    1522:	5f e3       	ldi	r21, 0x3F	; 63
    1524:	fc 01       	movw	r30, r24
    1526:	60 81       	ld	r22, Z
    1528:	71 81       	ldd	r23, Z+1	; 0x01
    152a:	82 81       	ldd	r24, Z+2	; 0x02
    152c:	93 81       	ldd	r25, Z+3	; 0x03
    152e:	0e 94 8e 1f 	call	0x3f1c	; 0x3f1c <__cmpsf2>
    1532:	88 23       	and	r24, r24
    1534:	54 f4       	brge	.+20     	; 0x154a <.L332>

00001536 <.Loc.384>:
		__ticks = 1;
    1536:	ce 01       	movw	r24, r28
    1538:	83 5a       	subi	r24, 0xA3	; 163
    153a:	9f 4f       	sbci	r25, 0xFF	; 255
    153c:	21 e0       	ldi	r18, 0x01	; 1
    153e:	30 e0       	ldi	r19, 0x00	; 0
    1540:	dc 01       	movw	r26, r24
    1542:	11 96       	adiw	r26, 0x01	; 1
    1544:	3c 93       	st	X, r19
    1546:	2e 93       	st	-X, r18
    1548:	a5 c0       	rjmp	.+330    	; 0x1694 <.L113>

0000154a <.L332>:
	else if (__tmp > 65535)
    154a:	ce 01       	movw	r24, r28
    154c:	87 5a       	subi	r24, 0xA7	; 167
    154e:	9f 4f       	sbci	r25, 0xFF	; 255
    1550:	20 e0       	ldi	r18, 0x00	; 0
    1552:	3f ef       	ldi	r19, 0xFF	; 255
    1554:	4f e7       	ldi	r20, 0x7F	; 127
    1556:	57 e4       	ldi	r21, 0x47	; 71
    1558:	fc 01       	movw	r30, r24
    155a:	60 81       	ld	r22, Z
    155c:	71 81       	ldd	r23, Z+1	; 0x01
    155e:	82 81       	ldd	r24, Z+2	; 0x02
    1560:	93 81       	ldd	r25, Z+3	; 0x03
    1562:	0e 94 0f 20 	call	0x401e	; 0x401e <__gesf2>
    1566:	88 23       	and	r24, r24
    1568:	09 f0       	breq	.+2      	; 0x156c <L0^A>

0000156a <L0^A>:
    156a:	0c f4       	brge	.+2      	; 0x156e <.Loc.386>

0000156c <L0^A>:
    156c:	75 c0       	rjmp	.+234    	; 0x1658 <.L333>

0000156e <.Loc.386>:
		__ticks = (uint16_t) (__ms * 10.0);
    156e:	ce 01       	movw	r24, r28
    1570:	8b 5a       	subi	r24, 0xAB	; 171
    1572:	9f 4f       	sbci	r25, 0xFF	; 255
    1574:	20 e0       	ldi	r18, 0x00	; 0
    1576:	30 e0       	ldi	r19, 0x00	; 0
    1578:	40 e2       	ldi	r20, 0x20	; 32
    157a:	51 e4       	ldi	r21, 0x41	; 65
    157c:	dc 01       	movw	r26, r24
    157e:	6d 91       	ld	r22, X+
    1580:	7d 91       	ld	r23, X+
    1582:	8d 91       	ld	r24, X+
    1584:	9c 91       	ld	r25, X
    1586:	0e 94 14 20 	call	0x4028	; 0x4028 <__mulsf3>
    158a:	cd 5f       	subi	r28, 0xFD	; 253
    158c:	dd 4f       	sbci	r29, 0xFD	; 253
    158e:	68 83       	st	Y, r22
    1590:	79 83       	std	Y+1, r23	; 0x01
    1592:	8a 83       	std	Y+2, r24	; 0x02
    1594:	9b 83       	std	Y+3, r25	; 0x03
    1596:	c3 50       	subi	r28, 0x03	; 3
    1598:	d2 40       	sbci	r29, 0x02	; 2
    159a:	cd 5f       	subi	r28, 0xFD	; 253
    159c:	dd 4f       	sbci	r29, 0xFD	; 253
    159e:	28 81       	ld	r18, Y
    15a0:	39 81       	ldd	r19, Y+1	; 0x01
    15a2:	4a 81       	ldd	r20, Y+2	; 0x02
    15a4:	5b 81       	ldd	r21, Y+3	; 0x03
    15a6:	c3 50       	subi	r28, 0x03	; 3
    15a8:	d2 40       	sbci	r29, 0x02	; 2
    15aa:	c5 5a       	subi	r28, 0xA5	; 165
    15ac:	de 4f       	sbci	r29, 0xFE	; 254
    15ae:	28 83       	st	Y, r18
    15b0:	39 83       	std	Y+1, r19	; 0x01
    15b2:	4a 83       	std	Y+2, r20	; 0x02
    15b4:	5b 83       	std	Y+3, r21	; 0x03
    15b6:	cb 55       	subi	r28, 0x5B	; 91
    15b8:	d1 40       	sbci	r29, 0x01	; 1

000015ba <.Loc.387>:
    15ba:	8e 01       	movw	r16, r28
    15bc:	03 5a       	subi	r16, 0xA3	; 163
    15be:	1f 4f       	sbci	r17, 0xFF	; 255
    15c0:	c5 5a       	subi	r28, 0xA5	; 165
    15c2:	de 4f       	sbci	r29, 0xFE	; 254
    15c4:	68 81       	ld	r22, Y
    15c6:	79 81       	ldd	r23, Y+1	; 0x01
    15c8:	8a 81       	ldd	r24, Y+2	; 0x02
    15ca:	9b 81       	ldd	r25, Y+3	; 0x03
    15cc:	cb 55       	subi	r28, 0x5B	; 91
    15ce:	d1 40       	sbci	r29, 0x01	; 1
    15d0:	0e 94 93 1f 	call	0x3f26	; 0x3f26 <__fixunssfsi>
    15d4:	c9 5f       	subi	r28, 0xF9	; 249
    15d6:	dd 4f       	sbci	r29, 0xFD	; 253
    15d8:	68 83       	st	Y, r22
    15da:	79 83       	std	Y+1, r23	; 0x01
    15dc:	8a 83       	std	Y+2, r24	; 0x02
    15de:	9b 83       	std	Y+3, r25	; 0x03
    15e0:	c7 50       	subi	r28, 0x07	; 7
    15e2:	d2 40       	sbci	r29, 0x02	; 2
    15e4:	c9 5f       	subi	r28, 0xF9	; 249
    15e6:	dd 4f       	sbci	r29, 0xFD	; 253
    15e8:	e8 81       	ld	r30, Y
    15ea:	f9 81       	ldd	r31, Y+1	; 0x01
    15ec:	c7 50       	subi	r28, 0x07	; 7
    15ee:	d2 40       	sbci	r29, 0x02	; 2
    15f0:	d8 01       	movw	r26, r16
    15f2:	11 96       	adiw	r26, 0x01	; 1
    15f4:	fc 93       	st	X, r31
    15f6:	ee 93       	st	-X, r30

000015f8 <.Loc.388>:
		while(__ticks)
    15f8:	26 c0       	rjmp	.+76     	; 0x1646 <.L116>

000015fa <.L117>:
    15fa:	ce 01       	movw	r24, r28
    15fc:	81 5a       	subi	r24, 0xA1	; 161
    15fe:	9f 4f       	sbci	r25, 0xFF	; 255
    1600:	20 e9       	ldi	r18, 0x90	; 144
    1602:	31 e0       	ldi	r19, 0x01	; 1
    1604:	dc 01       	movw	r26, r24
    1606:	2d 93       	st	X+, r18
    1608:	3c 93       	st	X, r19

0000160a <.LBB184>:
    160a:	ce 01       	movw	r24, r28
    160c:	81 5a       	subi	r24, 0xA1	; 161
    160e:	9f 4f       	sbci	r25, 0xFF	; 255
    1610:	fc 01       	movw	r30, r24
    1612:	80 81       	ld	r24, Z
    1614:	91 81       	ldd	r25, Z+1	; 0x01

00001616 <.L1^B14>:
    1616:	01 97       	sbiw	r24, 0x01	; 1
    1618:	f1 f7       	brne	.-4      	; 0x1616 <.L1^B14>
    161a:	9e 01       	movw	r18, r28
    161c:	21 5a       	subi	r18, 0xA1	; 161
    161e:	3f 4f       	sbci	r19, 0xFF	; 255
    1620:	d9 01       	movw	r26, r18
    1622:	8d 93       	st	X+, r24
    1624:	9c 93       	st	X, r25

00001626 <.Loc.390>:
	...

00001628 <.LBE184>:
			__ticks --;
    1628:	ce 01       	movw	r24, r28
    162a:	83 5a       	subi	r24, 0xA3	; 163
    162c:	9f 4f       	sbci	r25, 0xFF	; 255
    162e:	9e 01       	movw	r18, r28
    1630:	23 5a       	subi	r18, 0xA3	; 163
    1632:	3f 4f       	sbci	r19, 0xFF	; 255
    1634:	f9 01       	movw	r30, r18
    1636:	20 81       	ld	r18, Z
    1638:	31 81       	ldd	r19, Z+1	; 0x01
    163a:	21 50       	subi	r18, 0x01	; 1
    163c:	31 09       	sbc	r19, r1
    163e:	dc 01       	movw	r26, r24
    1640:	11 96       	adiw	r26, 0x01	; 1
    1642:	3c 93       	st	X, r19
    1644:	2e 93       	st	-X, r18

00001646 <.L116>:
		while(__ticks)
    1646:	ce 01       	movw	r24, r28
    1648:	83 5a       	subi	r24, 0xA3	; 163
    164a:	9f 4f       	sbci	r25, 0xFF	; 255
    164c:	fc 01       	movw	r30, r24
    164e:	80 81       	ld	r24, Z
    1650:	91 81       	ldd	r25, Z+1	; 0x01
    1652:	00 97       	sbiw	r24, 0x00	; 0
    1654:	91 f6       	brne	.-92     	; 0x15fa <.L117>

00001656 <.Loc.393>:
		return;
    1656:	39 c0       	rjmp	.+114    	; 0x16ca <.L118>

00001658 <.L333>:
		__ticks = (uint16_t)__tmp;
    1658:	8e 01       	movw	r16, r28
    165a:	03 5a       	subi	r16, 0xA3	; 163
    165c:	1f 4f       	sbci	r17, 0xFF	; 255
    165e:	ce 01       	movw	r24, r28
    1660:	87 5a       	subi	r24, 0xA7	; 167
    1662:	9f 4f       	sbci	r25, 0xFF	; 255
    1664:	dc 01       	movw	r26, r24
    1666:	6d 91       	ld	r22, X+
    1668:	7d 91       	ld	r23, X+
    166a:	8d 91       	ld	r24, X+
    166c:	9c 91       	ld	r25, X
    166e:	0e 94 93 1f 	call	0x3f26	; 0x3f26 <__fixunssfsi>
    1672:	c5 5f       	subi	r28, 0xF5	; 245
    1674:	dd 4f       	sbci	r29, 0xFD	; 253
    1676:	68 83       	st	Y, r22
    1678:	79 83       	std	Y+1, r23	; 0x01
    167a:	8a 83       	std	Y+2, r24	; 0x02
    167c:	9b 83       	std	Y+3, r25	; 0x03
    167e:	cb 50       	subi	r28, 0x0B	; 11
    1680:	d2 40       	sbci	r29, 0x02	; 2
    1682:	c5 5f       	subi	r28, 0xF5	; 245
    1684:	dd 4f       	sbci	r29, 0xFD	; 253
    1686:	28 81       	ld	r18, Y
    1688:	39 81       	ldd	r19, Y+1	; 0x01
    168a:	cb 50       	subi	r28, 0x0B	; 11
    168c:	d2 40       	sbci	r29, 0x02	; 2
    168e:	f8 01       	movw	r30, r16
    1690:	31 83       	std	Z+1, r19	; 0x01
    1692:	20 83       	st	Z, r18

00001694 <.L113>:
    1694:	ce 01       	movw	r24, r28
    1696:	8f 59       	subi	r24, 0x9F	; 159
    1698:	9f 4f       	sbci	r25, 0xFF	; 255
    169a:	9e 01       	movw	r18, r28
    169c:	23 5a       	subi	r18, 0xA3	; 163
    169e:	3f 4f       	sbci	r19, 0xFF	; 255
    16a0:	d9 01       	movw	r26, r18
    16a2:	2d 91       	ld	r18, X+
    16a4:	3c 91       	ld	r19, X
    16a6:	fc 01       	movw	r30, r24
    16a8:	31 83       	std	Z+1, r19	; 0x01
    16aa:	20 83       	st	Z, r18

000016ac <.LBB186>:
    16ac:	ce 01       	movw	r24, r28
    16ae:	8f 59       	subi	r24, 0x9F	; 159
    16b0:	9f 4f       	sbci	r25, 0xFF	; 255
    16b2:	dc 01       	movw	r26, r24
    16b4:	8d 91       	ld	r24, X+
    16b6:	9c 91       	ld	r25, X

000016b8 <.L1^B15>:
    16b8:	01 97       	sbiw	r24, 0x01	; 1
    16ba:	f1 f7       	brne	.-4      	; 0x16b8 <.L1^B15>
    16bc:	9e 01       	movw	r18, r28
    16be:	2f 59       	subi	r18, 0x9F	; 159
    16c0:	3f 4f       	sbci	r19, 0xFF	; 255
    16c2:	f9 01       	movw	r30, r18
    16c4:	91 83       	std	Z+1, r25	; 0x01
    16c6:	80 83       	st	Z, r24

000016c8 <.Loc.396>:
	...

000016ca <.L118>:
                            {
                                _delay_ms(30);
                                knop2_ingedrukt = 0;
    16ca:	10 92 1b 02 	sts	0x021B, r1	; 0x80021b <knop2_ingedrukt+0x1>
    16ce:	10 92 1a 02 	sts	0x021A, r1	; 0x80021a <knop2_ingedrukt>

000016d2 <.L102>:
                            }
                        }


                     if ((PINL & (1 << PL3)) == 0)  //executeer
    16d2:	89 e0       	ldi	r24, 0x09	; 9
    16d4:	91 e0       	ldi	r25, 0x01	; 1
    16d6:	dc 01       	movw	r26, r24
    16d8:	8c 91       	ld	r24, X

000016da <.Loc.399>:
    16da:	88 2f       	mov	r24, r24
    16dc:	90 e0       	ldi	r25, 0x00	; 0
    16de:	88 70       	andi	r24, 0x08	; 8
    16e0:	99 27       	eor	r25, r25

000016e2 <.Loc.400>:
    16e2:	00 97       	sbiw	r24, 0x00	; 0
    16e4:	09 f0       	breq	.+2      	; 0x16e8 <.Loc.401>

000016e6 <L0^A>:
    16e6:	2e c1       	rjmp	.+604    	; 0x1944 <.L119>

000016e8 <.Loc.401>:
                        {
                            if (knop4_ingedrukt == 0) // knop is niet al eerder ingedrukt
    16e8:	80 91 1e 02 	lds	r24, 0x021E	; 0x80021e <knop4_ingedrukt>
    16ec:	90 91 1f 02 	lds	r25, 0x021F	; 0x80021f <knop4_ingedrukt+0x1>

000016f0 <.Loc.402>:
    16f0:	00 97       	sbiw	r24, 0x00	; 0
    16f2:	09 f0       	breq	.+2      	; 0x16f6 <L0^A+0x2>

000016f4 <L0^A>:
    16f4:	3f c2       	rjmp	.+1150   	; 0x1b74 <.L120>
    16f6:	9e 01       	movw	r18, r28
    16f8:	2d 59       	subi	r18, 0x9D	; 157
    16fa:	3f 4f       	sbci	r19, 0xFF	; 255
    16fc:	80 e0       	ldi	r24, 0x00	; 0
    16fe:	90 e0       	ldi	r25, 0x00	; 0
    1700:	a0 ef       	ldi	r26, 0xF0	; 240
    1702:	b1 e4       	ldi	r27, 0x41	; 65
    1704:	f9 01       	movw	r30, r18
    1706:	80 83       	st	Z, r24
    1708:	91 83       	std	Z+1, r25	; 0x01
    170a:	a2 83       	std	Z+2, r26	; 0x02
    170c:	b3 83       	std	Z+3, r27	; 0x03

0000170e <.LBB188>:
	__tmp = ((F_CPU) / 4e3) * __ms;
    170e:	8e 01       	movw	r16, r28
    1710:	09 59       	subi	r16, 0x99	; 153
    1712:	1f 4f       	sbci	r17, 0xFF	; 255
    1714:	ce 01       	movw	r24, r28
    1716:	8d 59       	subi	r24, 0x9D	; 157
    1718:	9f 4f       	sbci	r25, 0xFF	; 255
    171a:	20 e0       	ldi	r18, 0x00	; 0
    171c:	30 e0       	ldi	r19, 0x00	; 0
    171e:	4a e7       	ldi	r20, 0x7A	; 122
    1720:	55 e4       	ldi	r21, 0x45	; 69
    1722:	dc 01       	movw	r26, r24
    1724:	6d 91       	ld	r22, X+
    1726:	7d 91       	ld	r23, X+
    1728:	8d 91       	ld	r24, X+
    172a:	9c 91       	ld	r25, X
    172c:	0e 94 14 20 	call	0x4028	; 0x4028 <__mulsf3>
    1730:	c1 5f       	subi	r28, 0xF1	; 241
    1732:	dd 4f       	sbci	r29, 0xFD	; 253
    1734:	68 83       	st	Y, r22
    1736:	79 83       	std	Y+1, r23	; 0x01
    1738:	8a 83       	std	Y+2, r24	; 0x02
    173a:	9b 83       	std	Y+3, r25	; 0x03
    173c:	cf 50       	subi	r28, 0x0F	; 15
    173e:	d2 40       	sbci	r29, 0x02	; 2
    1740:	c1 5f       	subi	r28, 0xF1	; 241
    1742:	dd 4f       	sbci	r29, 0xFD	; 253
    1744:	28 81       	ld	r18, Y
    1746:	39 81       	ldd	r19, Y+1	; 0x01
    1748:	4a 81       	ldd	r20, Y+2	; 0x02
    174a:	5b 81       	ldd	r21, Y+3	; 0x03
    174c:	cf 50       	subi	r28, 0x0F	; 15
    174e:	d2 40       	sbci	r29, 0x02	; 2
    1750:	d8 01       	movw	r26, r16
    1752:	2d 93       	st	X+, r18
    1754:	3d 93       	st	X+, r19
    1756:	4d 93       	st	X+, r20
    1758:	5c 93       	st	X, r21
    175a:	13 97       	sbiw	r26, 0x03	; 3

0000175c <.Loc.404>:
	if (__tmp < 1.0)
    175c:	ce 01       	movw	r24, r28
    175e:	89 59       	subi	r24, 0x99	; 153
    1760:	9f 4f       	sbci	r25, 0xFF	; 255
    1762:	20 e0       	ldi	r18, 0x00	; 0
    1764:	30 e0       	ldi	r19, 0x00	; 0
    1766:	40 e8       	ldi	r20, 0x80	; 128
    1768:	5f e3       	ldi	r21, 0x3F	; 63
    176a:	fc 01       	movw	r30, r24
    176c:	60 81       	ld	r22, Z
    176e:	71 81       	ldd	r23, Z+1	; 0x01
    1770:	82 81       	ldd	r24, Z+2	; 0x02
    1772:	93 81       	ldd	r25, Z+3	; 0x03
    1774:	0e 94 8e 1f 	call	0x3f1c	; 0x3f1c <__cmpsf2>
    1778:	88 23       	and	r24, r24
    177a:	54 f4       	brge	.+20     	; 0x1790 <.L334>

0000177c <.Loc.405>:
		__ticks = 1;
    177c:	ce 01       	movw	r24, r28
    177e:	85 59       	subi	r24, 0x95	; 149
    1780:	9f 4f       	sbci	r25, 0xFF	; 255
    1782:	21 e0       	ldi	r18, 0x01	; 1
    1784:	30 e0       	ldi	r19, 0x00	; 0
    1786:	dc 01       	movw	r26, r24
    1788:	11 96       	adiw	r26, 0x01	; 1
    178a:	3c 93       	st	X, r19
    178c:	2e 93       	st	-X, r18
    178e:	a5 c0       	rjmp	.+330    	; 0x18da <.L123>

00001790 <.L334>:
	else if (__tmp > 65535)
    1790:	ce 01       	movw	r24, r28
    1792:	89 59       	subi	r24, 0x99	; 153
    1794:	9f 4f       	sbci	r25, 0xFF	; 255
    1796:	20 e0       	ldi	r18, 0x00	; 0
    1798:	3f ef       	ldi	r19, 0xFF	; 255
    179a:	4f e7       	ldi	r20, 0x7F	; 127
    179c:	57 e4       	ldi	r21, 0x47	; 71
    179e:	fc 01       	movw	r30, r24
    17a0:	60 81       	ld	r22, Z
    17a2:	71 81       	ldd	r23, Z+1	; 0x01
    17a4:	82 81       	ldd	r24, Z+2	; 0x02
    17a6:	93 81       	ldd	r25, Z+3	; 0x03
    17a8:	0e 94 0f 20 	call	0x401e	; 0x401e <__gesf2>
    17ac:	88 23       	and	r24, r24
    17ae:	09 f0       	breq	.+2      	; 0x17b2 <L0^A>

000017b0 <L0^A>:
    17b0:	0c f4       	brge	.+2      	; 0x17b4 <.Loc.407>

000017b2 <L0^A>:
    17b2:	75 c0       	rjmp	.+234    	; 0x189e <.L335>

000017b4 <.Loc.407>:
		__ticks = (uint16_t) (__ms * 10.0);
    17b4:	ce 01       	movw	r24, r28
    17b6:	8d 59       	subi	r24, 0x9D	; 157
    17b8:	9f 4f       	sbci	r25, 0xFF	; 255
    17ba:	20 e0       	ldi	r18, 0x00	; 0
    17bc:	30 e0       	ldi	r19, 0x00	; 0
    17be:	40 e2       	ldi	r20, 0x20	; 32
    17c0:	51 e4       	ldi	r21, 0x41	; 65
    17c2:	dc 01       	movw	r26, r24
    17c4:	6d 91       	ld	r22, X+
    17c6:	7d 91       	ld	r23, X+
    17c8:	8d 91       	ld	r24, X+
    17ca:	9c 91       	ld	r25, X
    17cc:	0e 94 14 20 	call	0x4028	; 0x4028 <__mulsf3>
    17d0:	cd 5e       	subi	r28, 0xED	; 237
    17d2:	dd 4f       	sbci	r29, 0xFD	; 253
    17d4:	68 83       	st	Y, r22
    17d6:	79 83       	std	Y+1, r23	; 0x01
    17d8:	8a 83       	std	Y+2, r24	; 0x02
    17da:	9b 83       	std	Y+3, r25	; 0x03
    17dc:	c3 51       	subi	r28, 0x13	; 19
    17de:	d2 40       	sbci	r29, 0x02	; 2
    17e0:	cd 5e       	subi	r28, 0xED	; 237
    17e2:	dd 4f       	sbci	r29, 0xFD	; 253
    17e4:	28 81       	ld	r18, Y
    17e6:	39 81       	ldd	r19, Y+1	; 0x01
    17e8:	4a 81       	ldd	r20, Y+2	; 0x02
    17ea:	5b 81       	ldd	r21, Y+3	; 0x03
    17ec:	c3 51       	subi	r28, 0x13	; 19
    17ee:	d2 40       	sbci	r29, 0x02	; 2
    17f0:	c1 5a       	subi	r28, 0xA1	; 161
    17f2:	de 4f       	sbci	r29, 0xFE	; 254
    17f4:	28 83       	st	Y, r18
    17f6:	39 83       	std	Y+1, r19	; 0x01
    17f8:	4a 83       	std	Y+2, r20	; 0x02
    17fa:	5b 83       	std	Y+3, r21	; 0x03
    17fc:	cf 55       	subi	r28, 0x5F	; 95
    17fe:	d1 40       	sbci	r29, 0x01	; 1

00001800 <.Loc.408>:
    1800:	8e 01       	movw	r16, r28
    1802:	05 59       	subi	r16, 0x95	; 149
    1804:	1f 4f       	sbci	r17, 0xFF	; 255
    1806:	c1 5a       	subi	r28, 0xA1	; 161
    1808:	de 4f       	sbci	r29, 0xFE	; 254
    180a:	68 81       	ld	r22, Y
    180c:	79 81       	ldd	r23, Y+1	; 0x01
    180e:	8a 81       	ldd	r24, Y+2	; 0x02
    1810:	9b 81       	ldd	r25, Y+3	; 0x03
    1812:	cf 55       	subi	r28, 0x5F	; 95
    1814:	d1 40       	sbci	r29, 0x01	; 1
    1816:	0e 94 93 1f 	call	0x3f26	; 0x3f26 <__fixunssfsi>
    181a:	c9 5e       	subi	r28, 0xE9	; 233
    181c:	dd 4f       	sbci	r29, 0xFD	; 253
    181e:	68 83       	st	Y, r22
    1820:	79 83       	std	Y+1, r23	; 0x01
    1822:	8a 83       	std	Y+2, r24	; 0x02
    1824:	9b 83       	std	Y+3, r25	; 0x03
    1826:	c7 51       	subi	r28, 0x17	; 23
    1828:	d2 40       	sbci	r29, 0x02	; 2
    182a:	c9 5e       	subi	r28, 0xE9	; 233
    182c:	dd 4f       	sbci	r29, 0xFD	; 253
    182e:	e8 81       	ld	r30, Y
    1830:	f9 81       	ldd	r31, Y+1	; 0x01
    1832:	c7 51       	subi	r28, 0x17	; 23
    1834:	d2 40       	sbci	r29, 0x02	; 2
    1836:	d8 01       	movw	r26, r16
    1838:	11 96       	adiw	r26, 0x01	; 1
    183a:	fc 93       	st	X, r31
    183c:	ee 93       	st	-X, r30

0000183e <.Loc.409>:
		while(__ticks)
    183e:	26 c0       	rjmp	.+76     	; 0x188c <.L126>

00001840 <.L127>:
    1840:	ce 01       	movw	r24, r28
    1842:	83 59       	subi	r24, 0x93	; 147
    1844:	9f 4f       	sbci	r25, 0xFF	; 255
    1846:	20 e9       	ldi	r18, 0x90	; 144
    1848:	31 e0       	ldi	r19, 0x01	; 1
    184a:	dc 01       	movw	r26, r24
    184c:	2d 93       	st	X+, r18
    184e:	3c 93       	st	X, r19

00001850 <.LBB190>:
    1850:	ce 01       	movw	r24, r28
    1852:	83 59       	subi	r24, 0x93	; 147
    1854:	9f 4f       	sbci	r25, 0xFF	; 255
    1856:	fc 01       	movw	r30, r24
    1858:	80 81       	ld	r24, Z
    185a:	91 81       	ldd	r25, Z+1	; 0x01

0000185c <.L1^B16>:
    185c:	01 97       	sbiw	r24, 0x01	; 1
    185e:	f1 f7       	brne	.-4      	; 0x185c <.L1^B16>
    1860:	9e 01       	movw	r18, r28
    1862:	23 59       	subi	r18, 0x93	; 147
    1864:	3f 4f       	sbci	r19, 0xFF	; 255
    1866:	d9 01       	movw	r26, r18
    1868:	8d 93       	st	X+, r24
    186a:	9c 93       	st	X, r25

0000186c <.Loc.411>:
	...

0000186e <.LBE190>:
			__ticks --;
    186e:	ce 01       	movw	r24, r28
    1870:	85 59       	subi	r24, 0x95	; 149
    1872:	9f 4f       	sbci	r25, 0xFF	; 255
    1874:	9e 01       	movw	r18, r28
    1876:	25 59       	subi	r18, 0x95	; 149
    1878:	3f 4f       	sbci	r19, 0xFF	; 255
    187a:	f9 01       	movw	r30, r18
    187c:	20 81       	ld	r18, Z
    187e:	31 81       	ldd	r19, Z+1	; 0x01
    1880:	21 50       	subi	r18, 0x01	; 1
    1882:	31 09       	sbc	r19, r1
    1884:	dc 01       	movw	r26, r24
    1886:	11 96       	adiw	r26, 0x01	; 1
    1888:	3c 93       	st	X, r19
    188a:	2e 93       	st	-X, r18

0000188c <.L126>:
		while(__ticks)
    188c:	ce 01       	movw	r24, r28
    188e:	85 59       	subi	r24, 0x95	; 149
    1890:	9f 4f       	sbci	r25, 0xFF	; 255
    1892:	fc 01       	movw	r30, r24
    1894:	80 81       	ld	r24, Z
    1896:	91 81       	ldd	r25, Z+1	; 0x01
    1898:	00 97       	sbiw	r24, 0x00	; 0
    189a:	91 f6       	brne	.-92     	; 0x1840 <.L127>

0000189c <.Loc.414>:
		return;
    189c:	3a c0       	rjmp	.+116    	; 0x1912 <.L128>

0000189e <.L335>:
		__ticks = (uint16_t)__tmp;
    189e:	8e 01       	movw	r16, r28
    18a0:	05 59       	subi	r16, 0x95	; 149
    18a2:	1f 4f       	sbci	r17, 0xFF	; 255
    18a4:	ce 01       	movw	r24, r28
    18a6:	89 59       	subi	r24, 0x99	; 153
    18a8:	9f 4f       	sbci	r25, 0xFF	; 255
    18aa:	dc 01       	movw	r26, r24
    18ac:	6d 91       	ld	r22, X+
    18ae:	7d 91       	ld	r23, X+
    18b0:	8d 91       	ld	r24, X+
    18b2:	9c 91       	ld	r25, X
    18b4:	0e 94 93 1f 	call	0x3f26	; 0x3f26 <__fixunssfsi>
    18b8:	c5 5e       	subi	r28, 0xE5	; 229
    18ba:	dd 4f       	sbci	r29, 0xFD	; 253
    18bc:	68 83       	st	Y, r22
    18be:	79 83       	std	Y+1, r23	; 0x01
    18c0:	8a 83       	std	Y+2, r24	; 0x02
    18c2:	9b 83       	std	Y+3, r25	; 0x03
    18c4:	cb 51       	subi	r28, 0x1B	; 27
    18c6:	d2 40       	sbci	r29, 0x02	; 2
    18c8:	c5 5e       	subi	r28, 0xE5	; 229
    18ca:	dd 4f       	sbci	r29, 0xFD	; 253
    18cc:	28 81       	ld	r18, Y
    18ce:	39 81       	ldd	r19, Y+1	; 0x01
    18d0:	cb 51       	subi	r28, 0x1B	; 27
    18d2:	d2 40       	sbci	r29, 0x02	; 2
    18d4:	f8 01       	movw	r30, r16
    18d6:	31 83       	std	Z+1, r19	; 0x01
    18d8:	20 83       	st	Z, r18

000018da <.L123>:
    18da:	ce 01       	movw	r24, r28
    18dc:	81 59       	subi	r24, 0x91	; 145
    18de:	9f 4f       	sbci	r25, 0xFF	; 255
    18e0:	9e 01       	movw	r18, r28
    18e2:	25 59       	subi	r18, 0x95	; 149
    18e4:	3f 4f       	sbci	r19, 0xFF	; 255
    18e6:	d9 01       	movw	r26, r18
    18e8:	2d 91       	ld	r18, X+
    18ea:	3c 91       	ld	r19, X
    18ec:	fc 01       	movw	r30, r24
    18ee:	31 83       	std	Z+1, r19	; 0x01
    18f0:	20 83       	st	Z, r18

000018f2 <.LBB192>:
    18f2:	ce 01       	movw	r24, r28
    18f4:	81 59       	subi	r24, 0x91	; 145
    18f6:	9f 4f       	sbci	r25, 0xFF	; 255
    18f8:	dc 01       	movw	r26, r24
    18fa:	8d 91       	ld	r24, X+
    18fc:	9c 91       	ld	r25, X
    18fe:	11 97       	sbiw	r26, 0x01	; 1

00001900 <.L1^B17>:
    1900:	01 97       	sbiw	r24, 0x01	; 1
    1902:	f1 f7       	brne	.-4      	; 0x1900 <.L1^B17>
    1904:	9e 01       	movw	r18, r28
    1906:	21 59       	subi	r18, 0x91	; 145
    1908:	3f 4f       	sbci	r19, 0xFF	; 255
    190a:	f9 01       	movw	r30, r18
    190c:	91 83       	std	Z+1, r25	; 0x01
    190e:	80 83       	st	Z, r24

00001910 <.Loc.417>:
	...

00001912 <.L128>:
                            {
                                _delay_ms(30);
                                StepCounterX=n;
    1912:	80 91 12 02 	lds	r24, 0x0212	; 0x800212 <n>
    1916:	90 91 13 02 	lds	r25, 0x0213	; 0x800213 <n+0x1>
    191a:	90 93 05 02 	sts	0x0205, r25	; 0x800205 <StepCounterX+0x1>
    191e:	80 93 04 02 	sts	0x0204, r24	; 0x800204 <StepCounterX>

00001922 <.Loc.419>:
                                MenuLayer = 30; //Switch to execution of code
    1922:	8e e1       	ldi	r24, 0x1E	; 30
    1924:	90 e0       	ldi	r25, 0x00	; 0
    1926:	90 93 01 02 	sts	0x0201, r25	; 0x800201 <MenuLayer+0x1>
    192a:	80 93 00 02 	sts	0x0200, r24	; 0x800200 <MenuLayer>

0000192e <.Loc.420>:
                                n=0; //New axis starts from 0.
    192e:	10 92 13 02 	sts	0x0213, r1	; 0x800213 <n+0x1>
    1932:	10 92 12 02 	sts	0x0212, r1	; 0x800212 <n>

00001936 <.Loc.421>:
                                knop4_ingedrukt = 1;
    1936:	81 e0       	ldi	r24, 0x01	; 1
    1938:	90 e0       	ldi	r25, 0x00	; 0
    193a:	90 93 1f 02 	sts	0x021F, r25	; 0x80021f <knop4_ingedrukt+0x1>
    193e:	80 93 1e 02 	sts	0x021E, r24	; 0x80021e <knop4_ingedrukt>
    1942:	18 c1       	rjmp	.+560    	; 0x1b74 <.L120>

00001944 <.L119>:
                            }
                        }
                    else
                        {
                        if (knop4_ingedrukt != 0) // knop is zojuist losgelaten
    1944:	80 91 1e 02 	lds	r24, 0x021E	; 0x80021e <knop4_ingedrukt>
    1948:	90 91 1f 02 	lds	r25, 0x021F	; 0x80021f <knop4_ingedrukt+0x1>

0000194c <.Loc.423>:
    194c:	00 97       	sbiw	r24, 0x00	; 0
    194e:	09 f4       	brne	.+2      	; 0x1952 <L0^A+0x2>

00001950 <L0^A>:
    1950:	11 c1       	rjmp	.+546    	; 0x1b74 <.L120>
    1952:	9e 01       	movw	r18, r28
    1954:	2f 58       	subi	r18, 0x8F	; 143
    1956:	3f 4f       	sbci	r19, 0xFF	; 255
    1958:	80 e0       	ldi	r24, 0x00	; 0
    195a:	90 e0       	ldi	r25, 0x00	; 0
    195c:	a0 ef       	ldi	r26, 0xF0	; 240
    195e:	b1 e4       	ldi	r27, 0x41	; 65
    1960:	f9 01       	movw	r30, r18
    1962:	80 83       	st	Z, r24
    1964:	91 83       	std	Z+1, r25	; 0x01
    1966:	a2 83       	std	Z+2, r26	; 0x02
    1968:	b3 83       	std	Z+3, r27	; 0x03

0000196a <.LBB194>:
	__tmp = ((F_CPU) / 4e3) * __ms;
    196a:	8e 01       	movw	r16, r28
    196c:	0b 58       	subi	r16, 0x8B	; 139
    196e:	1f 4f       	sbci	r17, 0xFF	; 255
    1970:	ce 01       	movw	r24, r28
    1972:	8f 58       	subi	r24, 0x8F	; 143
    1974:	9f 4f       	sbci	r25, 0xFF	; 255
    1976:	20 e0       	ldi	r18, 0x00	; 0
    1978:	30 e0       	ldi	r19, 0x00	; 0
    197a:	4a e7       	ldi	r20, 0x7A	; 122
    197c:	55 e4       	ldi	r21, 0x45	; 69
    197e:	dc 01       	movw	r26, r24
    1980:	6d 91       	ld	r22, X+
    1982:	7d 91       	ld	r23, X+
    1984:	8d 91       	ld	r24, X+
    1986:	9c 91       	ld	r25, X
    1988:	0e 94 14 20 	call	0x4028	; 0x4028 <__mulsf3>
    198c:	c1 5e       	subi	r28, 0xE1	; 225
    198e:	dd 4f       	sbci	r29, 0xFD	; 253
    1990:	68 83       	st	Y, r22
    1992:	79 83       	std	Y+1, r23	; 0x01
    1994:	8a 83       	std	Y+2, r24	; 0x02
    1996:	9b 83       	std	Y+3, r25	; 0x03
    1998:	cf 51       	subi	r28, 0x1F	; 31
    199a:	d2 40       	sbci	r29, 0x02	; 2
    199c:	c1 5e       	subi	r28, 0xE1	; 225
    199e:	dd 4f       	sbci	r29, 0xFD	; 253
    19a0:	28 81       	ld	r18, Y
    19a2:	39 81       	ldd	r19, Y+1	; 0x01
    19a4:	4a 81       	ldd	r20, Y+2	; 0x02
    19a6:	5b 81       	ldd	r21, Y+3	; 0x03
    19a8:	cf 51       	subi	r28, 0x1F	; 31
    19aa:	d2 40       	sbci	r29, 0x02	; 2
    19ac:	d8 01       	movw	r26, r16
    19ae:	2d 93       	st	X+, r18
    19b0:	3d 93       	st	X+, r19
    19b2:	4d 93       	st	X+, r20
    19b4:	5c 93       	st	X, r21
    19b6:	13 97       	sbiw	r26, 0x03	; 3

000019b8 <.Loc.425>:
	if (__tmp < 1.0)
    19b8:	ce 01       	movw	r24, r28
    19ba:	8b 58       	subi	r24, 0x8B	; 139
    19bc:	9f 4f       	sbci	r25, 0xFF	; 255
    19be:	20 e0       	ldi	r18, 0x00	; 0
    19c0:	30 e0       	ldi	r19, 0x00	; 0
    19c2:	40 e8       	ldi	r20, 0x80	; 128
    19c4:	5f e3       	ldi	r21, 0x3F	; 63
    19c6:	fc 01       	movw	r30, r24
    19c8:	60 81       	ld	r22, Z
    19ca:	71 81       	ldd	r23, Z+1	; 0x01
    19cc:	82 81       	ldd	r24, Z+2	; 0x02
    19ce:	93 81       	ldd	r25, Z+3	; 0x03
    19d0:	0e 94 8e 1f 	call	0x3f1c	; 0x3f1c <__cmpsf2>
    19d4:	88 23       	and	r24, r24
    19d6:	54 f4       	brge	.+20     	; 0x19ec <.L336>

000019d8 <.Loc.426>:
		__ticks = 1;
    19d8:	ce 01       	movw	r24, r28
    19da:	87 58       	subi	r24, 0x87	; 135
    19dc:	9f 4f       	sbci	r25, 0xFF	; 255
    19de:	21 e0       	ldi	r18, 0x01	; 1
    19e0:	30 e0       	ldi	r19, 0x00	; 0
    19e2:	dc 01       	movw	r26, r24
    19e4:	11 96       	adiw	r26, 0x01	; 1
    19e6:	3c 93       	st	X, r19
    19e8:	2e 93       	st	-X, r18
    19ea:	a5 c0       	rjmp	.+330    	; 0x1b36 <.L131>

000019ec <.L336>:
	else if (__tmp > 65535)
    19ec:	ce 01       	movw	r24, r28
    19ee:	8b 58       	subi	r24, 0x8B	; 139
    19f0:	9f 4f       	sbci	r25, 0xFF	; 255
    19f2:	20 e0       	ldi	r18, 0x00	; 0
    19f4:	3f ef       	ldi	r19, 0xFF	; 255
    19f6:	4f e7       	ldi	r20, 0x7F	; 127
    19f8:	57 e4       	ldi	r21, 0x47	; 71
    19fa:	fc 01       	movw	r30, r24
    19fc:	60 81       	ld	r22, Z
    19fe:	71 81       	ldd	r23, Z+1	; 0x01
    1a00:	82 81       	ldd	r24, Z+2	; 0x02
    1a02:	93 81       	ldd	r25, Z+3	; 0x03
    1a04:	0e 94 0f 20 	call	0x401e	; 0x401e <__gesf2>
    1a08:	88 23       	and	r24, r24
    1a0a:	09 f0       	breq	.+2      	; 0x1a0e <L0^A>

00001a0c <L0^A>:
    1a0c:	0c f4       	brge	.+2      	; 0x1a10 <.Loc.428>

00001a0e <L0^A>:
    1a0e:	75 c0       	rjmp	.+234    	; 0x1afa <.L337>

00001a10 <.Loc.428>:
		__ticks = (uint16_t) (__ms * 10.0);
    1a10:	ce 01       	movw	r24, r28
    1a12:	8f 58       	subi	r24, 0x8F	; 143
    1a14:	9f 4f       	sbci	r25, 0xFF	; 255
    1a16:	20 e0       	ldi	r18, 0x00	; 0
    1a18:	30 e0       	ldi	r19, 0x00	; 0
    1a1a:	40 e2       	ldi	r20, 0x20	; 32
    1a1c:	51 e4       	ldi	r21, 0x41	; 65
    1a1e:	dc 01       	movw	r26, r24
    1a20:	6d 91       	ld	r22, X+
    1a22:	7d 91       	ld	r23, X+
    1a24:	8d 91       	ld	r24, X+
    1a26:	9c 91       	ld	r25, X
    1a28:	0e 94 14 20 	call	0x4028	; 0x4028 <__mulsf3>
    1a2c:	cd 5d       	subi	r28, 0xDD	; 221
    1a2e:	dd 4f       	sbci	r29, 0xFD	; 253
    1a30:	68 83       	st	Y, r22
    1a32:	79 83       	std	Y+1, r23	; 0x01
    1a34:	8a 83       	std	Y+2, r24	; 0x02
    1a36:	9b 83       	std	Y+3, r25	; 0x03
    1a38:	c3 52       	subi	r28, 0x23	; 35
    1a3a:	d2 40       	sbci	r29, 0x02	; 2
    1a3c:	cd 5d       	subi	r28, 0xDD	; 221
    1a3e:	dd 4f       	sbci	r29, 0xFD	; 253
    1a40:	28 81       	ld	r18, Y
    1a42:	39 81       	ldd	r19, Y+1	; 0x01
    1a44:	4a 81       	ldd	r20, Y+2	; 0x02
    1a46:	5b 81       	ldd	r21, Y+3	; 0x03
    1a48:	c3 52       	subi	r28, 0x23	; 35
    1a4a:	d2 40       	sbci	r29, 0x02	; 2
    1a4c:	cd 59       	subi	r28, 0x9D	; 157
    1a4e:	de 4f       	sbci	r29, 0xFE	; 254
    1a50:	28 83       	st	Y, r18
    1a52:	39 83       	std	Y+1, r19	; 0x01
    1a54:	4a 83       	std	Y+2, r20	; 0x02
    1a56:	5b 83       	std	Y+3, r21	; 0x03
    1a58:	c3 56       	subi	r28, 0x63	; 99
    1a5a:	d1 40       	sbci	r29, 0x01	; 1

00001a5c <.Loc.429>:
    1a5c:	8e 01       	movw	r16, r28
    1a5e:	07 58       	subi	r16, 0x87	; 135
    1a60:	1f 4f       	sbci	r17, 0xFF	; 255
    1a62:	cd 59       	subi	r28, 0x9D	; 157
    1a64:	de 4f       	sbci	r29, 0xFE	; 254
    1a66:	68 81       	ld	r22, Y
    1a68:	79 81       	ldd	r23, Y+1	; 0x01
    1a6a:	8a 81       	ldd	r24, Y+2	; 0x02
    1a6c:	9b 81       	ldd	r25, Y+3	; 0x03
    1a6e:	c3 56       	subi	r28, 0x63	; 99
    1a70:	d1 40       	sbci	r29, 0x01	; 1
    1a72:	0e 94 93 1f 	call	0x3f26	; 0x3f26 <__fixunssfsi>
    1a76:	c9 5d       	subi	r28, 0xD9	; 217
    1a78:	dd 4f       	sbci	r29, 0xFD	; 253
    1a7a:	68 83       	st	Y, r22
    1a7c:	79 83       	std	Y+1, r23	; 0x01
    1a7e:	8a 83       	std	Y+2, r24	; 0x02
    1a80:	9b 83       	std	Y+3, r25	; 0x03
    1a82:	c7 52       	subi	r28, 0x27	; 39
    1a84:	d2 40       	sbci	r29, 0x02	; 2
    1a86:	c9 5d       	subi	r28, 0xD9	; 217
    1a88:	dd 4f       	sbci	r29, 0xFD	; 253
    1a8a:	e8 81       	ld	r30, Y
    1a8c:	f9 81       	ldd	r31, Y+1	; 0x01
    1a8e:	c7 52       	subi	r28, 0x27	; 39
    1a90:	d2 40       	sbci	r29, 0x02	; 2
    1a92:	d8 01       	movw	r26, r16
    1a94:	11 96       	adiw	r26, 0x01	; 1
    1a96:	fc 93       	st	X, r31
    1a98:	ee 93       	st	-X, r30

00001a9a <.Loc.430>:
		while(__ticks)
    1a9a:	26 c0       	rjmp	.+76     	; 0x1ae8 <.L134>

00001a9c <.L135>:
    1a9c:	ce 01       	movw	r24, r28
    1a9e:	85 58       	subi	r24, 0x85	; 133
    1aa0:	9f 4f       	sbci	r25, 0xFF	; 255
    1aa2:	20 e9       	ldi	r18, 0x90	; 144
    1aa4:	31 e0       	ldi	r19, 0x01	; 1
    1aa6:	dc 01       	movw	r26, r24
    1aa8:	2d 93       	st	X+, r18
    1aaa:	3c 93       	st	X, r19

00001aac <.LBB196>:
    1aac:	ce 01       	movw	r24, r28
    1aae:	85 58       	subi	r24, 0x85	; 133
    1ab0:	9f 4f       	sbci	r25, 0xFF	; 255
    1ab2:	fc 01       	movw	r30, r24
    1ab4:	80 81       	ld	r24, Z
    1ab6:	91 81       	ldd	r25, Z+1	; 0x01

00001ab8 <.L1^B18>:
    1ab8:	01 97       	sbiw	r24, 0x01	; 1
    1aba:	f1 f7       	brne	.-4      	; 0x1ab8 <.L1^B18>
    1abc:	9e 01       	movw	r18, r28
    1abe:	25 58       	subi	r18, 0x85	; 133
    1ac0:	3f 4f       	sbci	r19, 0xFF	; 255
    1ac2:	d9 01       	movw	r26, r18
    1ac4:	8d 93       	st	X+, r24
    1ac6:	9c 93       	st	X, r25

00001ac8 <.Loc.432>:
	...

00001aca <.LBE196>:
			__ticks --;
    1aca:	ce 01       	movw	r24, r28
    1acc:	87 58       	subi	r24, 0x87	; 135
    1ace:	9f 4f       	sbci	r25, 0xFF	; 255
    1ad0:	9e 01       	movw	r18, r28
    1ad2:	27 58       	subi	r18, 0x87	; 135
    1ad4:	3f 4f       	sbci	r19, 0xFF	; 255
    1ad6:	f9 01       	movw	r30, r18
    1ad8:	20 81       	ld	r18, Z
    1ada:	31 81       	ldd	r19, Z+1	; 0x01
    1adc:	21 50       	subi	r18, 0x01	; 1
    1ade:	31 09       	sbc	r19, r1
    1ae0:	dc 01       	movw	r26, r24
    1ae2:	11 96       	adiw	r26, 0x01	; 1
    1ae4:	3c 93       	st	X, r19
    1ae6:	2e 93       	st	-X, r18

00001ae8 <.L134>:
		while(__ticks)
    1ae8:	ce 01       	movw	r24, r28
    1aea:	87 58       	subi	r24, 0x87	; 135
    1aec:	9f 4f       	sbci	r25, 0xFF	; 255
    1aee:	fc 01       	movw	r30, r24
    1af0:	80 81       	ld	r24, Z
    1af2:	91 81       	ldd	r25, Z+1	; 0x01
    1af4:	00 97       	sbiw	r24, 0x00	; 0
    1af6:	91 f6       	brne	.-92     	; 0x1a9c <.L135>

00001af8 <.Loc.435>:
		return;
    1af8:	39 c0       	rjmp	.+114    	; 0x1b6c <.L136>

00001afa <.L337>:
		__ticks = (uint16_t)__tmp;
    1afa:	8e 01       	movw	r16, r28
    1afc:	07 58       	subi	r16, 0x87	; 135
    1afe:	1f 4f       	sbci	r17, 0xFF	; 255
    1b00:	ce 01       	movw	r24, r28
    1b02:	8b 58       	subi	r24, 0x8B	; 139
    1b04:	9f 4f       	sbci	r25, 0xFF	; 255
    1b06:	dc 01       	movw	r26, r24
    1b08:	6d 91       	ld	r22, X+
    1b0a:	7d 91       	ld	r23, X+
    1b0c:	8d 91       	ld	r24, X+
    1b0e:	9c 91       	ld	r25, X
    1b10:	0e 94 93 1f 	call	0x3f26	; 0x3f26 <__fixunssfsi>
    1b14:	c5 5d       	subi	r28, 0xD5	; 213
    1b16:	dd 4f       	sbci	r29, 0xFD	; 253
    1b18:	68 83       	st	Y, r22
    1b1a:	79 83       	std	Y+1, r23	; 0x01
    1b1c:	8a 83       	std	Y+2, r24	; 0x02
    1b1e:	9b 83       	std	Y+3, r25	; 0x03
    1b20:	cb 52       	subi	r28, 0x2B	; 43
    1b22:	d2 40       	sbci	r29, 0x02	; 2
    1b24:	c5 5d       	subi	r28, 0xD5	; 213
    1b26:	dd 4f       	sbci	r29, 0xFD	; 253
    1b28:	28 81       	ld	r18, Y
    1b2a:	39 81       	ldd	r19, Y+1	; 0x01
    1b2c:	cb 52       	subi	r28, 0x2B	; 43
    1b2e:	d2 40       	sbci	r29, 0x02	; 2
    1b30:	f8 01       	movw	r30, r16
    1b32:	31 83       	std	Z+1, r19	; 0x01
    1b34:	20 83       	st	Z, r18

00001b36 <.L131>:
    1b36:	ce 01       	movw	r24, r28
    1b38:	83 58       	subi	r24, 0x83	; 131
    1b3a:	9f 4f       	sbci	r25, 0xFF	; 255
    1b3c:	9e 01       	movw	r18, r28
    1b3e:	27 58       	subi	r18, 0x87	; 135
    1b40:	3f 4f       	sbci	r19, 0xFF	; 255
    1b42:	d9 01       	movw	r26, r18
    1b44:	2d 91       	ld	r18, X+
    1b46:	3c 91       	ld	r19, X
    1b48:	fc 01       	movw	r30, r24
    1b4a:	31 83       	std	Z+1, r19	; 0x01
    1b4c:	20 83       	st	Z, r18

00001b4e <.LBB198>:
    1b4e:	ce 01       	movw	r24, r28
    1b50:	83 58       	subi	r24, 0x83	; 131
    1b52:	9f 4f       	sbci	r25, 0xFF	; 255
    1b54:	dc 01       	movw	r26, r24
    1b56:	8d 91       	ld	r24, X+
    1b58:	9c 91       	ld	r25, X

00001b5a <.L1^B19>:
    1b5a:	01 97       	sbiw	r24, 0x01	; 1
    1b5c:	f1 f7       	brne	.-4      	; 0x1b5a <.L1^B19>
    1b5e:	9e 01       	movw	r18, r28
    1b60:	23 58       	subi	r18, 0x83	; 131
    1b62:	3f 4f       	sbci	r19, 0xFF	; 255
    1b64:	f9 01       	movw	r30, r18
    1b66:	91 83       	std	Z+1, r25	; 0x01
    1b68:	80 83       	st	Z, r24

00001b6a <.Loc.438>:
	...

00001b6c <.L136>:
                            {
                                _delay_ms(30);
                                knop4_ingedrukt = 0;
    1b6c:	10 92 1f 02 	sts	0x021F, r1	; 0x80021f <knop4_ingedrukt+0x1>
    1b70:	10 92 1e 02 	sts	0x021E, r1	; 0x80021e <knop4_ingedrukt>

00001b74 <.L120>:
                            }
                        }

                Refresh();
    1b74:	0e 94 2c 03 	call	0x658	; 0x658 <Refresh>

00001b78 <.Loc.441>:
                }break;
    1b78:	0c 94 1f 1f 	jmp	0x3e3e	; 0x3e3e <.L44>

00001b7c <.L53>:

                case 25:{ //Select Y
                DisplayState = 'Y';
    1b7c:	89 e5       	ldi	r24, 0x59	; 89
    1b7e:	80 93 06 02 	sts	0x0206, r24	; 0x800206 <DisplayState>

00001b82 <.Loc.443>:
                    if ((PINL & (1 << PL0)) == 0)
    1b82:	89 e0       	ldi	r24, 0x09	; 9
    1b84:	91 e0       	ldi	r25, 0x01	; 1
    1b86:	dc 01       	movw	r26, r24
    1b88:	8c 91       	ld	r24, X

00001b8a <.Loc.444>:
    1b8a:	88 2f       	mov	r24, r24
    1b8c:	90 e0       	ldi	r25, 0x00	; 0
    1b8e:	81 70       	andi	r24, 0x01	; 1
    1b90:	99 27       	eor	r25, r25

00001b92 <.Loc.445>:
    1b92:	00 97       	sbiw	r24, 0x00	; 0
    1b94:	09 f0       	breq	.+2      	; 0x1b98 <.Loc.446>

00001b96 <L0^A>:
    1b96:	33 c1       	rjmp	.+614    	; 0x1dfe <.L137>

00001b98 <.Loc.446>:
                        {
                            if (knop1_ingedrukt == 0) // knop is niet al eerder ingedrukt
    1b98:	80 91 18 02 	lds	r24, 0x0218	; 0x800218 <knop1_ingedrukt>
    1b9c:	90 91 19 02 	lds	r25, 0x0219	; 0x800219 <knop1_ingedrukt+0x1>

00001ba0 <.Loc.447>:
    1ba0:	00 97       	sbiw	r24, 0x00	; 0
    1ba2:	09 f0       	breq	.+2      	; 0x1ba6 <L0^A+0x2>

00001ba4 <L0^A>:
    1ba4:	44 c2       	rjmp	.+1160   	; 0x202e <.L138>
    1ba6:	9e 01       	movw	r18, r28
    1ba8:	21 58       	subi	r18, 0x81	; 129
    1baa:	3f 4f       	sbci	r19, 0xFF	; 255
    1bac:	80 e0       	ldi	r24, 0x00	; 0
    1bae:	90 e0       	ldi	r25, 0x00	; 0
    1bb0:	a0 ef       	ldi	r26, 0xF0	; 240
    1bb2:	b1 e4       	ldi	r27, 0x41	; 65
    1bb4:	f9 01       	movw	r30, r18
    1bb6:	80 83       	st	Z, r24
    1bb8:	91 83       	std	Z+1, r25	; 0x01
    1bba:	a2 83       	std	Z+2, r26	; 0x02
    1bbc:	b3 83       	std	Z+3, r27	; 0x03

00001bbe <.LBB200>:
	__tmp = ((F_CPU) / 4e3) * __ms;
    1bbe:	8e 01       	movw	r16, r28
    1bc0:	0d 57       	subi	r16, 0x7D	; 125
    1bc2:	1f 4f       	sbci	r17, 0xFF	; 255
    1bc4:	ce 01       	movw	r24, r28
    1bc6:	81 58       	subi	r24, 0x81	; 129
    1bc8:	9f 4f       	sbci	r25, 0xFF	; 255
    1bca:	20 e0       	ldi	r18, 0x00	; 0
    1bcc:	30 e0       	ldi	r19, 0x00	; 0
    1bce:	4a e7       	ldi	r20, 0x7A	; 122
    1bd0:	55 e4       	ldi	r21, 0x45	; 69
    1bd2:	dc 01       	movw	r26, r24
    1bd4:	6d 91       	ld	r22, X+
    1bd6:	7d 91       	ld	r23, X+
    1bd8:	8d 91       	ld	r24, X+
    1bda:	9c 91       	ld	r25, X
    1bdc:	0e 94 14 20 	call	0x4028	; 0x4028 <__mulsf3>
    1be0:	c1 5d       	subi	r28, 0xD1	; 209
    1be2:	dd 4f       	sbci	r29, 0xFD	; 253
    1be4:	68 83       	st	Y, r22
    1be6:	79 83       	std	Y+1, r23	; 0x01
    1be8:	8a 83       	std	Y+2, r24	; 0x02
    1bea:	9b 83       	std	Y+3, r25	; 0x03
    1bec:	cf 52       	subi	r28, 0x2F	; 47
    1bee:	d2 40       	sbci	r29, 0x02	; 2
    1bf0:	c1 5d       	subi	r28, 0xD1	; 209
    1bf2:	dd 4f       	sbci	r29, 0xFD	; 253
    1bf4:	28 81       	ld	r18, Y
    1bf6:	39 81       	ldd	r19, Y+1	; 0x01
    1bf8:	4a 81       	ldd	r20, Y+2	; 0x02
    1bfa:	5b 81       	ldd	r21, Y+3	; 0x03
    1bfc:	cf 52       	subi	r28, 0x2F	; 47
    1bfe:	d2 40       	sbci	r29, 0x02	; 2
    1c00:	d8 01       	movw	r26, r16
    1c02:	2d 93       	st	X+, r18
    1c04:	3d 93       	st	X+, r19
    1c06:	4d 93       	st	X+, r20
    1c08:	5c 93       	st	X, r21
    1c0a:	13 97       	sbiw	r26, 0x03	; 3

00001c0c <.Loc.449>:
	if (__tmp < 1.0)
    1c0c:	ce 01       	movw	r24, r28
    1c0e:	8d 57       	subi	r24, 0x7D	; 125
    1c10:	9f 4f       	sbci	r25, 0xFF	; 255
    1c12:	20 e0       	ldi	r18, 0x00	; 0
    1c14:	30 e0       	ldi	r19, 0x00	; 0
    1c16:	40 e8       	ldi	r20, 0x80	; 128
    1c18:	5f e3       	ldi	r21, 0x3F	; 63
    1c1a:	fc 01       	movw	r30, r24
    1c1c:	60 81       	ld	r22, Z
    1c1e:	71 81       	ldd	r23, Z+1	; 0x01
    1c20:	82 81       	ldd	r24, Z+2	; 0x02
    1c22:	93 81       	ldd	r25, Z+3	; 0x03
    1c24:	0e 94 8e 1f 	call	0x3f1c	; 0x3f1c <__cmpsf2>
    1c28:	88 23       	and	r24, r24
    1c2a:	54 f4       	brge	.+20     	; 0x1c40 <.L338>

00001c2c <.Loc.450>:
		__ticks = 1;
    1c2c:	ce 01       	movw	r24, r28
    1c2e:	89 57       	subi	r24, 0x79	; 121
    1c30:	9f 4f       	sbci	r25, 0xFF	; 255
    1c32:	21 e0       	ldi	r18, 0x01	; 1
    1c34:	30 e0       	ldi	r19, 0x00	; 0
    1c36:	dc 01       	movw	r26, r24
    1c38:	11 96       	adiw	r26, 0x01	; 1
    1c3a:	3c 93       	st	X, r19
    1c3c:	2e 93       	st	-X, r18
    1c3e:	a5 c0       	rjmp	.+330    	; 0x1d8a <.L141>

00001c40 <.L338>:
	else if (__tmp > 65535)
    1c40:	ce 01       	movw	r24, r28
    1c42:	8d 57       	subi	r24, 0x7D	; 125
    1c44:	9f 4f       	sbci	r25, 0xFF	; 255
    1c46:	20 e0       	ldi	r18, 0x00	; 0
    1c48:	3f ef       	ldi	r19, 0xFF	; 255
    1c4a:	4f e7       	ldi	r20, 0x7F	; 127
    1c4c:	57 e4       	ldi	r21, 0x47	; 71
    1c4e:	fc 01       	movw	r30, r24
    1c50:	60 81       	ld	r22, Z
    1c52:	71 81       	ldd	r23, Z+1	; 0x01
    1c54:	82 81       	ldd	r24, Z+2	; 0x02
    1c56:	93 81       	ldd	r25, Z+3	; 0x03
    1c58:	0e 94 0f 20 	call	0x401e	; 0x401e <__gesf2>
    1c5c:	88 23       	and	r24, r24
    1c5e:	09 f0       	breq	.+2      	; 0x1c62 <L0^A>

00001c60 <L0^A>:
    1c60:	0c f4       	brge	.+2      	; 0x1c64 <.Loc.452>

00001c62 <L0^A>:
    1c62:	75 c0       	rjmp	.+234    	; 0x1d4e <.L339>

00001c64 <.Loc.452>:
		__ticks = (uint16_t) (__ms * 10.0);
    1c64:	ce 01       	movw	r24, r28
    1c66:	81 58       	subi	r24, 0x81	; 129
    1c68:	9f 4f       	sbci	r25, 0xFF	; 255
    1c6a:	20 e0       	ldi	r18, 0x00	; 0
    1c6c:	30 e0       	ldi	r19, 0x00	; 0
    1c6e:	40 e2       	ldi	r20, 0x20	; 32
    1c70:	51 e4       	ldi	r21, 0x41	; 65
    1c72:	dc 01       	movw	r26, r24
    1c74:	6d 91       	ld	r22, X+
    1c76:	7d 91       	ld	r23, X+
    1c78:	8d 91       	ld	r24, X+
    1c7a:	9c 91       	ld	r25, X
    1c7c:	0e 94 14 20 	call	0x4028	; 0x4028 <__mulsf3>
    1c80:	cd 5c       	subi	r28, 0xCD	; 205
    1c82:	dd 4f       	sbci	r29, 0xFD	; 253
    1c84:	68 83       	st	Y, r22
    1c86:	79 83       	std	Y+1, r23	; 0x01
    1c88:	8a 83       	std	Y+2, r24	; 0x02
    1c8a:	9b 83       	std	Y+3, r25	; 0x03
    1c8c:	c3 53       	subi	r28, 0x33	; 51
    1c8e:	d2 40       	sbci	r29, 0x02	; 2
    1c90:	cd 5c       	subi	r28, 0xCD	; 205
    1c92:	dd 4f       	sbci	r29, 0xFD	; 253
    1c94:	28 81       	ld	r18, Y
    1c96:	39 81       	ldd	r19, Y+1	; 0x01
    1c98:	4a 81       	ldd	r20, Y+2	; 0x02
    1c9a:	5b 81       	ldd	r21, Y+3	; 0x03
    1c9c:	c3 53       	subi	r28, 0x33	; 51
    1c9e:	d2 40       	sbci	r29, 0x02	; 2
    1ca0:	c9 59       	subi	r28, 0x99	; 153
    1ca2:	de 4f       	sbci	r29, 0xFE	; 254
    1ca4:	28 83       	st	Y, r18
    1ca6:	39 83       	std	Y+1, r19	; 0x01
    1ca8:	4a 83       	std	Y+2, r20	; 0x02
    1caa:	5b 83       	std	Y+3, r21	; 0x03
    1cac:	c7 56       	subi	r28, 0x67	; 103
    1cae:	d1 40       	sbci	r29, 0x01	; 1

00001cb0 <.Loc.453>:
    1cb0:	8e 01       	movw	r16, r28
    1cb2:	09 57       	subi	r16, 0x79	; 121
    1cb4:	1f 4f       	sbci	r17, 0xFF	; 255
    1cb6:	c9 59       	subi	r28, 0x99	; 153
    1cb8:	de 4f       	sbci	r29, 0xFE	; 254
    1cba:	68 81       	ld	r22, Y
    1cbc:	79 81       	ldd	r23, Y+1	; 0x01
    1cbe:	8a 81       	ldd	r24, Y+2	; 0x02
    1cc0:	9b 81       	ldd	r25, Y+3	; 0x03
    1cc2:	c7 56       	subi	r28, 0x67	; 103
    1cc4:	d1 40       	sbci	r29, 0x01	; 1
    1cc6:	0e 94 93 1f 	call	0x3f26	; 0x3f26 <__fixunssfsi>
    1cca:	c9 5c       	subi	r28, 0xC9	; 201
    1ccc:	dd 4f       	sbci	r29, 0xFD	; 253
    1cce:	68 83       	st	Y, r22
    1cd0:	79 83       	std	Y+1, r23	; 0x01
    1cd2:	8a 83       	std	Y+2, r24	; 0x02
    1cd4:	9b 83       	std	Y+3, r25	; 0x03
    1cd6:	c7 53       	subi	r28, 0x37	; 55
    1cd8:	d2 40       	sbci	r29, 0x02	; 2
    1cda:	c9 5c       	subi	r28, 0xC9	; 201
    1cdc:	dd 4f       	sbci	r29, 0xFD	; 253
    1cde:	e8 81       	ld	r30, Y
    1ce0:	f9 81       	ldd	r31, Y+1	; 0x01
    1ce2:	c7 53       	subi	r28, 0x37	; 55
    1ce4:	d2 40       	sbci	r29, 0x02	; 2
    1ce6:	d8 01       	movw	r26, r16
    1ce8:	11 96       	adiw	r26, 0x01	; 1
    1cea:	fc 93       	st	X, r31
    1cec:	ee 93       	st	-X, r30

00001cee <.Loc.454>:
		while(__ticks)
    1cee:	26 c0       	rjmp	.+76     	; 0x1d3c <.L144>

00001cf0 <.L145>:
    1cf0:	ce 01       	movw	r24, r28
    1cf2:	87 57       	subi	r24, 0x77	; 119
    1cf4:	9f 4f       	sbci	r25, 0xFF	; 255
    1cf6:	20 e9       	ldi	r18, 0x90	; 144
    1cf8:	31 e0       	ldi	r19, 0x01	; 1
    1cfa:	dc 01       	movw	r26, r24
    1cfc:	2d 93       	st	X+, r18
    1cfe:	3c 93       	st	X, r19

00001d00 <.LBB202>:
    1d00:	ce 01       	movw	r24, r28
    1d02:	87 57       	subi	r24, 0x77	; 119
    1d04:	9f 4f       	sbci	r25, 0xFF	; 255
    1d06:	fc 01       	movw	r30, r24
    1d08:	80 81       	ld	r24, Z
    1d0a:	91 81       	ldd	r25, Z+1	; 0x01

00001d0c <.L1^B20>:
    1d0c:	01 97       	sbiw	r24, 0x01	; 1
    1d0e:	f1 f7       	brne	.-4      	; 0x1d0c <.L1^B20>
    1d10:	9e 01       	movw	r18, r28
    1d12:	27 57       	subi	r18, 0x77	; 119
    1d14:	3f 4f       	sbci	r19, 0xFF	; 255
    1d16:	d9 01       	movw	r26, r18
    1d18:	8d 93       	st	X+, r24
    1d1a:	9c 93       	st	X, r25

00001d1c <.Loc.456>:
	...

00001d1e <.LBE202>:
			__ticks --;
    1d1e:	ce 01       	movw	r24, r28
    1d20:	89 57       	subi	r24, 0x79	; 121
    1d22:	9f 4f       	sbci	r25, 0xFF	; 255
    1d24:	9e 01       	movw	r18, r28
    1d26:	29 57       	subi	r18, 0x79	; 121
    1d28:	3f 4f       	sbci	r19, 0xFF	; 255
    1d2a:	f9 01       	movw	r30, r18
    1d2c:	20 81       	ld	r18, Z
    1d2e:	31 81       	ldd	r19, Z+1	; 0x01
    1d30:	21 50       	subi	r18, 0x01	; 1
    1d32:	31 09       	sbc	r19, r1
    1d34:	dc 01       	movw	r26, r24
    1d36:	11 96       	adiw	r26, 0x01	; 1
    1d38:	3c 93       	st	X, r19
    1d3a:	2e 93       	st	-X, r18

00001d3c <.L144>:
		while(__ticks)
    1d3c:	ce 01       	movw	r24, r28
    1d3e:	89 57       	subi	r24, 0x79	; 121
    1d40:	9f 4f       	sbci	r25, 0xFF	; 255
    1d42:	fc 01       	movw	r30, r24
    1d44:	80 81       	ld	r24, Z
    1d46:	91 81       	ldd	r25, Z+1	; 0x01
    1d48:	00 97       	sbiw	r24, 0x00	; 0
    1d4a:	91 f6       	brne	.-92     	; 0x1cf0 <.L145>

00001d4c <.Loc.459>:
		return;
    1d4c:	3a c0       	rjmp	.+116    	; 0x1dc2 <.L146>

00001d4e <.L339>:
		__ticks = (uint16_t)__tmp;
    1d4e:	8e 01       	movw	r16, r28
    1d50:	09 57       	subi	r16, 0x79	; 121
    1d52:	1f 4f       	sbci	r17, 0xFF	; 255
    1d54:	ce 01       	movw	r24, r28
    1d56:	8d 57       	subi	r24, 0x7D	; 125
    1d58:	9f 4f       	sbci	r25, 0xFF	; 255
    1d5a:	dc 01       	movw	r26, r24
    1d5c:	6d 91       	ld	r22, X+
    1d5e:	7d 91       	ld	r23, X+
    1d60:	8d 91       	ld	r24, X+
    1d62:	9c 91       	ld	r25, X
    1d64:	0e 94 93 1f 	call	0x3f26	; 0x3f26 <__fixunssfsi>
    1d68:	c5 5c       	subi	r28, 0xC5	; 197
    1d6a:	dd 4f       	sbci	r29, 0xFD	; 253
    1d6c:	68 83       	st	Y, r22
    1d6e:	79 83       	std	Y+1, r23	; 0x01
    1d70:	8a 83       	std	Y+2, r24	; 0x02
    1d72:	9b 83       	std	Y+3, r25	; 0x03
    1d74:	cb 53       	subi	r28, 0x3B	; 59
    1d76:	d2 40       	sbci	r29, 0x02	; 2
    1d78:	c5 5c       	subi	r28, 0xC5	; 197
    1d7a:	dd 4f       	sbci	r29, 0xFD	; 253
    1d7c:	28 81       	ld	r18, Y
    1d7e:	39 81       	ldd	r19, Y+1	; 0x01
    1d80:	cb 53       	subi	r28, 0x3B	; 59
    1d82:	d2 40       	sbci	r29, 0x02	; 2
    1d84:	f8 01       	movw	r30, r16
    1d86:	31 83       	std	Z+1, r19	; 0x01
    1d88:	20 83       	st	Z, r18

00001d8a <.L141>:
    1d8a:	ce 01       	movw	r24, r28
    1d8c:	85 57       	subi	r24, 0x75	; 117
    1d8e:	9f 4f       	sbci	r25, 0xFF	; 255
    1d90:	9e 01       	movw	r18, r28
    1d92:	29 57       	subi	r18, 0x79	; 121
    1d94:	3f 4f       	sbci	r19, 0xFF	; 255
    1d96:	d9 01       	movw	r26, r18
    1d98:	2d 91       	ld	r18, X+
    1d9a:	3c 91       	ld	r19, X
    1d9c:	fc 01       	movw	r30, r24
    1d9e:	31 83       	std	Z+1, r19	; 0x01
    1da0:	20 83       	st	Z, r18

00001da2 <.LBB204>:
    1da2:	ce 01       	movw	r24, r28
    1da4:	85 57       	subi	r24, 0x75	; 117
    1da6:	9f 4f       	sbci	r25, 0xFF	; 255
    1da8:	dc 01       	movw	r26, r24
    1daa:	8d 91       	ld	r24, X+
    1dac:	9c 91       	ld	r25, X
    1dae:	11 97       	sbiw	r26, 0x01	; 1

00001db0 <.L1^B21>:
    1db0:	01 97       	sbiw	r24, 0x01	; 1
    1db2:	f1 f7       	brne	.-4      	; 0x1db0 <.L1^B21>
    1db4:	9e 01       	movw	r18, r28
    1db6:	25 57       	subi	r18, 0x75	; 117
    1db8:	3f 4f       	sbci	r19, 0xFF	; 255
    1dba:	f9 01       	movw	r30, r18
    1dbc:	91 83       	std	Z+1, r25	; 0x01
    1dbe:	80 83       	st	Z, r24

00001dc0 <.Loc.462>:
	...

00001dc2 <.L146>:
                            {
                                _delay_ms(30);
                                if (n>0)
    1dc2:	80 91 12 02 	lds	r24, 0x0212	; 0x800212 <n>
    1dc6:	90 91 13 02 	lds	r25, 0x0213	; 0x800213 <n+0x1>

00001dca <.Loc.464>:
    1dca:	00 97       	sbiw	r24, 0x00	; 0
    1dcc:	59 f0       	breq	.+22     	; 0x1de4 <.L147>
    1dce:	54 f0       	brlt	.+20     	; 0x1de4 <.L147>

00001dd0 <.Loc.465>:
                                    {
                                    n-=1;
    1dd0:	80 91 12 02 	lds	r24, 0x0212	; 0x800212 <n>
    1dd4:	90 91 13 02 	lds	r25, 0x0213	; 0x800213 <n+0x1>
    1dd8:	01 97       	sbiw	r24, 0x01	; 1
    1dda:	90 93 13 02 	sts	0x0213, r25	; 0x800213 <n+0x1>
    1dde:	80 93 12 02 	sts	0x0212, r24	; 0x800212 <n>
    1de2:	06 c0       	rjmp	.+12     	; 0x1df0 <.L148>

00001de4 <.L147>:
                                    }
                                else {  //Wraparound Action baybee!
                                        n=9;
    1de4:	89 e0       	ldi	r24, 0x09	; 9
    1de6:	90 e0       	ldi	r25, 0x00	; 0
    1de8:	90 93 13 02 	sts	0x0213, r25	; 0x800213 <n+0x1>
    1dec:	80 93 12 02 	sts	0x0212, r24	; 0x800212 <n>

00001df0 <.L148>:
                                     }
                                knop1_ingedrukt = 1;
    1df0:	81 e0       	ldi	r24, 0x01	; 1
    1df2:	90 e0       	ldi	r25, 0x00	; 0
    1df4:	90 93 19 02 	sts	0x0219, r25	; 0x800219 <knop1_ingedrukt+0x1>
    1df8:	80 93 18 02 	sts	0x0218, r24	; 0x800218 <knop1_ingedrukt>
    1dfc:	18 c1       	rjmp	.+560    	; 0x202e <.L138>

00001dfe <.L137>:
                            }
                        }
                    else
                        {
                        if (knop1_ingedrukt != 0) // knop is zojuist losgelaten
    1dfe:	80 91 18 02 	lds	r24, 0x0218	; 0x800218 <knop1_ingedrukt>
    1e02:	90 91 19 02 	lds	r25, 0x0219	; 0x800219 <knop1_ingedrukt+0x1>

00001e06 <.Loc.469>:
    1e06:	00 97       	sbiw	r24, 0x00	; 0
    1e08:	09 f4       	brne	.+2      	; 0x1e0c <L0^A+0x2>

00001e0a <L0^A>:
    1e0a:	11 c1       	rjmp	.+546    	; 0x202e <.L138>
    1e0c:	9e 01       	movw	r18, r28
    1e0e:	23 57       	subi	r18, 0x73	; 115
    1e10:	3f 4f       	sbci	r19, 0xFF	; 255
    1e12:	80 e0       	ldi	r24, 0x00	; 0
    1e14:	90 e0       	ldi	r25, 0x00	; 0
    1e16:	a0 ef       	ldi	r26, 0xF0	; 240
    1e18:	b1 e4       	ldi	r27, 0x41	; 65
    1e1a:	f9 01       	movw	r30, r18
    1e1c:	80 83       	st	Z, r24
    1e1e:	91 83       	std	Z+1, r25	; 0x01
    1e20:	a2 83       	std	Z+2, r26	; 0x02
    1e22:	b3 83       	std	Z+3, r27	; 0x03

00001e24 <.LBB206>:
	__tmp = ((F_CPU) / 4e3) * __ms;
    1e24:	8e 01       	movw	r16, r28
    1e26:	0f 56       	subi	r16, 0x6F	; 111
    1e28:	1f 4f       	sbci	r17, 0xFF	; 255
    1e2a:	ce 01       	movw	r24, r28
    1e2c:	83 57       	subi	r24, 0x73	; 115
    1e2e:	9f 4f       	sbci	r25, 0xFF	; 255
    1e30:	20 e0       	ldi	r18, 0x00	; 0
    1e32:	30 e0       	ldi	r19, 0x00	; 0
    1e34:	4a e7       	ldi	r20, 0x7A	; 122
    1e36:	55 e4       	ldi	r21, 0x45	; 69
    1e38:	dc 01       	movw	r26, r24
    1e3a:	6d 91       	ld	r22, X+
    1e3c:	7d 91       	ld	r23, X+
    1e3e:	8d 91       	ld	r24, X+
    1e40:	9c 91       	ld	r25, X
    1e42:	0e 94 14 20 	call	0x4028	; 0x4028 <__mulsf3>
    1e46:	c1 5c       	subi	r28, 0xC1	; 193
    1e48:	dd 4f       	sbci	r29, 0xFD	; 253
    1e4a:	68 83       	st	Y, r22
    1e4c:	79 83       	std	Y+1, r23	; 0x01
    1e4e:	8a 83       	std	Y+2, r24	; 0x02
    1e50:	9b 83       	std	Y+3, r25	; 0x03
    1e52:	cf 53       	subi	r28, 0x3F	; 63
    1e54:	d2 40       	sbci	r29, 0x02	; 2
    1e56:	c1 5c       	subi	r28, 0xC1	; 193
    1e58:	dd 4f       	sbci	r29, 0xFD	; 253
    1e5a:	28 81       	ld	r18, Y
    1e5c:	39 81       	ldd	r19, Y+1	; 0x01
    1e5e:	4a 81       	ldd	r20, Y+2	; 0x02
    1e60:	5b 81       	ldd	r21, Y+3	; 0x03
    1e62:	cf 53       	subi	r28, 0x3F	; 63
    1e64:	d2 40       	sbci	r29, 0x02	; 2
    1e66:	d8 01       	movw	r26, r16
    1e68:	2d 93       	st	X+, r18
    1e6a:	3d 93       	st	X+, r19
    1e6c:	4d 93       	st	X+, r20
    1e6e:	5c 93       	st	X, r21
    1e70:	13 97       	sbiw	r26, 0x03	; 3

00001e72 <.Loc.471>:
	if (__tmp < 1.0)
    1e72:	ce 01       	movw	r24, r28
    1e74:	8f 56       	subi	r24, 0x6F	; 111
    1e76:	9f 4f       	sbci	r25, 0xFF	; 255
    1e78:	20 e0       	ldi	r18, 0x00	; 0
    1e7a:	30 e0       	ldi	r19, 0x00	; 0
    1e7c:	40 e8       	ldi	r20, 0x80	; 128
    1e7e:	5f e3       	ldi	r21, 0x3F	; 63
    1e80:	fc 01       	movw	r30, r24
    1e82:	60 81       	ld	r22, Z
    1e84:	71 81       	ldd	r23, Z+1	; 0x01
    1e86:	82 81       	ldd	r24, Z+2	; 0x02
    1e88:	93 81       	ldd	r25, Z+3	; 0x03
    1e8a:	0e 94 8e 1f 	call	0x3f1c	; 0x3f1c <__cmpsf2>
    1e8e:	88 23       	and	r24, r24
    1e90:	54 f4       	brge	.+20     	; 0x1ea6 <.L340>

00001e92 <.Loc.472>:
		__ticks = 1;
    1e92:	ce 01       	movw	r24, r28
    1e94:	8b 56       	subi	r24, 0x6B	; 107
    1e96:	9f 4f       	sbci	r25, 0xFF	; 255
    1e98:	21 e0       	ldi	r18, 0x01	; 1
    1e9a:	30 e0       	ldi	r19, 0x00	; 0
    1e9c:	dc 01       	movw	r26, r24
    1e9e:	11 96       	adiw	r26, 0x01	; 1
    1ea0:	3c 93       	st	X, r19
    1ea2:	2e 93       	st	-X, r18
    1ea4:	a5 c0       	rjmp	.+330    	; 0x1ff0 <.L151>

00001ea6 <.L340>:
	else if (__tmp > 65535)
    1ea6:	ce 01       	movw	r24, r28
    1ea8:	8f 56       	subi	r24, 0x6F	; 111
    1eaa:	9f 4f       	sbci	r25, 0xFF	; 255
    1eac:	20 e0       	ldi	r18, 0x00	; 0
    1eae:	3f ef       	ldi	r19, 0xFF	; 255
    1eb0:	4f e7       	ldi	r20, 0x7F	; 127
    1eb2:	57 e4       	ldi	r21, 0x47	; 71
    1eb4:	fc 01       	movw	r30, r24
    1eb6:	60 81       	ld	r22, Z
    1eb8:	71 81       	ldd	r23, Z+1	; 0x01
    1eba:	82 81       	ldd	r24, Z+2	; 0x02
    1ebc:	93 81       	ldd	r25, Z+3	; 0x03
    1ebe:	0e 94 0f 20 	call	0x401e	; 0x401e <__gesf2>
    1ec2:	88 23       	and	r24, r24
    1ec4:	09 f0       	breq	.+2      	; 0x1ec8 <L0^A>

00001ec6 <L0^A>:
    1ec6:	0c f4       	brge	.+2      	; 0x1eca <.Loc.474>

00001ec8 <L0^A>:
    1ec8:	75 c0       	rjmp	.+234    	; 0x1fb4 <.L341>

00001eca <.Loc.474>:
		__ticks = (uint16_t) (__ms * 10.0);
    1eca:	ce 01       	movw	r24, r28
    1ecc:	83 57       	subi	r24, 0x73	; 115
    1ece:	9f 4f       	sbci	r25, 0xFF	; 255
    1ed0:	20 e0       	ldi	r18, 0x00	; 0
    1ed2:	30 e0       	ldi	r19, 0x00	; 0
    1ed4:	40 e2       	ldi	r20, 0x20	; 32
    1ed6:	51 e4       	ldi	r21, 0x41	; 65
    1ed8:	dc 01       	movw	r26, r24
    1eda:	6d 91       	ld	r22, X+
    1edc:	7d 91       	ld	r23, X+
    1ede:	8d 91       	ld	r24, X+
    1ee0:	9c 91       	ld	r25, X
    1ee2:	0e 94 14 20 	call	0x4028	; 0x4028 <__mulsf3>
    1ee6:	cd 5b       	subi	r28, 0xBD	; 189
    1ee8:	dd 4f       	sbci	r29, 0xFD	; 253
    1eea:	68 83       	st	Y, r22
    1eec:	79 83       	std	Y+1, r23	; 0x01
    1eee:	8a 83       	std	Y+2, r24	; 0x02
    1ef0:	9b 83       	std	Y+3, r25	; 0x03
    1ef2:	c3 54       	subi	r28, 0x43	; 67
    1ef4:	d2 40       	sbci	r29, 0x02	; 2
    1ef6:	cd 5b       	subi	r28, 0xBD	; 189
    1ef8:	dd 4f       	sbci	r29, 0xFD	; 253
    1efa:	28 81       	ld	r18, Y
    1efc:	39 81       	ldd	r19, Y+1	; 0x01
    1efe:	4a 81       	ldd	r20, Y+2	; 0x02
    1f00:	5b 81       	ldd	r21, Y+3	; 0x03
    1f02:	c3 54       	subi	r28, 0x43	; 67
    1f04:	d2 40       	sbci	r29, 0x02	; 2
    1f06:	c5 59       	subi	r28, 0x95	; 149
    1f08:	de 4f       	sbci	r29, 0xFE	; 254
    1f0a:	28 83       	st	Y, r18
    1f0c:	39 83       	std	Y+1, r19	; 0x01
    1f0e:	4a 83       	std	Y+2, r20	; 0x02
    1f10:	5b 83       	std	Y+3, r21	; 0x03
    1f12:	cb 56       	subi	r28, 0x6B	; 107
    1f14:	d1 40       	sbci	r29, 0x01	; 1

00001f16 <.Loc.475>:
    1f16:	8e 01       	movw	r16, r28
    1f18:	0b 56       	subi	r16, 0x6B	; 107
    1f1a:	1f 4f       	sbci	r17, 0xFF	; 255
    1f1c:	c5 59       	subi	r28, 0x95	; 149
    1f1e:	de 4f       	sbci	r29, 0xFE	; 254
    1f20:	68 81       	ld	r22, Y
    1f22:	79 81       	ldd	r23, Y+1	; 0x01
    1f24:	8a 81       	ldd	r24, Y+2	; 0x02
    1f26:	9b 81       	ldd	r25, Y+3	; 0x03
    1f28:	cb 56       	subi	r28, 0x6B	; 107
    1f2a:	d1 40       	sbci	r29, 0x01	; 1
    1f2c:	0e 94 93 1f 	call	0x3f26	; 0x3f26 <__fixunssfsi>
    1f30:	c9 5b       	subi	r28, 0xB9	; 185
    1f32:	dd 4f       	sbci	r29, 0xFD	; 253
    1f34:	68 83       	st	Y, r22
    1f36:	79 83       	std	Y+1, r23	; 0x01
    1f38:	8a 83       	std	Y+2, r24	; 0x02
    1f3a:	9b 83       	std	Y+3, r25	; 0x03
    1f3c:	c7 54       	subi	r28, 0x47	; 71
    1f3e:	d2 40       	sbci	r29, 0x02	; 2
    1f40:	c9 5b       	subi	r28, 0xB9	; 185
    1f42:	dd 4f       	sbci	r29, 0xFD	; 253
    1f44:	e8 81       	ld	r30, Y
    1f46:	f9 81       	ldd	r31, Y+1	; 0x01
    1f48:	c7 54       	subi	r28, 0x47	; 71
    1f4a:	d2 40       	sbci	r29, 0x02	; 2
    1f4c:	d8 01       	movw	r26, r16
    1f4e:	11 96       	adiw	r26, 0x01	; 1
    1f50:	fc 93       	st	X, r31
    1f52:	ee 93       	st	-X, r30

00001f54 <.Loc.476>:
		while(__ticks)
    1f54:	26 c0       	rjmp	.+76     	; 0x1fa2 <.L154>

00001f56 <.L155>:
    1f56:	ce 01       	movw	r24, r28
    1f58:	89 56       	subi	r24, 0x69	; 105
    1f5a:	9f 4f       	sbci	r25, 0xFF	; 255
    1f5c:	20 e9       	ldi	r18, 0x90	; 144
    1f5e:	31 e0       	ldi	r19, 0x01	; 1
    1f60:	dc 01       	movw	r26, r24
    1f62:	2d 93       	st	X+, r18
    1f64:	3c 93       	st	X, r19

00001f66 <.LBB208>:
    1f66:	ce 01       	movw	r24, r28
    1f68:	89 56       	subi	r24, 0x69	; 105
    1f6a:	9f 4f       	sbci	r25, 0xFF	; 255
    1f6c:	fc 01       	movw	r30, r24
    1f6e:	80 81       	ld	r24, Z
    1f70:	91 81       	ldd	r25, Z+1	; 0x01

00001f72 <.L1^B22>:
    1f72:	01 97       	sbiw	r24, 0x01	; 1
    1f74:	f1 f7       	brne	.-4      	; 0x1f72 <.L1^B22>
    1f76:	9e 01       	movw	r18, r28
    1f78:	29 56       	subi	r18, 0x69	; 105
    1f7a:	3f 4f       	sbci	r19, 0xFF	; 255
    1f7c:	d9 01       	movw	r26, r18
    1f7e:	8d 93       	st	X+, r24
    1f80:	9c 93       	st	X, r25

00001f82 <.Loc.478>:
	...

00001f84 <.LBE208>:
			__ticks --;
    1f84:	ce 01       	movw	r24, r28
    1f86:	8b 56       	subi	r24, 0x6B	; 107
    1f88:	9f 4f       	sbci	r25, 0xFF	; 255
    1f8a:	9e 01       	movw	r18, r28
    1f8c:	2b 56       	subi	r18, 0x6B	; 107
    1f8e:	3f 4f       	sbci	r19, 0xFF	; 255
    1f90:	f9 01       	movw	r30, r18
    1f92:	20 81       	ld	r18, Z
    1f94:	31 81       	ldd	r19, Z+1	; 0x01
    1f96:	21 50       	subi	r18, 0x01	; 1
    1f98:	31 09       	sbc	r19, r1
    1f9a:	dc 01       	movw	r26, r24
    1f9c:	11 96       	adiw	r26, 0x01	; 1
    1f9e:	3c 93       	st	X, r19
    1fa0:	2e 93       	st	-X, r18

00001fa2 <.L154>:
		while(__ticks)
    1fa2:	ce 01       	movw	r24, r28
    1fa4:	8b 56       	subi	r24, 0x6B	; 107
    1fa6:	9f 4f       	sbci	r25, 0xFF	; 255
    1fa8:	fc 01       	movw	r30, r24
    1faa:	80 81       	ld	r24, Z
    1fac:	91 81       	ldd	r25, Z+1	; 0x01
    1fae:	00 97       	sbiw	r24, 0x00	; 0
    1fb0:	91 f6       	brne	.-92     	; 0x1f56 <.L155>

00001fb2 <.Loc.481>:
		return;
    1fb2:	39 c0       	rjmp	.+114    	; 0x2026 <.L156>

00001fb4 <.L341>:
		__ticks = (uint16_t)__tmp;
    1fb4:	8e 01       	movw	r16, r28
    1fb6:	0b 56       	subi	r16, 0x6B	; 107
    1fb8:	1f 4f       	sbci	r17, 0xFF	; 255
    1fba:	ce 01       	movw	r24, r28
    1fbc:	8f 56       	subi	r24, 0x6F	; 111
    1fbe:	9f 4f       	sbci	r25, 0xFF	; 255
    1fc0:	dc 01       	movw	r26, r24
    1fc2:	6d 91       	ld	r22, X+
    1fc4:	7d 91       	ld	r23, X+
    1fc6:	8d 91       	ld	r24, X+
    1fc8:	9c 91       	ld	r25, X
    1fca:	0e 94 93 1f 	call	0x3f26	; 0x3f26 <__fixunssfsi>
    1fce:	c5 5b       	subi	r28, 0xB5	; 181
    1fd0:	dd 4f       	sbci	r29, 0xFD	; 253
    1fd2:	68 83       	st	Y, r22
    1fd4:	79 83       	std	Y+1, r23	; 0x01
    1fd6:	8a 83       	std	Y+2, r24	; 0x02
    1fd8:	9b 83       	std	Y+3, r25	; 0x03
    1fda:	cb 54       	subi	r28, 0x4B	; 75
    1fdc:	d2 40       	sbci	r29, 0x02	; 2
    1fde:	c5 5b       	subi	r28, 0xB5	; 181
    1fe0:	dd 4f       	sbci	r29, 0xFD	; 253
    1fe2:	28 81       	ld	r18, Y
    1fe4:	39 81       	ldd	r19, Y+1	; 0x01
    1fe6:	cb 54       	subi	r28, 0x4B	; 75
    1fe8:	d2 40       	sbci	r29, 0x02	; 2
    1fea:	f8 01       	movw	r30, r16
    1fec:	31 83       	std	Z+1, r19	; 0x01
    1fee:	20 83       	st	Z, r18

00001ff0 <.L151>:
    1ff0:	ce 01       	movw	r24, r28
    1ff2:	87 56       	subi	r24, 0x67	; 103
    1ff4:	9f 4f       	sbci	r25, 0xFF	; 255
    1ff6:	9e 01       	movw	r18, r28
    1ff8:	2b 56       	subi	r18, 0x6B	; 107
    1ffa:	3f 4f       	sbci	r19, 0xFF	; 255
    1ffc:	d9 01       	movw	r26, r18
    1ffe:	2d 91       	ld	r18, X+
    2000:	3c 91       	ld	r19, X
    2002:	fc 01       	movw	r30, r24
    2004:	31 83       	std	Z+1, r19	; 0x01
    2006:	20 83       	st	Z, r18

00002008 <.LBB210>:
    2008:	ce 01       	movw	r24, r28
    200a:	87 56       	subi	r24, 0x67	; 103
    200c:	9f 4f       	sbci	r25, 0xFF	; 255
    200e:	dc 01       	movw	r26, r24
    2010:	8d 91       	ld	r24, X+
    2012:	9c 91       	ld	r25, X

00002014 <.L1^B23>:
    2014:	01 97       	sbiw	r24, 0x01	; 1
    2016:	f1 f7       	brne	.-4      	; 0x2014 <.L1^B23>
    2018:	9e 01       	movw	r18, r28
    201a:	27 56       	subi	r18, 0x67	; 103
    201c:	3f 4f       	sbci	r19, 0xFF	; 255
    201e:	f9 01       	movw	r30, r18
    2020:	91 83       	std	Z+1, r25	; 0x01
    2022:	80 83       	st	Z, r24

00002024 <.Loc.484>:
	...

00002026 <.L156>:
                            {
                                _delay_ms(30);
                                knop1_ingedrukt = 0;
    2026:	10 92 19 02 	sts	0x0219, r1	; 0x800219 <knop1_ingedrukt+0x1>
    202a:	10 92 18 02 	sts	0x0218, r1	; 0x800218 <knop1_ingedrukt>

0000202e <.L138>:
                            }
                        }


                    if ((PINL & (1 << PL2)) == 0)
    202e:	89 e0       	ldi	r24, 0x09	; 9
    2030:	91 e0       	ldi	r25, 0x01	; 1
    2032:	dc 01       	movw	r26, r24
    2034:	8c 91       	ld	r24, X

00002036 <.Loc.487>:
    2036:	88 2f       	mov	r24, r24
    2038:	90 e0       	ldi	r25, 0x00	; 0
    203a:	84 70       	andi	r24, 0x04	; 4
    203c:	99 27       	eor	r25, r25

0000203e <.Loc.488>:
    203e:	00 97       	sbiw	r24, 0x00	; 0
    2040:	09 f0       	breq	.+2      	; 0x2044 <.Loc.489>

00002042 <L0^A>:
    2042:	32 c1       	rjmp	.+612    	; 0x22a8 <.L157>

00002044 <.Loc.489>:
                        {
                            if (knop3_ingedrukt == 0) // knop is niet al eerder ingedrukt
    2044:	80 91 1c 02 	lds	r24, 0x021C	; 0x80021c <knop3_ingedrukt>
    2048:	90 91 1d 02 	lds	r25, 0x021D	; 0x80021d <knop3_ingedrukt+0x1>

0000204c <.Loc.490>:
    204c:	00 97       	sbiw	r24, 0x00	; 0
    204e:	09 f0       	breq	.+2      	; 0x2052 <L0^A+0x2>

00002050 <L0^A>:
    2050:	43 c2       	rjmp	.+1158   	; 0x24d8 <.L158>
    2052:	9e 01       	movw	r18, r28
    2054:	25 56       	subi	r18, 0x65	; 101
    2056:	3f 4f       	sbci	r19, 0xFF	; 255
    2058:	80 e0       	ldi	r24, 0x00	; 0
    205a:	90 e0       	ldi	r25, 0x00	; 0
    205c:	a0 ef       	ldi	r26, 0xF0	; 240
    205e:	b1 e4       	ldi	r27, 0x41	; 65
    2060:	f9 01       	movw	r30, r18
    2062:	80 83       	st	Z, r24
    2064:	91 83       	std	Z+1, r25	; 0x01
    2066:	a2 83       	std	Z+2, r26	; 0x02
    2068:	b3 83       	std	Z+3, r27	; 0x03

0000206a <.LBB212>:
	__tmp = ((F_CPU) / 4e3) * __ms;
    206a:	8e 01       	movw	r16, r28
    206c:	01 56       	subi	r16, 0x61	; 97
    206e:	1f 4f       	sbci	r17, 0xFF	; 255
    2070:	ce 01       	movw	r24, r28
    2072:	85 56       	subi	r24, 0x65	; 101
    2074:	9f 4f       	sbci	r25, 0xFF	; 255
    2076:	20 e0       	ldi	r18, 0x00	; 0
    2078:	30 e0       	ldi	r19, 0x00	; 0
    207a:	4a e7       	ldi	r20, 0x7A	; 122
    207c:	55 e4       	ldi	r21, 0x45	; 69
    207e:	dc 01       	movw	r26, r24
    2080:	6d 91       	ld	r22, X+
    2082:	7d 91       	ld	r23, X+
    2084:	8d 91       	ld	r24, X+
    2086:	9c 91       	ld	r25, X
    2088:	0e 94 14 20 	call	0x4028	; 0x4028 <__mulsf3>
    208c:	c1 5b       	subi	r28, 0xB1	; 177
    208e:	dd 4f       	sbci	r29, 0xFD	; 253
    2090:	68 83       	st	Y, r22
    2092:	79 83       	std	Y+1, r23	; 0x01
    2094:	8a 83       	std	Y+2, r24	; 0x02
    2096:	9b 83       	std	Y+3, r25	; 0x03
    2098:	cf 54       	subi	r28, 0x4F	; 79
    209a:	d2 40       	sbci	r29, 0x02	; 2
    209c:	c1 5b       	subi	r28, 0xB1	; 177
    209e:	dd 4f       	sbci	r29, 0xFD	; 253
    20a0:	28 81       	ld	r18, Y
    20a2:	39 81       	ldd	r19, Y+1	; 0x01
    20a4:	4a 81       	ldd	r20, Y+2	; 0x02
    20a6:	5b 81       	ldd	r21, Y+3	; 0x03
    20a8:	cf 54       	subi	r28, 0x4F	; 79
    20aa:	d2 40       	sbci	r29, 0x02	; 2
    20ac:	d8 01       	movw	r26, r16
    20ae:	2d 93       	st	X+, r18
    20b0:	3d 93       	st	X+, r19
    20b2:	4d 93       	st	X+, r20
    20b4:	5c 93       	st	X, r21
    20b6:	13 97       	sbiw	r26, 0x03	; 3

000020b8 <.Loc.492>:
	if (__tmp < 1.0)
    20b8:	ce 01       	movw	r24, r28
    20ba:	81 56       	subi	r24, 0x61	; 97
    20bc:	9f 4f       	sbci	r25, 0xFF	; 255
    20be:	20 e0       	ldi	r18, 0x00	; 0
    20c0:	30 e0       	ldi	r19, 0x00	; 0
    20c2:	40 e8       	ldi	r20, 0x80	; 128
    20c4:	5f e3       	ldi	r21, 0x3F	; 63
    20c6:	fc 01       	movw	r30, r24
    20c8:	60 81       	ld	r22, Z
    20ca:	71 81       	ldd	r23, Z+1	; 0x01
    20cc:	82 81       	ldd	r24, Z+2	; 0x02
    20ce:	93 81       	ldd	r25, Z+3	; 0x03
    20d0:	0e 94 8e 1f 	call	0x3f1c	; 0x3f1c <__cmpsf2>
    20d4:	88 23       	and	r24, r24
    20d6:	54 f4       	brge	.+20     	; 0x20ec <.L342>

000020d8 <.Loc.493>:
		__ticks = 1;
    20d8:	ce 01       	movw	r24, r28
    20da:	8d 55       	subi	r24, 0x5D	; 93
    20dc:	9f 4f       	sbci	r25, 0xFF	; 255
    20de:	21 e0       	ldi	r18, 0x01	; 1
    20e0:	30 e0       	ldi	r19, 0x00	; 0
    20e2:	dc 01       	movw	r26, r24
    20e4:	11 96       	adiw	r26, 0x01	; 1
    20e6:	3c 93       	st	X, r19
    20e8:	2e 93       	st	-X, r18
    20ea:	a5 c0       	rjmp	.+330    	; 0x2236 <.L161>

000020ec <.L342>:
	else if (__tmp > 65535)
    20ec:	ce 01       	movw	r24, r28
    20ee:	81 56       	subi	r24, 0x61	; 97
    20f0:	9f 4f       	sbci	r25, 0xFF	; 255
    20f2:	20 e0       	ldi	r18, 0x00	; 0
    20f4:	3f ef       	ldi	r19, 0xFF	; 255
    20f6:	4f e7       	ldi	r20, 0x7F	; 127
    20f8:	57 e4       	ldi	r21, 0x47	; 71
    20fa:	fc 01       	movw	r30, r24
    20fc:	60 81       	ld	r22, Z
    20fe:	71 81       	ldd	r23, Z+1	; 0x01
    2100:	82 81       	ldd	r24, Z+2	; 0x02
    2102:	93 81       	ldd	r25, Z+3	; 0x03
    2104:	0e 94 0f 20 	call	0x401e	; 0x401e <__gesf2>
    2108:	88 23       	and	r24, r24
    210a:	09 f0       	breq	.+2      	; 0x210e <L0^A>

0000210c <L0^A>:
    210c:	0c f4       	brge	.+2      	; 0x2110 <.Loc.495>

0000210e <L0^A>:
    210e:	75 c0       	rjmp	.+234    	; 0x21fa <.L343>

00002110 <.Loc.495>:
		__ticks = (uint16_t) (__ms * 10.0);
    2110:	ce 01       	movw	r24, r28
    2112:	85 56       	subi	r24, 0x65	; 101
    2114:	9f 4f       	sbci	r25, 0xFF	; 255
    2116:	20 e0       	ldi	r18, 0x00	; 0
    2118:	30 e0       	ldi	r19, 0x00	; 0
    211a:	40 e2       	ldi	r20, 0x20	; 32
    211c:	51 e4       	ldi	r21, 0x41	; 65
    211e:	dc 01       	movw	r26, r24
    2120:	6d 91       	ld	r22, X+
    2122:	7d 91       	ld	r23, X+
    2124:	8d 91       	ld	r24, X+
    2126:	9c 91       	ld	r25, X
    2128:	0e 94 14 20 	call	0x4028	; 0x4028 <__mulsf3>
    212c:	cd 5a       	subi	r28, 0xAD	; 173
    212e:	dd 4f       	sbci	r29, 0xFD	; 253
    2130:	68 83       	st	Y, r22
    2132:	79 83       	std	Y+1, r23	; 0x01
    2134:	8a 83       	std	Y+2, r24	; 0x02
    2136:	9b 83       	std	Y+3, r25	; 0x03
    2138:	c3 55       	subi	r28, 0x53	; 83
    213a:	d2 40       	sbci	r29, 0x02	; 2
    213c:	cd 5a       	subi	r28, 0xAD	; 173
    213e:	dd 4f       	sbci	r29, 0xFD	; 253
    2140:	28 81       	ld	r18, Y
    2142:	39 81       	ldd	r19, Y+1	; 0x01
    2144:	4a 81       	ldd	r20, Y+2	; 0x02
    2146:	5b 81       	ldd	r21, Y+3	; 0x03
    2148:	c3 55       	subi	r28, 0x53	; 83
    214a:	d2 40       	sbci	r29, 0x02	; 2
    214c:	c1 59       	subi	r28, 0x91	; 145
    214e:	de 4f       	sbci	r29, 0xFE	; 254
    2150:	28 83       	st	Y, r18
    2152:	39 83       	std	Y+1, r19	; 0x01
    2154:	4a 83       	std	Y+2, r20	; 0x02
    2156:	5b 83       	std	Y+3, r21	; 0x03
    2158:	cf 56       	subi	r28, 0x6F	; 111
    215a:	d1 40       	sbci	r29, 0x01	; 1

0000215c <.Loc.496>:
    215c:	8e 01       	movw	r16, r28
    215e:	0d 55       	subi	r16, 0x5D	; 93
    2160:	1f 4f       	sbci	r17, 0xFF	; 255
    2162:	c1 59       	subi	r28, 0x91	; 145
    2164:	de 4f       	sbci	r29, 0xFE	; 254
    2166:	68 81       	ld	r22, Y
    2168:	79 81       	ldd	r23, Y+1	; 0x01
    216a:	8a 81       	ldd	r24, Y+2	; 0x02
    216c:	9b 81       	ldd	r25, Y+3	; 0x03
    216e:	cf 56       	subi	r28, 0x6F	; 111
    2170:	d1 40       	sbci	r29, 0x01	; 1
    2172:	0e 94 93 1f 	call	0x3f26	; 0x3f26 <__fixunssfsi>
    2176:	c9 5a       	subi	r28, 0xA9	; 169
    2178:	dd 4f       	sbci	r29, 0xFD	; 253
    217a:	68 83       	st	Y, r22
    217c:	79 83       	std	Y+1, r23	; 0x01
    217e:	8a 83       	std	Y+2, r24	; 0x02
    2180:	9b 83       	std	Y+3, r25	; 0x03
    2182:	c7 55       	subi	r28, 0x57	; 87
    2184:	d2 40       	sbci	r29, 0x02	; 2
    2186:	c9 5a       	subi	r28, 0xA9	; 169
    2188:	dd 4f       	sbci	r29, 0xFD	; 253
    218a:	e8 81       	ld	r30, Y
    218c:	f9 81       	ldd	r31, Y+1	; 0x01
    218e:	c7 55       	subi	r28, 0x57	; 87
    2190:	d2 40       	sbci	r29, 0x02	; 2
    2192:	d8 01       	movw	r26, r16
    2194:	11 96       	adiw	r26, 0x01	; 1
    2196:	fc 93       	st	X, r31
    2198:	ee 93       	st	-X, r30

0000219a <.Loc.497>:
		while(__ticks)
    219a:	26 c0       	rjmp	.+76     	; 0x21e8 <.L164>

0000219c <.L165>:
    219c:	ce 01       	movw	r24, r28
    219e:	8b 55       	subi	r24, 0x5B	; 91
    21a0:	9f 4f       	sbci	r25, 0xFF	; 255
    21a2:	20 e9       	ldi	r18, 0x90	; 144
    21a4:	31 e0       	ldi	r19, 0x01	; 1
    21a6:	dc 01       	movw	r26, r24
    21a8:	2d 93       	st	X+, r18
    21aa:	3c 93       	st	X, r19

000021ac <.LBB214>:
    21ac:	ce 01       	movw	r24, r28
    21ae:	8b 55       	subi	r24, 0x5B	; 91
    21b0:	9f 4f       	sbci	r25, 0xFF	; 255
    21b2:	fc 01       	movw	r30, r24
    21b4:	80 81       	ld	r24, Z
    21b6:	91 81       	ldd	r25, Z+1	; 0x01

000021b8 <.L1^B24>:
    21b8:	01 97       	sbiw	r24, 0x01	; 1
    21ba:	f1 f7       	brne	.-4      	; 0x21b8 <.L1^B24>
    21bc:	9e 01       	movw	r18, r28
    21be:	2b 55       	subi	r18, 0x5B	; 91
    21c0:	3f 4f       	sbci	r19, 0xFF	; 255
    21c2:	d9 01       	movw	r26, r18
    21c4:	8d 93       	st	X+, r24
    21c6:	9c 93       	st	X, r25

000021c8 <.Loc.499>:
	...

000021ca <.LBE214>:
			__ticks --;
    21ca:	ce 01       	movw	r24, r28
    21cc:	8d 55       	subi	r24, 0x5D	; 93
    21ce:	9f 4f       	sbci	r25, 0xFF	; 255
    21d0:	9e 01       	movw	r18, r28
    21d2:	2d 55       	subi	r18, 0x5D	; 93
    21d4:	3f 4f       	sbci	r19, 0xFF	; 255
    21d6:	f9 01       	movw	r30, r18
    21d8:	20 81       	ld	r18, Z
    21da:	31 81       	ldd	r19, Z+1	; 0x01
    21dc:	21 50       	subi	r18, 0x01	; 1
    21de:	31 09       	sbc	r19, r1
    21e0:	dc 01       	movw	r26, r24
    21e2:	11 96       	adiw	r26, 0x01	; 1
    21e4:	3c 93       	st	X, r19
    21e6:	2e 93       	st	-X, r18

000021e8 <.L164>:
		while(__ticks)
    21e8:	ce 01       	movw	r24, r28
    21ea:	8d 55       	subi	r24, 0x5D	; 93
    21ec:	9f 4f       	sbci	r25, 0xFF	; 255
    21ee:	fc 01       	movw	r30, r24
    21f0:	80 81       	ld	r24, Z
    21f2:	91 81       	ldd	r25, Z+1	; 0x01
    21f4:	00 97       	sbiw	r24, 0x00	; 0
    21f6:	91 f6       	brne	.-92     	; 0x219c <.L165>

000021f8 <.Loc.502>:
		return;
    21f8:	3a c0       	rjmp	.+116    	; 0x226e <.L166>

000021fa <.L343>:
		__ticks = (uint16_t)__tmp;
    21fa:	8e 01       	movw	r16, r28
    21fc:	0d 55       	subi	r16, 0x5D	; 93
    21fe:	1f 4f       	sbci	r17, 0xFF	; 255
    2200:	ce 01       	movw	r24, r28
    2202:	81 56       	subi	r24, 0x61	; 97
    2204:	9f 4f       	sbci	r25, 0xFF	; 255
    2206:	dc 01       	movw	r26, r24
    2208:	6d 91       	ld	r22, X+
    220a:	7d 91       	ld	r23, X+
    220c:	8d 91       	ld	r24, X+
    220e:	9c 91       	ld	r25, X
    2210:	0e 94 93 1f 	call	0x3f26	; 0x3f26 <__fixunssfsi>
    2214:	c5 5a       	subi	r28, 0xA5	; 165
    2216:	dd 4f       	sbci	r29, 0xFD	; 253
    2218:	68 83       	st	Y, r22
    221a:	79 83       	std	Y+1, r23	; 0x01
    221c:	8a 83       	std	Y+2, r24	; 0x02
    221e:	9b 83       	std	Y+3, r25	; 0x03
    2220:	cb 55       	subi	r28, 0x5B	; 91
    2222:	d2 40       	sbci	r29, 0x02	; 2
    2224:	c5 5a       	subi	r28, 0xA5	; 165
    2226:	dd 4f       	sbci	r29, 0xFD	; 253
    2228:	28 81       	ld	r18, Y
    222a:	39 81       	ldd	r19, Y+1	; 0x01
    222c:	cb 55       	subi	r28, 0x5B	; 91
    222e:	d2 40       	sbci	r29, 0x02	; 2
    2230:	f8 01       	movw	r30, r16
    2232:	31 83       	std	Z+1, r19	; 0x01
    2234:	20 83       	st	Z, r18

00002236 <.L161>:
    2236:	ce 01       	movw	r24, r28
    2238:	89 55       	subi	r24, 0x59	; 89
    223a:	9f 4f       	sbci	r25, 0xFF	; 255
    223c:	9e 01       	movw	r18, r28
    223e:	2d 55       	subi	r18, 0x5D	; 93
    2240:	3f 4f       	sbci	r19, 0xFF	; 255
    2242:	d9 01       	movw	r26, r18
    2244:	2d 91       	ld	r18, X+
    2246:	3c 91       	ld	r19, X
    2248:	fc 01       	movw	r30, r24
    224a:	31 83       	std	Z+1, r19	; 0x01
    224c:	20 83       	st	Z, r18

0000224e <.LBB216>:
    224e:	ce 01       	movw	r24, r28
    2250:	89 55       	subi	r24, 0x59	; 89
    2252:	9f 4f       	sbci	r25, 0xFF	; 255
    2254:	dc 01       	movw	r26, r24
    2256:	8d 91       	ld	r24, X+
    2258:	9c 91       	ld	r25, X
    225a:	11 97       	sbiw	r26, 0x01	; 1

0000225c <.L1^B25>:
    225c:	01 97       	sbiw	r24, 0x01	; 1
    225e:	f1 f7       	brne	.-4      	; 0x225c <.L1^B25>
    2260:	9e 01       	movw	r18, r28
    2262:	29 55       	subi	r18, 0x59	; 89
    2264:	3f 4f       	sbci	r19, 0xFF	; 255
    2266:	f9 01       	movw	r30, r18
    2268:	91 83       	std	Z+1, r25	; 0x01
    226a:	80 83       	st	Z, r24

0000226c <.Loc.505>:
	...

0000226e <.L166>:
                            {
                                _delay_ms(30);


                                if (n<9)
    226e:	80 91 12 02 	lds	r24, 0x0212	; 0x800212 <n>
    2272:	90 91 13 02 	lds	r25, 0x0213	; 0x800213 <n+0x1>

00002276 <.Loc.507>:
    2276:	88 30       	cpi	r24, 0x08	; 8
    2278:	91 05       	cpc	r25, r1
    227a:	09 f0       	breq	.+2      	; 0x227e <.Loc.508>

0000227c <L0^A>:
    227c:	54 f4       	brge	.+20     	; 0x2292 <.L167>

0000227e <.Loc.508>:
                                    {
                                    n+=1;
    227e:	80 91 12 02 	lds	r24, 0x0212	; 0x800212 <n>
    2282:	90 91 13 02 	lds	r25, 0x0213	; 0x800213 <n+0x1>
    2286:	01 96       	adiw	r24, 0x01	; 1
    2288:	90 93 13 02 	sts	0x0213, r25	; 0x800213 <n+0x1>
    228c:	80 93 12 02 	sts	0x0212, r24	; 0x800212 <n>
    2290:	04 c0       	rjmp	.+8      	; 0x229a <.L168>

00002292 <.L167>:
                                    }
                                else {  //Wraparound Action baybee!
                                        n=0;
    2292:	10 92 13 02 	sts	0x0213, r1	; 0x800213 <n+0x1>
    2296:	10 92 12 02 	sts	0x0212, r1	; 0x800212 <n>

0000229a <.L168>:
                                     }
                                knop3_ingedrukt = 1;
    229a:	81 e0       	ldi	r24, 0x01	; 1
    229c:	90 e0       	ldi	r25, 0x00	; 0
    229e:	90 93 1d 02 	sts	0x021D, r25	; 0x80021d <knop3_ingedrukt+0x1>
    22a2:	80 93 1c 02 	sts	0x021C, r24	; 0x80021c <knop3_ingedrukt>
    22a6:	18 c1       	rjmp	.+560    	; 0x24d8 <.L158>

000022a8 <.L157>:
                            }
                        }
                    else
                        {
                        if (knop3_ingedrukt != 0) // knop is zojuist losgelaten
    22a8:	80 91 1c 02 	lds	r24, 0x021C	; 0x80021c <knop3_ingedrukt>
    22ac:	90 91 1d 02 	lds	r25, 0x021D	; 0x80021d <knop3_ingedrukt+0x1>

000022b0 <.Loc.512>:
    22b0:	00 97       	sbiw	r24, 0x00	; 0
    22b2:	09 f4       	brne	.+2      	; 0x22b6 <L0^A+0x2>

000022b4 <L0^A>:
    22b4:	11 c1       	rjmp	.+546    	; 0x24d8 <.L158>
    22b6:	9e 01       	movw	r18, r28
    22b8:	27 55       	subi	r18, 0x57	; 87
    22ba:	3f 4f       	sbci	r19, 0xFF	; 255
    22bc:	80 e0       	ldi	r24, 0x00	; 0
    22be:	90 e0       	ldi	r25, 0x00	; 0
    22c0:	a0 ef       	ldi	r26, 0xF0	; 240
    22c2:	b1 e4       	ldi	r27, 0x41	; 65
    22c4:	f9 01       	movw	r30, r18
    22c6:	80 83       	st	Z, r24
    22c8:	91 83       	std	Z+1, r25	; 0x01
    22ca:	a2 83       	std	Z+2, r26	; 0x02
    22cc:	b3 83       	std	Z+3, r27	; 0x03

000022ce <.LBB218>:
	__tmp = ((F_CPU) / 4e3) * __ms;
    22ce:	8e 01       	movw	r16, r28
    22d0:	03 55       	subi	r16, 0x53	; 83
    22d2:	1f 4f       	sbci	r17, 0xFF	; 255
    22d4:	ce 01       	movw	r24, r28
    22d6:	87 55       	subi	r24, 0x57	; 87
    22d8:	9f 4f       	sbci	r25, 0xFF	; 255
    22da:	20 e0       	ldi	r18, 0x00	; 0
    22dc:	30 e0       	ldi	r19, 0x00	; 0
    22de:	4a e7       	ldi	r20, 0x7A	; 122
    22e0:	55 e4       	ldi	r21, 0x45	; 69
    22e2:	dc 01       	movw	r26, r24
    22e4:	6d 91       	ld	r22, X+
    22e6:	7d 91       	ld	r23, X+
    22e8:	8d 91       	ld	r24, X+
    22ea:	9c 91       	ld	r25, X
    22ec:	0e 94 14 20 	call	0x4028	; 0x4028 <__mulsf3>
    22f0:	c1 5a       	subi	r28, 0xA1	; 161
    22f2:	dd 4f       	sbci	r29, 0xFD	; 253
    22f4:	68 83       	st	Y, r22
    22f6:	79 83       	std	Y+1, r23	; 0x01
    22f8:	8a 83       	std	Y+2, r24	; 0x02
    22fa:	9b 83       	std	Y+3, r25	; 0x03
    22fc:	cf 55       	subi	r28, 0x5F	; 95
    22fe:	d2 40       	sbci	r29, 0x02	; 2
    2300:	c1 5a       	subi	r28, 0xA1	; 161
    2302:	dd 4f       	sbci	r29, 0xFD	; 253
    2304:	28 81       	ld	r18, Y
    2306:	39 81       	ldd	r19, Y+1	; 0x01
    2308:	4a 81       	ldd	r20, Y+2	; 0x02
    230a:	5b 81       	ldd	r21, Y+3	; 0x03
    230c:	cf 55       	subi	r28, 0x5F	; 95
    230e:	d2 40       	sbci	r29, 0x02	; 2
    2310:	d8 01       	movw	r26, r16
    2312:	2d 93       	st	X+, r18
    2314:	3d 93       	st	X+, r19
    2316:	4d 93       	st	X+, r20
    2318:	5c 93       	st	X, r21
    231a:	13 97       	sbiw	r26, 0x03	; 3

0000231c <.Loc.514>:
	if (__tmp < 1.0)
    231c:	ce 01       	movw	r24, r28
    231e:	83 55       	subi	r24, 0x53	; 83
    2320:	9f 4f       	sbci	r25, 0xFF	; 255
    2322:	20 e0       	ldi	r18, 0x00	; 0
    2324:	30 e0       	ldi	r19, 0x00	; 0
    2326:	40 e8       	ldi	r20, 0x80	; 128
    2328:	5f e3       	ldi	r21, 0x3F	; 63
    232a:	fc 01       	movw	r30, r24
    232c:	60 81       	ld	r22, Z
    232e:	71 81       	ldd	r23, Z+1	; 0x01
    2330:	82 81       	ldd	r24, Z+2	; 0x02
    2332:	93 81       	ldd	r25, Z+3	; 0x03
    2334:	0e 94 8e 1f 	call	0x3f1c	; 0x3f1c <__cmpsf2>
    2338:	88 23       	and	r24, r24
    233a:	54 f4       	brge	.+20     	; 0x2350 <.L344>

0000233c <.Loc.515>:
		__ticks = 1;
    233c:	ce 01       	movw	r24, r28
    233e:	8f 54       	subi	r24, 0x4F	; 79
    2340:	9f 4f       	sbci	r25, 0xFF	; 255
    2342:	21 e0       	ldi	r18, 0x01	; 1
    2344:	30 e0       	ldi	r19, 0x00	; 0
    2346:	dc 01       	movw	r26, r24
    2348:	11 96       	adiw	r26, 0x01	; 1
    234a:	3c 93       	st	X, r19
    234c:	2e 93       	st	-X, r18
    234e:	a5 c0       	rjmp	.+330    	; 0x249a <.L171>

00002350 <.L344>:
	else if (__tmp > 65535)
    2350:	ce 01       	movw	r24, r28
    2352:	83 55       	subi	r24, 0x53	; 83
    2354:	9f 4f       	sbci	r25, 0xFF	; 255
    2356:	20 e0       	ldi	r18, 0x00	; 0
    2358:	3f ef       	ldi	r19, 0xFF	; 255
    235a:	4f e7       	ldi	r20, 0x7F	; 127
    235c:	57 e4       	ldi	r21, 0x47	; 71
    235e:	fc 01       	movw	r30, r24
    2360:	60 81       	ld	r22, Z
    2362:	71 81       	ldd	r23, Z+1	; 0x01
    2364:	82 81       	ldd	r24, Z+2	; 0x02
    2366:	93 81       	ldd	r25, Z+3	; 0x03
    2368:	0e 94 0f 20 	call	0x401e	; 0x401e <__gesf2>
    236c:	88 23       	and	r24, r24
    236e:	09 f0       	breq	.+2      	; 0x2372 <L0^A>

00002370 <L0^A>:
    2370:	0c f4       	brge	.+2      	; 0x2374 <.Loc.517>

00002372 <L0^A>:
    2372:	75 c0       	rjmp	.+234    	; 0x245e <.L345>

00002374 <.Loc.517>:
		__ticks = (uint16_t) (__ms * 10.0);
    2374:	ce 01       	movw	r24, r28
    2376:	87 55       	subi	r24, 0x57	; 87
    2378:	9f 4f       	sbci	r25, 0xFF	; 255
    237a:	20 e0       	ldi	r18, 0x00	; 0
    237c:	30 e0       	ldi	r19, 0x00	; 0
    237e:	40 e2       	ldi	r20, 0x20	; 32
    2380:	51 e4       	ldi	r21, 0x41	; 65
    2382:	dc 01       	movw	r26, r24
    2384:	6d 91       	ld	r22, X+
    2386:	7d 91       	ld	r23, X+
    2388:	8d 91       	ld	r24, X+
    238a:	9c 91       	ld	r25, X
    238c:	0e 94 14 20 	call	0x4028	; 0x4028 <__mulsf3>
    2390:	cd 59       	subi	r28, 0x9D	; 157
    2392:	dd 4f       	sbci	r29, 0xFD	; 253
    2394:	68 83       	st	Y, r22
    2396:	79 83       	std	Y+1, r23	; 0x01
    2398:	8a 83       	std	Y+2, r24	; 0x02
    239a:	9b 83       	std	Y+3, r25	; 0x03
    239c:	c3 56       	subi	r28, 0x63	; 99
    239e:	d2 40       	sbci	r29, 0x02	; 2
    23a0:	cd 59       	subi	r28, 0x9D	; 157
    23a2:	dd 4f       	sbci	r29, 0xFD	; 253
    23a4:	28 81       	ld	r18, Y
    23a6:	39 81       	ldd	r19, Y+1	; 0x01
    23a8:	4a 81       	ldd	r20, Y+2	; 0x02
    23aa:	5b 81       	ldd	r21, Y+3	; 0x03
    23ac:	c3 56       	subi	r28, 0x63	; 99
    23ae:	d2 40       	sbci	r29, 0x02	; 2
    23b0:	cd 58       	subi	r28, 0x8D	; 141
    23b2:	de 4f       	sbci	r29, 0xFE	; 254
    23b4:	28 83       	st	Y, r18
    23b6:	39 83       	std	Y+1, r19	; 0x01
    23b8:	4a 83       	std	Y+2, r20	; 0x02
    23ba:	5b 83       	std	Y+3, r21	; 0x03
    23bc:	c3 57       	subi	r28, 0x73	; 115
    23be:	d1 40       	sbci	r29, 0x01	; 1

000023c0 <.Loc.518>:
    23c0:	8e 01       	movw	r16, r28
    23c2:	0f 54       	subi	r16, 0x4F	; 79
    23c4:	1f 4f       	sbci	r17, 0xFF	; 255
    23c6:	cd 58       	subi	r28, 0x8D	; 141
    23c8:	de 4f       	sbci	r29, 0xFE	; 254
    23ca:	68 81       	ld	r22, Y
    23cc:	79 81       	ldd	r23, Y+1	; 0x01
    23ce:	8a 81       	ldd	r24, Y+2	; 0x02
    23d0:	9b 81       	ldd	r25, Y+3	; 0x03
    23d2:	c3 57       	subi	r28, 0x73	; 115
    23d4:	d1 40       	sbci	r29, 0x01	; 1
    23d6:	0e 94 93 1f 	call	0x3f26	; 0x3f26 <__fixunssfsi>
    23da:	c9 59       	subi	r28, 0x99	; 153
    23dc:	dd 4f       	sbci	r29, 0xFD	; 253
    23de:	68 83       	st	Y, r22
    23e0:	79 83       	std	Y+1, r23	; 0x01
    23e2:	8a 83       	std	Y+2, r24	; 0x02
    23e4:	9b 83       	std	Y+3, r25	; 0x03
    23e6:	c7 56       	subi	r28, 0x67	; 103
    23e8:	d2 40       	sbci	r29, 0x02	; 2
    23ea:	c9 59       	subi	r28, 0x99	; 153
    23ec:	dd 4f       	sbci	r29, 0xFD	; 253
    23ee:	e8 81       	ld	r30, Y
    23f0:	f9 81       	ldd	r31, Y+1	; 0x01
    23f2:	c7 56       	subi	r28, 0x67	; 103
    23f4:	d2 40       	sbci	r29, 0x02	; 2
    23f6:	d8 01       	movw	r26, r16
    23f8:	11 96       	adiw	r26, 0x01	; 1
    23fa:	fc 93       	st	X, r31
    23fc:	ee 93       	st	-X, r30

000023fe <.Loc.519>:
		while(__ticks)
    23fe:	26 c0       	rjmp	.+76     	; 0x244c <.L174>

00002400 <.L175>:
    2400:	ce 01       	movw	r24, r28
    2402:	8d 54       	subi	r24, 0x4D	; 77
    2404:	9f 4f       	sbci	r25, 0xFF	; 255
    2406:	20 e9       	ldi	r18, 0x90	; 144
    2408:	31 e0       	ldi	r19, 0x01	; 1
    240a:	dc 01       	movw	r26, r24
    240c:	2d 93       	st	X+, r18
    240e:	3c 93       	st	X, r19

00002410 <.LBB220>:
    2410:	ce 01       	movw	r24, r28
    2412:	8d 54       	subi	r24, 0x4D	; 77
    2414:	9f 4f       	sbci	r25, 0xFF	; 255
    2416:	fc 01       	movw	r30, r24
    2418:	80 81       	ld	r24, Z
    241a:	91 81       	ldd	r25, Z+1	; 0x01

0000241c <.L1^B26>:
    241c:	01 97       	sbiw	r24, 0x01	; 1
    241e:	f1 f7       	brne	.-4      	; 0x241c <.L1^B26>
    2420:	9e 01       	movw	r18, r28
    2422:	2d 54       	subi	r18, 0x4D	; 77
    2424:	3f 4f       	sbci	r19, 0xFF	; 255
    2426:	d9 01       	movw	r26, r18
    2428:	8d 93       	st	X+, r24
    242a:	9c 93       	st	X, r25

0000242c <.Loc.521>:
	...

0000242e <.LBE220>:
			__ticks --;
    242e:	ce 01       	movw	r24, r28
    2430:	8f 54       	subi	r24, 0x4F	; 79
    2432:	9f 4f       	sbci	r25, 0xFF	; 255
    2434:	9e 01       	movw	r18, r28
    2436:	2f 54       	subi	r18, 0x4F	; 79
    2438:	3f 4f       	sbci	r19, 0xFF	; 255
    243a:	f9 01       	movw	r30, r18
    243c:	20 81       	ld	r18, Z
    243e:	31 81       	ldd	r19, Z+1	; 0x01
    2440:	21 50       	subi	r18, 0x01	; 1
    2442:	31 09       	sbc	r19, r1
    2444:	dc 01       	movw	r26, r24
    2446:	11 96       	adiw	r26, 0x01	; 1
    2448:	3c 93       	st	X, r19
    244a:	2e 93       	st	-X, r18

0000244c <.L174>:
		while(__ticks)
    244c:	ce 01       	movw	r24, r28
    244e:	8f 54       	subi	r24, 0x4F	; 79
    2450:	9f 4f       	sbci	r25, 0xFF	; 255
    2452:	fc 01       	movw	r30, r24
    2454:	80 81       	ld	r24, Z
    2456:	91 81       	ldd	r25, Z+1	; 0x01
    2458:	00 97       	sbiw	r24, 0x00	; 0
    245a:	91 f6       	brne	.-92     	; 0x2400 <.L175>

0000245c <.Loc.524>:
		return;
    245c:	39 c0       	rjmp	.+114    	; 0x24d0 <.L176>

0000245e <.L345>:
		__ticks = (uint16_t)__tmp;
    245e:	8e 01       	movw	r16, r28
    2460:	0f 54       	subi	r16, 0x4F	; 79
    2462:	1f 4f       	sbci	r17, 0xFF	; 255
    2464:	ce 01       	movw	r24, r28
    2466:	83 55       	subi	r24, 0x53	; 83
    2468:	9f 4f       	sbci	r25, 0xFF	; 255
    246a:	dc 01       	movw	r26, r24
    246c:	6d 91       	ld	r22, X+
    246e:	7d 91       	ld	r23, X+
    2470:	8d 91       	ld	r24, X+
    2472:	9c 91       	ld	r25, X
    2474:	0e 94 93 1f 	call	0x3f26	; 0x3f26 <__fixunssfsi>
    2478:	c5 59       	subi	r28, 0x95	; 149
    247a:	dd 4f       	sbci	r29, 0xFD	; 253
    247c:	68 83       	st	Y, r22
    247e:	79 83       	std	Y+1, r23	; 0x01
    2480:	8a 83       	std	Y+2, r24	; 0x02
    2482:	9b 83       	std	Y+3, r25	; 0x03
    2484:	cb 56       	subi	r28, 0x6B	; 107
    2486:	d2 40       	sbci	r29, 0x02	; 2
    2488:	c5 59       	subi	r28, 0x95	; 149
    248a:	dd 4f       	sbci	r29, 0xFD	; 253
    248c:	28 81       	ld	r18, Y
    248e:	39 81       	ldd	r19, Y+1	; 0x01
    2490:	cb 56       	subi	r28, 0x6B	; 107
    2492:	d2 40       	sbci	r29, 0x02	; 2
    2494:	f8 01       	movw	r30, r16
    2496:	31 83       	std	Z+1, r19	; 0x01
    2498:	20 83       	st	Z, r18

0000249a <.L171>:
    249a:	ce 01       	movw	r24, r28
    249c:	8b 54       	subi	r24, 0x4B	; 75
    249e:	9f 4f       	sbci	r25, 0xFF	; 255
    24a0:	9e 01       	movw	r18, r28
    24a2:	2f 54       	subi	r18, 0x4F	; 79
    24a4:	3f 4f       	sbci	r19, 0xFF	; 255
    24a6:	d9 01       	movw	r26, r18
    24a8:	2d 91       	ld	r18, X+
    24aa:	3c 91       	ld	r19, X
    24ac:	fc 01       	movw	r30, r24
    24ae:	31 83       	std	Z+1, r19	; 0x01
    24b0:	20 83       	st	Z, r18

000024b2 <.LBB222>:
    24b2:	ce 01       	movw	r24, r28
    24b4:	8b 54       	subi	r24, 0x4B	; 75
    24b6:	9f 4f       	sbci	r25, 0xFF	; 255
    24b8:	dc 01       	movw	r26, r24
    24ba:	8d 91       	ld	r24, X+
    24bc:	9c 91       	ld	r25, X

000024be <.L1^B27>:
    24be:	01 97       	sbiw	r24, 0x01	; 1
    24c0:	f1 f7       	brne	.-4      	; 0x24be <.L1^B27>
    24c2:	9e 01       	movw	r18, r28
    24c4:	2b 54       	subi	r18, 0x4B	; 75
    24c6:	3f 4f       	sbci	r19, 0xFF	; 255
    24c8:	f9 01       	movw	r30, r18
    24ca:	91 83       	std	Z+1, r25	; 0x01
    24cc:	80 83       	st	Z, r24

000024ce <.Loc.527>:
	...

000024d0 <.L176>:
                            {
                                _delay_ms(30);
                                knop3_ingedrukt = 0;
    24d0:	10 92 1d 02 	sts	0x021D, r1	; 0x80021d <knop3_ingedrukt+0x1>
    24d4:	10 92 1c 02 	sts	0x021C, r1	; 0x80021c <knop3_ingedrukt>

000024d8 <.L158>:
                            }
                        }


                     if ((PINL & (1 << PL4)) == 0)  //switcher
    24d8:	89 e0       	ldi	r24, 0x09	; 9
    24da:	91 e0       	ldi	r25, 0x01	; 1
    24dc:	dc 01       	movw	r26, r24
    24de:	8c 91       	ld	r24, X

000024e0 <.Loc.530>:
    24e0:	88 2f       	mov	r24, r24
    24e2:	90 e0       	ldi	r25, 0x00	; 0
    24e4:	80 71       	andi	r24, 0x10	; 16
    24e6:	99 27       	eor	r25, r25

000024e8 <.Loc.531>:
    24e8:	00 97       	sbiw	r24, 0x00	; 0
    24ea:	09 f0       	breq	.+2      	; 0x24ee <.Loc.532>

000024ec <L0^A>:
    24ec:	32 c1       	rjmp	.+612    	; 0x2752 <.L177>

000024ee <.Loc.532>:
                        {
                            if (knop2_ingedrukt == 0) // knop is niet al eerder ingedrukt
    24ee:	80 91 1a 02 	lds	r24, 0x021A	; 0x80021a <knop2_ingedrukt>
    24f2:	90 91 1b 02 	lds	r25, 0x021B	; 0x80021b <knop2_ingedrukt+0x1>

000024f6 <.Loc.533>:
    24f6:	00 97       	sbiw	r24, 0x00	; 0
    24f8:	09 f0       	breq	.+2      	; 0x24fc <L0^A+0x2>

000024fa <L0^A>:
    24fa:	43 c2       	rjmp	.+1158   	; 0x2982 <.L178>
    24fc:	9e 01       	movw	r18, r28
    24fe:	29 54       	subi	r18, 0x49	; 73
    2500:	3f 4f       	sbci	r19, 0xFF	; 255
    2502:	80 e0       	ldi	r24, 0x00	; 0
    2504:	90 e0       	ldi	r25, 0x00	; 0
    2506:	a0 ef       	ldi	r26, 0xF0	; 240
    2508:	b1 e4       	ldi	r27, 0x41	; 65
    250a:	f9 01       	movw	r30, r18
    250c:	80 83       	st	Z, r24
    250e:	91 83       	std	Z+1, r25	; 0x01
    2510:	a2 83       	std	Z+2, r26	; 0x02
    2512:	b3 83       	std	Z+3, r27	; 0x03

00002514 <.LBB224>:
	__tmp = ((F_CPU) / 4e3) * __ms;
    2514:	8e 01       	movw	r16, r28
    2516:	05 54       	subi	r16, 0x45	; 69
    2518:	1f 4f       	sbci	r17, 0xFF	; 255
    251a:	ce 01       	movw	r24, r28
    251c:	89 54       	subi	r24, 0x49	; 73
    251e:	9f 4f       	sbci	r25, 0xFF	; 255
    2520:	20 e0       	ldi	r18, 0x00	; 0
    2522:	30 e0       	ldi	r19, 0x00	; 0
    2524:	4a e7       	ldi	r20, 0x7A	; 122
    2526:	55 e4       	ldi	r21, 0x45	; 69
    2528:	dc 01       	movw	r26, r24
    252a:	6d 91       	ld	r22, X+
    252c:	7d 91       	ld	r23, X+
    252e:	8d 91       	ld	r24, X+
    2530:	9c 91       	ld	r25, X
    2532:	0e 94 14 20 	call	0x4028	; 0x4028 <__mulsf3>
    2536:	c1 59       	subi	r28, 0x91	; 145
    2538:	dd 4f       	sbci	r29, 0xFD	; 253
    253a:	68 83       	st	Y, r22
    253c:	79 83       	std	Y+1, r23	; 0x01
    253e:	8a 83       	std	Y+2, r24	; 0x02
    2540:	9b 83       	std	Y+3, r25	; 0x03
    2542:	cf 56       	subi	r28, 0x6F	; 111
    2544:	d2 40       	sbci	r29, 0x02	; 2
    2546:	c1 59       	subi	r28, 0x91	; 145
    2548:	dd 4f       	sbci	r29, 0xFD	; 253
    254a:	28 81       	ld	r18, Y
    254c:	39 81       	ldd	r19, Y+1	; 0x01
    254e:	4a 81       	ldd	r20, Y+2	; 0x02
    2550:	5b 81       	ldd	r21, Y+3	; 0x03
    2552:	cf 56       	subi	r28, 0x6F	; 111
    2554:	d2 40       	sbci	r29, 0x02	; 2
    2556:	d8 01       	movw	r26, r16
    2558:	2d 93       	st	X+, r18
    255a:	3d 93       	st	X+, r19
    255c:	4d 93       	st	X+, r20
    255e:	5c 93       	st	X, r21
    2560:	13 97       	sbiw	r26, 0x03	; 3

00002562 <.Loc.535>:
	if (__tmp < 1.0)
    2562:	ce 01       	movw	r24, r28
    2564:	85 54       	subi	r24, 0x45	; 69
    2566:	9f 4f       	sbci	r25, 0xFF	; 255
    2568:	20 e0       	ldi	r18, 0x00	; 0
    256a:	30 e0       	ldi	r19, 0x00	; 0
    256c:	40 e8       	ldi	r20, 0x80	; 128
    256e:	5f e3       	ldi	r21, 0x3F	; 63
    2570:	fc 01       	movw	r30, r24
    2572:	60 81       	ld	r22, Z
    2574:	71 81       	ldd	r23, Z+1	; 0x01
    2576:	82 81       	ldd	r24, Z+2	; 0x02
    2578:	93 81       	ldd	r25, Z+3	; 0x03
    257a:	0e 94 8e 1f 	call	0x3f1c	; 0x3f1c <__cmpsf2>
    257e:	88 23       	and	r24, r24
    2580:	54 f4       	brge	.+20     	; 0x2596 <.L346>

00002582 <.Loc.536>:
		__ticks = 1;
    2582:	ce 01       	movw	r24, r28
    2584:	81 54       	subi	r24, 0x41	; 65
    2586:	9f 4f       	sbci	r25, 0xFF	; 255
    2588:	21 e0       	ldi	r18, 0x01	; 1
    258a:	30 e0       	ldi	r19, 0x00	; 0
    258c:	dc 01       	movw	r26, r24
    258e:	11 96       	adiw	r26, 0x01	; 1
    2590:	3c 93       	st	X, r19
    2592:	2e 93       	st	-X, r18
    2594:	a5 c0       	rjmp	.+330    	; 0x26e0 <.L181>

00002596 <.L346>:
	else if (__tmp > 65535)
    2596:	ce 01       	movw	r24, r28
    2598:	85 54       	subi	r24, 0x45	; 69
    259a:	9f 4f       	sbci	r25, 0xFF	; 255
    259c:	20 e0       	ldi	r18, 0x00	; 0
    259e:	3f ef       	ldi	r19, 0xFF	; 255
    25a0:	4f e7       	ldi	r20, 0x7F	; 127
    25a2:	57 e4       	ldi	r21, 0x47	; 71
    25a4:	fc 01       	movw	r30, r24
    25a6:	60 81       	ld	r22, Z
    25a8:	71 81       	ldd	r23, Z+1	; 0x01
    25aa:	82 81       	ldd	r24, Z+2	; 0x02
    25ac:	93 81       	ldd	r25, Z+3	; 0x03
    25ae:	0e 94 0f 20 	call	0x401e	; 0x401e <__gesf2>
    25b2:	88 23       	and	r24, r24
    25b4:	09 f0       	breq	.+2      	; 0x25b8 <L0^A>

000025b6 <L0^A>:
    25b6:	0c f4       	brge	.+2      	; 0x25ba <.Loc.538>

000025b8 <L0^A>:
    25b8:	75 c0       	rjmp	.+234    	; 0x26a4 <.L347>

000025ba <.Loc.538>:
		__ticks = (uint16_t) (__ms * 10.0);
    25ba:	ce 01       	movw	r24, r28
    25bc:	89 54       	subi	r24, 0x49	; 73
    25be:	9f 4f       	sbci	r25, 0xFF	; 255
    25c0:	20 e0       	ldi	r18, 0x00	; 0
    25c2:	30 e0       	ldi	r19, 0x00	; 0
    25c4:	40 e2       	ldi	r20, 0x20	; 32
    25c6:	51 e4       	ldi	r21, 0x41	; 65
    25c8:	dc 01       	movw	r26, r24
    25ca:	6d 91       	ld	r22, X+
    25cc:	7d 91       	ld	r23, X+
    25ce:	8d 91       	ld	r24, X+
    25d0:	9c 91       	ld	r25, X
    25d2:	0e 94 14 20 	call	0x4028	; 0x4028 <__mulsf3>
    25d6:	cd 58       	subi	r28, 0x8D	; 141
    25d8:	dd 4f       	sbci	r29, 0xFD	; 253
    25da:	68 83       	st	Y, r22
    25dc:	79 83       	std	Y+1, r23	; 0x01
    25de:	8a 83       	std	Y+2, r24	; 0x02
    25e0:	9b 83       	std	Y+3, r25	; 0x03
    25e2:	c3 57       	subi	r28, 0x73	; 115
    25e4:	d2 40       	sbci	r29, 0x02	; 2
    25e6:	cd 58       	subi	r28, 0x8D	; 141
    25e8:	dd 4f       	sbci	r29, 0xFD	; 253
    25ea:	28 81       	ld	r18, Y
    25ec:	39 81       	ldd	r19, Y+1	; 0x01
    25ee:	4a 81       	ldd	r20, Y+2	; 0x02
    25f0:	5b 81       	ldd	r21, Y+3	; 0x03
    25f2:	c3 57       	subi	r28, 0x73	; 115
    25f4:	d2 40       	sbci	r29, 0x02	; 2
    25f6:	c9 58       	subi	r28, 0x89	; 137
    25f8:	de 4f       	sbci	r29, 0xFE	; 254
    25fa:	28 83       	st	Y, r18
    25fc:	39 83       	std	Y+1, r19	; 0x01
    25fe:	4a 83       	std	Y+2, r20	; 0x02
    2600:	5b 83       	std	Y+3, r21	; 0x03
    2602:	c7 57       	subi	r28, 0x77	; 119
    2604:	d1 40       	sbci	r29, 0x01	; 1

00002606 <.Loc.539>:
    2606:	8e 01       	movw	r16, r28
    2608:	01 54       	subi	r16, 0x41	; 65
    260a:	1f 4f       	sbci	r17, 0xFF	; 255
    260c:	c9 58       	subi	r28, 0x89	; 137
    260e:	de 4f       	sbci	r29, 0xFE	; 254
    2610:	68 81       	ld	r22, Y
    2612:	79 81       	ldd	r23, Y+1	; 0x01
    2614:	8a 81       	ldd	r24, Y+2	; 0x02
    2616:	9b 81       	ldd	r25, Y+3	; 0x03
    2618:	c7 57       	subi	r28, 0x77	; 119
    261a:	d1 40       	sbci	r29, 0x01	; 1
    261c:	0e 94 93 1f 	call	0x3f26	; 0x3f26 <__fixunssfsi>
    2620:	c9 58       	subi	r28, 0x89	; 137
    2622:	dd 4f       	sbci	r29, 0xFD	; 253
    2624:	68 83       	st	Y, r22
    2626:	79 83       	std	Y+1, r23	; 0x01
    2628:	8a 83       	std	Y+2, r24	; 0x02
    262a:	9b 83       	std	Y+3, r25	; 0x03
    262c:	c7 57       	subi	r28, 0x77	; 119
    262e:	d2 40       	sbci	r29, 0x02	; 2
    2630:	c9 58       	subi	r28, 0x89	; 137
    2632:	dd 4f       	sbci	r29, 0xFD	; 253
    2634:	e8 81       	ld	r30, Y
    2636:	f9 81       	ldd	r31, Y+1	; 0x01
    2638:	c7 57       	subi	r28, 0x77	; 119
    263a:	d2 40       	sbci	r29, 0x02	; 2
    263c:	d8 01       	movw	r26, r16
    263e:	11 96       	adiw	r26, 0x01	; 1
    2640:	fc 93       	st	X, r31
    2642:	ee 93       	st	-X, r30

00002644 <.Loc.540>:
		while(__ticks)
    2644:	26 c0       	rjmp	.+76     	; 0x2692 <.L184>

00002646 <.L185>:
    2646:	ce 01       	movw	r24, r28
    2648:	8f 53       	subi	r24, 0x3F	; 63
    264a:	9f 4f       	sbci	r25, 0xFF	; 255
    264c:	20 e9       	ldi	r18, 0x90	; 144
    264e:	31 e0       	ldi	r19, 0x01	; 1
    2650:	dc 01       	movw	r26, r24
    2652:	2d 93       	st	X+, r18
    2654:	3c 93       	st	X, r19

00002656 <.LBB226>:
    2656:	ce 01       	movw	r24, r28
    2658:	8f 53       	subi	r24, 0x3F	; 63
    265a:	9f 4f       	sbci	r25, 0xFF	; 255
    265c:	fc 01       	movw	r30, r24
    265e:	80 81       	ld	r24, Z
    2660:	91 81       	ldd	r25, Z+1	; 0x01

00002662 <.L1^B28>:
    2662:	01 97       	sbiw	r24, 0x01	; 1
    2664:	f1 f7       	brne	.-4      	; 0x2662 <.L1^B28>
    2666:	9e 01       	movw	r18, r28
    2668:	2f 53       	subi	r18, 0x3F	; 63
    266a:	3f 4f       	sbci	r19, 0xFF	; 255
    266c:	d9 01       	movw	r26, r18
    266e:	8d 93       	st	X+, r24
    2670:	9c 93       	st	X, r25

00002672 <.Loc.542>:
	...

00002674 <.LBE226>:
			__ticks --;
    2674:	ce 01       	movw	r24, r28
    2676:	81 54       	subi	r24, 0x41	; 65
    2678:	9f 4f       	sbci	r25, 0xFF	; 255
    267a:	9e 01       	movw	r18, r28
    267c:	21 54       	subi	r18, 0x41	; 65
    267e:	3f 4f       	sbci	r19, 0xFF	; 255
    2680:	f9 01       	movw	r30, r18
    2682:	20 81       	ld	r18, Z
    2684:	31 81       	ldd	r19, Z+1	; 0x01
    2686:	21 50       	subi	r18, 0x01	; 1
    2688:	31 09       	sbc	r19, r1
    268a:	dc 01       	movw	r26, r24
    268c:	11 96       	adiw	r26, 0x01	; 1
    268e:	3c 93       	st	X, r19
    2690:	2e 93       	st	-X, r18

00002692 <.L184>:
		while(__ticks)
    2692:	ce 01       	movw	r24, r28
    2694:	81 54       	subi	r24, 0x41	; 65
    2696:	9f 4f       	sbci	r25, 0xFF	; 255
    2698:	fc 01       	movw	r30, r24
    269a:	80 81       	ld	r24, Z
    269c:	91 81       	ldd	r25, Z+1	; 0x01
    269e:	00 97       	sbiw	r24, 0x00	; 0
    26a0:	91 f6       	brne	.-92     	; 0x2646 <.L185>

000026a2 <.Loc.545>:
		return;
    26a2:	3a c0       	rjmp	.+116    	; 0x2718 <.L186>

000026a4 <.L347>:
		__ticks = (uint16_t)__tmp;
    26a4:	8e 01       	movw	r16, r28
    26a6:	01 54       	subi	r16, 0x41	; 65
    26a8:	1f 4f       	sbci	r17, 0xFF	; 255
    26aa:	ce 01       	movw	r24, r28
    26ac:	85 54       	subi	r24, 0x45	; 69
    26ae:	9f 4f       	sbci	r25, 0xFF	; 255
    26b0:	dc 01       	movw	r26, r24
    26b2:	6d 91       	ld	r22, X+
    26b4:	7d 91       	ld	r23, X+
    26b6:	8d 91       	ld	r24, X+
    26b8:	9c 91       	ld	r25, X
    26ba:	0e 94 93 1f 	call	0x3f26	; 0x3f26 <__fixunssfsi>
    26be:	c5 58       	subi	r28, 0x85	; 133
    26c0:	dd 4f       	sbci	r29, 0xFD	; 253
    26c2:	68 83       	st	Y, r22
    26c4:	79 83       	std	Y+1, r23	; 0x01
    26c6:	8a 83       	std	Y+2, r24	; 0x02
    26c8:	9b 83       	std	Y+3, r25	; 0x03
    26ca:	cb 57       	subi	r28, 0x7B	; 123
    26cc:	d2 40       	sbci	r29, 0x02	; 2
    26ce:	c5 58       	subi	r28, 0x85	; 133
    26d0:	dd 4f       	sbci	r29, 0xFD	; 253
    26d2:	28 81       	ld	r18, Y
    26d4:	39 81       	ldd	r19, Y+1	; 0x01
    26d6:	cb 57       	subi	r28, 0x7B	; 123
    26d8:	d2 40       	sbci	r29, 0x02	; 2
    26da:	f8 01       	movw	r30, r16
    26dc:	31 83       	std	Z+1, r19	; 0x01
    26de:	20 83       	st	Z, r18

000026e0 <.L181>:
    26e0:	ce 01       	movw	r24, r28
    26e2:	8d 53       	subi	r24, 0x3D	; 61
    26e4:	9f 4f       	sbci	r25, 0xFF	; 255
    26e6:	9e 01       	movw	r18, r28
    26e8:	21 54       	subi	r18, 0x41	; 65
    26ea:	3f 4f       	sbci	r19, 0xFF	; 255
    26ec:	d9 01       	movw	r26, r18
    26ee:	2d 91       	ld	r18, X+
    26f0:	3c 91       	ld	r19, X
    26f2:	fc 01       	movw	r30, r24
    26f4:	31 83       	std	Z+1, r19	; 0x01
    26f6:	20 83       	st	Z, r18

000026f8 <.LBB228>:
    26f8:	ce 01       	movw	r24, r28
    26fa:	8d 53       	subi	r24, 0x3D	; 61
    26fc:	9f 4f       	sbci	r25, 0xFF	; 255
    26fe:	dc 01       	movw	r26, r24
    2700:	8d 91       	ld	r24, X+
    2702:	9c 91       	ld	r25, X
    2704:	11 97       	sbiw	r26, 0x01	; 1

00002706 <.L1^B29>:
    2706:	01 97       	sbiw	r24, 0x01	; 1
    2708:	f1 f7       	brne	.-4      	; 0x2706 <.L1^B29>
    270a:	9e 01       	movw	r18, r28
    270c:	2d 53       	subi	r18, 0x3D	; 61
    270e:	3f 4f       	sbci	r19, 0xFF	; 255
    2710:	f9 01       	movw	r30, r18
    2712:	91 83       	std	Z+1, r25	; 0x01
    2714:	80 83       	st	Z, r24

00002716 <.Loc.548>:
	...

00002718 <.L186>:
                            {
                                _delay_ms(30);
                                StepCounterY=n;
    2718:	80 91 12 02 	lds	r24, 0x0212	; 0x800212 <n>
    271c:	90 91 13 02 	lds	r25, 0x0213	; 0x800213 <n+0x1>
    2720:	90 93 03 02 	sts	0x0203, r25	; 0x800203 <StepCounterY+0x1>
    2724:	80 93 02 02 	sts	0x0202, r24	; 0x800202 <StepCounterY>

00002728 <.Loc.550>:
                                n=StepCounterX; //New axis starts from 0.
    2728:	80 91 04 02 	lds	r24, 0x0204	; 0x800204 <StepCounterX>
    272c:	90 91 05 02 	lds	r25, 0x0205	; 0x800205 <StepCounterX+0x1>
    2730:	90 93 13 02 	sts	0x0213, r25	; 0x800213 <n+0x1>
    2734:	80 93 12 02 	sts	0x0212, r24	; 0x800212 <n>

00002738 <.Loc.551>:
                                MenuLayer = 20;
    2738:	84 e1       	ldi	r24, 0x14	; 20
    273a:	90 e0       	ldi	r25, 0x00	; 0
    273c:	90 93 01 02 	sts	0x0201, r25	; 0x800201 <MenuLayer+0x1>
    2740:	80 93 00 02 	sts	0x0200, r24	; 0x800200 <MenuLayer>

00002744 <.Loc.552>:
                                knop2_ingedrukt = 1;
    2744:	81 e0       	ldi	r24, 0x01	; 1
    2746:	90 e0       	ldi	r25, 0x00	; 0
    2748:	90 93 1b 02 	sts	0x021B, r25	; 0x80021b <knop2_ingedrukt+0x1>
    274c:	80 93 1a 02 	sts	0x021A, r24	; 0x80021a <knop2_ingedrukt>
    2750:	18 c1       	rjmp	.+560    	; 0x2982 <.L178>

00002752 <.L177>:

                            }
                        }
                    else
                        {
                        if (knop2_ingedrukt != 0) // knop is zojuist losgelaten
    2752:	80 91 1a 02 	lds	r24, 0x021A	; 0x80021a <knop2_ingedrukt>
    2756:	90 91 1b 02 	lds	r25, 0x021B	; 0x80021b <knop2_ingedrukt+0x1>

0000275a <.Loc.554>:
    275a:	00 97       	sbiw	r24, 0x00	; 0
    275c:	09 f4       	brne	.+2      	; 0x2760 <L0^A+0x2>

0000275e <L0^A>:
    275e:	11 c1       	rjmp	.+546    	; 0x2982 <.L178>
    2760:	9e 01       	movw	r18, r28
    2762:	2b 53       	subi	r18, 0x3B	; 59
    2764:	3f 4f       	sbci	r19, 0xFF	; 255
    2766:	80 e0       	ldi	r24, 0x00	; 0
    2768:	90 e0       	ldi	r25, 0x00	; 0
    276a:	a0 ef       	ldi	r26, 0xF0	; 240
    276c:	b1 e4       	ldi	r27, 0x41	; 65
    276e:	f9 01       	movw	r30, r18
    2770:	80 83       	st	Z, r24
    2772:	91 83       	std	Z+1, r25	; 0x01
    2774:	a2 83       	std	Z+2, r26	; 0x02
    2776:	b3 83       	std	Z+3, r27	; 0x03

00002778 <.LBB230>:
	__tmp = ((F_CPU) / 4e3) * __ms;
    2778:	8e 01       	movw	r16, r28
    277a:	07 53       	subi	r16, 0x37	; 55
    277c:	1f 4f       	sbci	r17, 0xFF	; 255
    277e:	ce 01       	movw	r24, r28
    2780:	8b 53       	subi	r24, 0x3B	; 59
    2782:	9f 4f       	sbci	r25, 0xFF	; 255
    2784:	20 e0       	ldi	r18, 0x00	; 0
    2786:	30 e0       	ldi	r19, 0x00	; 0
    2788:	4a e7       	ldi	r20, 0x7A	; 122
    278a:	55 e4       	ldi	r21, 0x45	; 69
    278c:	dc 01       	movw	r26, r24
    278e:	6d 91       	ld	r22, X+
    2790:	7d 91       	ld	r23, X+
    2792:	8d 91       	ld	r24, X+
    2794:	9c 91       	ld	r25, X
    2796:	0e 94 14 20 	call	0x4028	; 0x4028 <__mulsf3>
    279a:	c1 58       	subi	r28, 0x81	; 129
    279c:	dd 4f       	sbci	r29, 0xFD	; 253
    279e:	68 83       	st	Y, r22
    27a0:	79 83       	std	Y+1, r23	; 0x01
    27a2:	8a 83       	std	Y+2, r24	; 0x02
    27a4:	9b 83       	std	Y+3, r25	; 0x03
    27a6:	cf 57       	subi	r28, 0x7F	; 127
    27a8:	d2 40       	sbci	r29, 0x02	; 2
    27aa:	c1 58       	subi	r28, 0x81	; 129
    27ac:	dd 4f       	sbci	r29, 0xFD	; 253
    27ae:	28 81       	ld	r18, Y
    27b0:	39 81       	ldd	r19, Y+1	; 0x01
    27b2:	4a 81       	ldd	r20, Y+2	; 0x02
    27b4:	5b 81       	ldd	r21, Y+3	; 0x03
    27b6:	cf 57       	subi	r28, 0x7F	; 127
    27b8:	d2 40       	sbci	r29, 0x02	; 2
    27ba:	d8 01       	movw	r26, r16
    27bc:	2d 93       	st	X+, r18
    27be:	3d 93       	st	X+, r19
    27c0:	4d 93       	st	X+, r20
    27c2:	5c 93       	st	X, r21
    27c4:	13 97       	sbiw	r26, 0x03	; 3

000027c6 <.Loc.556>:
	if (__tmp < 1.0)
    27c6:	ce 01       	movw	r24, r28
    27c8:	87 53       	subi	r24, 0x37	; 55
    27ca:	9f 4f       	sbci	r25, 0xFF	; 255
    27cc:	20 e0       	ldi	r18, 0x00	; 0
    27ce:	30 e0       	ldi	r19, 0x00	; 0
    27d0:	40 e8       	ldi	r20, 0x80	; 128
    27d2:	5f e3       	ldi	r21, 0x3F	; 63
    27d4:	fc 01       	movw	r30, r24
    27d6:	60 81       	ld	r22, Z
    27d8:	71 81       	ldd	r23, Z+1	; 0x01
    27da:	82 81       	ldd	r24, Z+2	; 0x02
    27dc:	93 81       	ldd	r25, Z+3	; 0x03
    27de:	0e 94 8e 1f 	call	0x3f1c	; 0x3f1c <__cmpsf2>
    27e2:	88 23       	and	r24, r24
    27e4:	54 f4       	brge	.+20     	; 0x27fa <.L348>

000027e6 <.Loc.557>:
		__ticks = 1;
    27e6:	ce 01       	movw	r24, r28
    27e8:	83 53       	subi	r24, 0x33	; 51
    27ea:	9f 4f       	sbci	r25, 0xFF	; 255
    27ec:	21 e0       	ldi	r18, 0x01	; 1
    27ee:	30 e0       	ldi	r19, 0x00	; 0
    27f0:	dc 01       	movw	r26, r24
    27f2:	11 96       	adiw	r26, 0x01	; 1
    27f4:	3c 93       	st	X, r19
    27f6:	2e 93       	st	-X, r18
    27f8:	a5 c0       	rjmp	.+330    	; 0x2944 <.L189>

000027fa <.L348>:
	else if (__tmp > 65535)
    27fa:	ce 01       	movw	r24, r28
    27fc:	87 53       	subi	r24, 0x37	; 55
    27fe:	9f 4f       	sbci	r25, 0xFF	; 255
    2800:	20 e0       	ldi	r18, 0x00	; 0
    2802:	3f ef       	ldi	r19, 0xFF	; 255
    2804:	4f e7       	ldi	r20, 0x7F	; 127
    2806:	57 e4       	ldi	r21, 0x47	; 71
    2808:	fc 01       	movw	r30, r24
    280a:	60 81       	ld	r22, Z
    280c:	71 81       	ldd	r23, Z+1	; 0x01
    280e:	82 81       	ldd	r24, Z+2	; 0x02
    2810:	93 81       	ldd	r25, Z+3	; 0x03
    2812:	0e 94 0f 20 	call	0x401e	; 0x401e <__gesf2>
    2816:	88 23       	and	r24, r24
    2818:	09 f0       	breq	.+2      	; 0x281c <L0^A>

0000281a <L0^A>:
    281a:	0c f4       	brge	.+2      	; 0x281e <.Loc.559>

0000281c <L0^A>:
    281c:	75 c0       	rjmp	.+234    	; 0x2908 <.L349>

0000281e <.Loc.559>:
		__ticks = (uint16_t) (__ms * 10.0);
    281e:	ce 01       	movw	r24, r28
    2820:	8b 53       	subi	r24, 0x3B	; 59
    2822:	9f 4f       	sbci	r25, 0xFF	; 255
    2824:	20 e0       	ldi	r18, 0x00	; 0
    2826:	30 e0       	ldi	r19, 0x00	; 0
    2828:	40 e2       	ldi	r20, 0x20	; 32
    282a:	51 e4       	ldi	r21, 0x41	; 65
    282c:	dc 01       	movw	r26, r24
    282e:	6d 91       	ld	r22, X+
    2830:	7d 91       	ld	r23, X+
    2832:	8d 91       	ld	r24, X+
    2834:	9c 91       	ld	r25, X
    2836:	0e 94 14 20 	call	0x4028	; 0x4028 <__mulsf3>
    283a:	cd 57       	subi	r28, 0x7D	; 125
    283c:	dd 4f       	sbci	r29, 0xFD	; 253
    283e:	68 83       	st	Y, r22
    2840:	79 83       	std	Y+1, r23	; 0x01
    2842:	8a 83       	std	Y+2, r24	; 0x02
    2844:	9b 83       	std	Y+3, r25	; 0x03
    2846:	c3 58       	subi	r28, 0x83	; 131
    2848:	d2 40       	sbci	r29, 0x02	; 2
    284a:	cd 57       	subi	r28, 0x7D	; 125
    284c:	dd 4f       	sbci	r29, 0xFD	; 253
    284e:	28 81       	ld	r18, Y
    2850:	39 81       	ldd	r19, Y+1	; 0x01
    2852:	4a 81       	ldd	r20, Y+2	; 0x02
    2854:	5b 81       	ldd	r21, Y+3	; 0x03
    2856:	c3 58       	subi	r28, 0x83	; 131
    2858:	d2 40       	sbci	r29, 0x02	; 2
    285a:	c5 58       	subi	r28, 0x85	; 133
    285c:	de 4f       	sbci	r29, 0xFE	; 254
    285e:	28 83       	st	Y, r18
    2860:	39 83       	std	Y+1, r19	; 0x01
    2862:	4a 83       	std	Y+2, r20	; 0x02
    2864:	5b 83       	std	Y+3, r21	; 0x03
    2866:	cb 57       	subi	r28, 0x7B	; 123
    2868:	d1 40       	sbci	r29, 0x01	; 1

0000286a <.Loc.560>:
    286a:	8e 01       	movw	r16, r28
    286c:	03 53       	subi	r16, 0x33	; 51
    286e:	1f 4f       	sbci	r17, 0xFF	; 255
    2870:	c5 58       	subi	r28, 0x85	; 133
    2872:	de 4f       	sbci	r29, 0xFE	; 254
    2874:	68 81       	ld	r22, Y
    2876:	79 81       	ldd	r23, Y+1	; 0x01
    2878:	8a 81       	ldd	r24, Y+2	; 0x02
    287a:	9b 81       	ldd	r25, Y+3	; 0x03
    287c:	cb 57       	subi	r28, 0x7B	; 123
    287e:	d1 40       	sbci	r29, 0x01	; 1
    2880:	0e 94 93 1f 	call	0x3f26	; 0x3f26 <__fixunssfsi>
    2884:	c9 57       	subi	r28, 0x79	; 121
    2886:	dd 4f       	sbci	r29, 0xFD	; 253
    2888:	68 83       	st	Y, r22
    288a:	79 83       	std	Y+1, r23	; 0x01
    288c:	8a 83       	std	Y+2, r24	; 0x02
    288e:	9b 83       	std	Y+3, r25	; 0x03
    2890:	c7 58       	subi	r28, 0x87	; 135
    2892:	d2 40       	sbci	r29, 0x02	; 2
    2894:	c9 57       	subi	r28, 0x79	; 121
    2896:	dd 4f       	sbci	r29, 0xFD	; 253
    2898:	e8 81       	ld	r30, Y
    289a:	f9 81       	ldd	r31, Y+1	; 0x01
    289c:	c7 58       	subi	r28, 0x87	; 135
    289e:	d2 40       	sbci	r29, 0x02	; 2
    28a0:	d8 01       	movw	r26, r16
    28a2:	11 96       	adiw	r26, 0x01	; 1
    28a4:	fc 93       	st	X, r31
    28a6:	ee 93       	st	-X, r30

000028a8 <.Loc.561>:
		while(__ticks)
    28a8:	26 c0       	rjmp	.+76     	; 0x28f6 <.L192>

000028aa <.L193>:
    28aa:	ce 01       	movw	r24, r28
    28ac:	81 53       	subi	r24, 0x31	; 49
    28ae:	9f 4f       	sbci	r25, 0xFF	; 255
    28b0:	20 e9       	ldi	r18, 0x90	; 144
    28b2:	31 e0       	ldi	r19, 0x01	; 1
    28b4:	dc 01       	movw	r26, r24
    28b6:	2d 93       	st	X+, r18
    28b8:	3c 93       	st	X, r19

000028ba <.LBB232>:
    28ba:	ce 01       	movw	r24, r28
    28bc:	81 53       	subi	r24, 0x31	; 49
    28be:	9f 4f       	sbci	r25, 0xFF	; 255
    28c0:	fc 01       	movw	r30, r24
    28c2:	80 81       	ld	r24, Z
    28c4:	91 81       	ldd	r25, Z+1	; 0x01

000028c6 <.L1^B30>:
    28c6:	01 97       	sbiw	r24, 0x01	; 1
    28c8:	f1 f7       	brne	.-4      	; 0x28c6 <.L1^B30>
    28ca:	9e 01       	movw	r18, r28
    28cc:	21 53       	subi	r18, 0x31	; 49
    28ce:	3f 4f       	sbci	r19, 0xFF	; 255
    28d0:	d9 01       	movw	r26, r18
    28d2:	8d 93       	st	X+, r24
    28d4:	9c 93       	st	X, r25

000028d6 <.Loc.563>:
	...

000028d8 <.LBE232>:
			__ticks --;
    28d8:	ce 01       	movw	r24, r28
    28da:	83 53       	subi	r24, 0x33	; 51
    28dc:	9f 4f       	sbci	r25, 0xFF	; 255
    28de:	9e 01       	movw	r18, r28
    28e0:	23 53       	subi	r18, 0x33	; 51
    28e2:	3f 4f       	sbci	r19, 0xFF	; 255
    28e4:	f9 01       	movw	r30, r18
    28e6:	20 81       	ld	r18, Z
    28e8:	31 81       	ldd	r19, Z+1	; 0x01
    28ea:	21 50       	subi	r18, 0x01	; 1
    28ec:	31 09       	sbc	r19, r1
    28ee:	dc 01       	movw	r26, r24
    28f0:	11 96       	adiw	r26, 0x01	; 1
    28f2:	3c 93       	st	X, r19
    28f4:	2e 93       	st	-X, r18

000028f6 <.L192>:
		while(__ticks)
    28f6:	ce 01       	movw	r24, r28
    28f8:	83 53       	subi	r24, 0x33	; 51
    28fa:	9f 4f       	sbci	r25, 0xFF	; 255
    28fc:	fc 01       	movw	r30, r24
    28fe:	80 81       	ld	r24, Z
    2900:	91 81       	ldd	r25, Z+1	; 0x01
    2902:	00 97       	sbiw	r24, 0x00	; 0
    2904:	91 f6       	brne	.-92     	; 0x28aa <.L193>

00002906 <.Loc.566>:
		return;
    2906:	39 c0       	rjmp	.+114    	; 0x297a <.L194>

00002908 <.L349>:
		__ticks = (uint16_t)__tmp;
    2908:	8e 01       	movw	r16, r28
    290a:	03 53       	subi	r16, 0x33	; 51
    290c:	1f 4f       	sbci	r17, 0xFF	; 255
    290e:	ce 01       	movw	r24, r28
    2910:	87 53       	subi	r24, 0x37	; 55
    2912:	9f 4f       	sbci	r25, 0xFF	; 255
    2914:	dc 01       	movw	r26, r24
    2916:	6d 91       	ld	r22, X+
    2918:	7d 91       	ld	r23, X+
    291a:	8d 91       	ld	r24, X+
    291c:	9c 91       	ld	r25, X
    291e:	0e 94 93 1f 	call	0x3f26	; 0x3f26 <__fixunssfsi>
    2922:	c5 57       	subi	r28, 0x75	; 117
    2924:	dd 4f       	sbci	r29, 0xFD	; 253
    2926:	68 83       	st	Y, r22
    2928:	79 83       	std	Y+1, r23	; 0x01
    292a:	8a 83       	std	Y+2, r24	; 0x02
    292c:	9b 83       	std	Y+3, r25	; 0x03
    292e:	cb 58       	subi	r28, 0x8B	; 139
    2930:	d2 40       	sbci	r29, 0x02	; 2
    2932:	c5 57       	subi	r28, 0x75	; 117
    2934:	dd 4f       	sbci	r29, 0xFD	; 253
    2936:	28 81       	ld	r18, Y
    2938:	39 81       	ldd	r19, Y+1	; 0x01
    293a:	cb 58       	subi	r28, 0x8B	; 139
    293c:	d2 40       	sbci	r29, 0x02	; 2
    293e:	f8 01       	movw	r30, r16
    2940:	31 83       	std	Z+1, r19	; 0x01
    2942:	20 83       	st	Z, r18

00002944 <.L189>:
    2944:	ce 01       	movw	r24, r28
    2946:	8f 52       	subi	r24, 0x2F	; 47
    2948:	9f 4f       	sbci	r25, 0xFF	; 255
    294a:	9e 01       	movw	r18, r28
    294c:	23 53       	subi	r18, 0x33	; 51
    294e:	3f 4f       	sbci	r19, 0xFF	; 255
    2950:	d9 01       	movw	r26, r18
    2952:	2d 91       	ld	r18, X+
    2954:	3c 91       	ld	r19, X
    2956:	fc 01       	movw	r30, r24
    2958:	31 83       	std	Z+1, r19	; 0x01
    295a:	20 83       	st	Z, r18

0000295c <.LBB234>:
    295c:	ce 01       	movw	r24, r28
    295e:	8f 52       	subi	r24, 0x2F	; 47
    2960:	9f 4f       	sbci	r25, 0xFF	; 255
    2962:	dc 01       	movw	r26, r24
    2964:	8d 91       	ld	r24, X+
    2966:	9c 91       	ld	r25, X

00002968 <.L1^B31>:
    2968:	01 97       	sbiw	r24, 0x01	; 1
    296a:	f1 f7       	brne	.-4      	; 0x2968 <.L1^B31>
    296c:	9e 01       	movw	r18, r28
    296e:	2f 52       	subi	r18, 0x2F	; 47
    2970:	3f 4f       	sbci	r19, 0xFF	; 255
    2972:	f9 01       	movw	r30, r18
    2974:	91 83       	std	Z+1, r25	; 0x01
    2976:	80 83       	st	Z, r24

00002978 <.Loc.569>:
	...

0000297a <.L194>:
                            {
                                _delay_ms(30);
                                knop2_ingedrukt = 0;
    297a:	10 92 1b 02 	sts	0x021B, r1	; 0x80021b <knop2_ingedrukt+0x1>
    297e:	10 92 1a 02 	sts	0x021A, r1	; 0x80021a <knop2_ingedrukt>

00002982 <.L178>:
                            }
                        }


                     if ((PINL & (1 << PL3)) == 0)  //executeer
    2982:	89 e0       	ldi	r24, 0x09	; 9
    2984:	91 e0       	ldi	r25, 0x01	; 1
    2986:	dc 01       	movw	r26, r24
    2988:	8c 91       	ld	r24, X

0000298a <.Loc.572>:
    298a:	88 2f       	mov	r24, r24
    298c:	90 e0       	ldi	r25, 0x00	; 0
    298e:	88 70       	andi	r24, 0x08	; 8
    2990:	99 27       	eor	r25, r25

00002992 <.Loc.573>:
    2992:	00 97       	sbiw	r24, 0x00	; 0
    2994:	09 f0       	breq	.+2      	; 0x2998 <.Loc.574>

00002996 <L0^A>:
    2996:	2e c1       	rjmp	.+604    	; 0x2bf4 <.L195>

00002998 <.Loc.574>:
                        {
                            if (knop4_ingedrukt == 0) // knop is niet al eerder ingedrukt
    2998:	80 91 1e 02 	lds	r24, 0x021E	; 0x80021e <knop4_ingedrukt>
    299c:	90 91 1f 02 	lds	r25, 0x021F	; 0x80021f <knop4_ingedrukt+0x1>

000029a0 <.Loc.575>:
    29a0:	00 97       	sbiw	r24, 0x00	; 0
    29a2:	09 f0       	breq	.+2      	; 0x29a6 <L0^A+0x2>

000029a4 <L0^A>:
    29a4:	3f c2       	rjmp	.+1150   	; 0x2e24 <.L196>
    29a6:	9e 01       	movw	r18, r28
    29a8:	2d 52       	subi	r18, 0x2D	; 45
    29aa:	3f 4f       	sbci	r19, 0xFF	; 255
    29ac:	80 e0       	ldi	r24, 0x00	; 0
    29ae:	90 e0       	ldi	r25, 0x00	; 0
    29b0:	a0 ef       	ldi	r26, 0xF0	; 240
    29b2:	b1 e4       	ldi	r27, 0x41	; 65
    29b4:	f9 01       	movw	r30, r18
    29b6:	80 83       	st	Z, r24
    29b8:	91 83       	std	Z+1, r25	; 0x01
    29ba:	a2 83       	std	Z+2, r26	; 0x02
    29bc:	b3 83       	std	Z+3, r27	; 0x03

000029be <.LBB236>:
	__tmp = ((F_CPU) / 4e3) * __ms;
    29be:	8e 01       	movw	r16, r28
    29c0:	09 52       	subi	r16, 0x29	; 41
    29c2:	1f 4f       	sbci	r17, 0xFF	; 255
    29c4:	ce 01       	movw	r24, r28
    29c6:	8d 52       	subi	r24, 0x2D	; 45
    29c8:	9f 4f       	sbci	r25, 0xFF	; 255
    29ca:	20 e0       	ldi	r18, 0x00	; 0
    29cc:	30 e0       	ldi	r19, 0x00	; 0
    29ce:	4a e7       	ldi	r20, 0x7A	; 122
    29d0:	55 e4       	ldi	r21, 0x45	; 69
    29d2:	dc 01       	movw	r26, r24
    29d4:	6d 91       	ld	r22, X+
    29d6:	7d 91       	ld	r23, X+
    29d8:	8d 91       	ld	r24, X+
    29da:	9c 91       	ld	r25, X
    29dc:	0e 94 14 20 	call	0x4028	; 0x4028 <__mulsf3>
    29e0:	c1 57       	subi	r28, 0x71	; 113
    29e2:	dd 4f       	sbci	r29, 0xFD	; 253
    29e4:	68 83       	st	Y, r22
    29e6:	79 83       	std	Y+1, r23	; 0x01
    29e8:	8a 83       	std	Y+2, r24	; 0x02
    29ea:	9b 83       	std	Y+3, r25	; 0x03
    29ec:	cf 58       	subi	r28, 0x8F	; 143
    29ee:	d2 40       	sbci	r29, 0x02	; 2
    29f0:	c1 57       	subi	r28, 0x71	; 113
    29f2:	dd 4f       	sbci	r29, 0xFD	; 253
    29f4:	28 81       	ld	r18, Y
    29f6:	39 81       	ldd	r19, Y+1	; 0x01
    29f8:	4a 81       	ldd	r20, Y+2	; 0x02
    29fa:	5b 81       	ldd	r21, Y+3	; 0x03
    29fc:	cf 58       	subi	r28, 0x8F	; 143
    29fe:	d2 40       	sbci	r29, 0x02	; 2
    2a00:	d8 01       	movw	r26, r16
    2a02:	2d 93       	st	X+, r18
    2a04:	3d 93       	st	X+, r19
    2a06:	4d 93       	st	X+, r20
    2a08:	5c 93       	st	X, r21
    2a0a:	13 97       	sbiw	r26, 0x03	; 3

00002a0c <.Loc.577>:
	if (__tmp < 1.0)
    2a0c:	ce 01       	movw	r24, r28
    2a0e:	89 52       	subi	r24, 0x29	; 41
    2a10:	9f 4f       	sbci	r25, 0xFF	; 255
    2a12:	20 e0       	ldi	r18, 0x00	; 0
    2a14:	30 e0       	ldi	r19, 0x00	; 0
    2a16:	40 e8       	ldi	r20, 0x80	; 128
    2a18:	5f e3       	ldi	r21, 0x3F	; 63
    2a1a:	fc 01       	movw	r30, r24
    2a1c:	60 81       	ld	r22, Z
    2a1e:	71 81       	ldd	r23, Z+1	; 0x01
    2a20:	82 81       	ldd	r24, Z+2	; 0x02
    2a22:	93 81       	ldd	r25, Z+3	; 0x03
    2a24:	0e 94 8e 1f 	call	0x3f1c	; 0x3f1c <__cmpsf2>
    2a28:	88 23       	and	r24, r24
    2a2a:	54 f4       	brge	.+20     	; 0x2a40 <.L350>

00002a2c <.Loc.578>:
		__ticks = 1;
    2a2c:	ce 01       	movw	r24, r28
    2a2e:	85 52       	subi	r24, 0x25	; 37
    2a30:	9f 4f       	sbci	r25, 0xFF	; 255
    2a32:	21 e0       	ldi	r18, 0x01	; 1
    2a34:	30 e0       	ldi	r19, 0x00	; 0
    2a36:	dc 01       	movw	r26, r24
    2a38:	11 96       	adiw	r26, 0x01	; 1
    2a3a:	3c 93       	st	X, r19
    2a3c:	2e 93       	st	-X, r18
    2a3e:	a5 c0       	rjmp	.+330    	; 0x2b8a <.L199>

00002a40 <.L350>:
	else if (__tmp > 65535)
    2a40:	ce 01       	movw	r24, r28
    2a42:	89 52       	subi	r24, 0x29	; 41
    2a44:	9f 4f       	sbci	r25, 0xFF	; 255
    2a46:	20 e0       	ldi	r18, 0x00	; 0
    2a48:	3f ef       	ldi	r19, 0xFF	; 255
    2a4a:	4f e7       	ldi	r20, 0x7F	; 127
    2a4c:	57 e4       	ldi	r21, 0x47	; 71
    2a4e:	fc 01       	movw	r30, r24
    2a50:	60 81       	ld	r22, Z
    2a52:	71 81       	ldd	r23, Z+1	; 0x01
    2a54:	82 81       	ldd	r24, Z+2	; 0x02
    2a56:	93 81       	ldd	r25, Z+3	; 0x03
    2a58:	0e 94 0f 20 	call	0x401e	; 0x401e <__gesf2>
    2a5c:	88 23       	and	r24, r24
    2a5e:	09 f0       	breq	.+2      	; 0x2a62 <L0^A>

00002a60 <L0^A>:
    2a60:	0c f4       	brge	.+2      	; 0x2a64 <.Loc.580>

00002a62 <L0^A>:
    2a62:	75 c0       	rjmp	.+234    	; 0x2b4e <.L351>

00002a64 <.Loc.580>:
		__ticks = (uint16_t) (__ms * 10.0);
    2a64:	ce 01       	movw	r24, r28
    2a66:	8d 52       	subi	r24, 0x2D	; 45
    2a68:	9f 4f       	sbci	r25, 0xFF	; 255
    2a6a:	20 e0       	ldi	r18, 0x00	; 0
    2a6c:	30 e0       	ldi	r19, 0x00	; 0
    2a6e:	40 e2       	ldi	r20, 0x20	; 32
    2a70:	51 e4       	ldi	r21, 0x41	; 65
    2a72:	dc 01       	movw	r26, r24
    2a74:	6d 91       	ld	r22, X+
    2a76:	7d 91       	ld	r23, X+
    2a78:	8d 91       	ld	r24, X+
    2a7a:	9c 91       	ld	r25, X
    2a7c:	0e 94 14 20 	call	0x4028	; 0x4028 <__mulsf3>
    2a80:	cd 56       	subi	r28, 0x6D	; 109
    2a82:	dd 4f       	sbci	r29, 0xFD	; 253
    2a84:	68 83       	st	Y, r22
    2a86:	79 83       	std	Y+1, r23	; 0x01
    2a88:	8a 83       	std	Y+2, r24	; 0x02
    2a8a:	9b 83       	std	Y+3, r25	; 0x03
    2a8c:	c3 59       	subi	r28, 0x93	; 147
    2a8e:	d2 40       	sbci	r29, 0x02	; 2
    2a90:	cd 56       	subi	r28, 0x6D	; 109
    2a92:	dd 4f       	sbci	r29, 0xFD	; 253
    2a94:	28 81       	ld	r18, Y
    2a96:	39 81       	ldd	r19, Y+1	; 0x01
    2a98:	4a 81       	ldd	r20, Y+2	; 0x02
    2a9a:	5b 81       	ldd	r21, Y+3	; 0x03
    2a9c:	c3 59       	subi	r28, 0x93	; 147
    2a9e:	d2 40       	sbci	r29, 0x02	; 2
    2aa0:	c1 58       	subi	r28, 0x81	; 129
    2aa2:	de 4f       	sbci	r29, 0xFE	; 254
    2aa4:	28 83       	st	Y, r18
    2aa6:	39 83       	std	Y+1, r19	; 0x01
    2aa8:	4a 83       	std	Y+2, r20	; 0x02
    2aaa:	5b 83       	std	Y+3, r21	; 0x03
    2aac:	cf 57       	subi	r28, 0x7F	; 127
    2aae:	d1 40       	sbci	r29, 0x01	; 1

00002ab0 <.Loc.581>:
    2ab0:	8e 01       	movw	r16, r28
    2ab2:	05 52       	subi	r16, 0x25	; 37
    2ab4:	1f 4f       	sbci	r17, 0xFF	; 255
    2ab6:	c1 58       	subi	r28, 0x81	; 129
    2ab8:	de 4f       	sbci	r29, 0xFE	; 254
    2aba:	68 81       	ld	r22, Y
    2abc:	79 81       	ldd	r23, Y+1	; 0x01
    2abe:	8a 81       	ldd	r24, Y+2	; 0x02
    2ac0:	9b 81       	ldd	r25, Y+3	; 0x03
    2ac2:	cf 57       	subi	r28, 0x7F	; 127
    2ac4:	d1 40       	sbci	r29, 0x01	; 1
    2ac6:	0e 94 93 1f 	call	0x3f26	; 0x3f26 <__fixunssfsi>
    2aca:	c9 56       	subi	r28, 0x69	; 105
    2acc:	dd 4f       	sbci	r29, 0xFD	; 253
    2ace:	68 83       	st	Y, r22
    2ad0:	79 83       	std	Y+1, r23	; 0x01
    2ad2:	8a 83       	std	Y+2, r24	; 0x02
    2ad4:	9b 83       	std	Y+3, r25	; 0x03
    2ad6:	c7 59       	subi	r28, 0x97	; 151
    2ad8:	d2 40       	sbci	r29, 0x02	; 2
    2ada:	c9 56       	subi	r28, 0x69	; 105
    2adc:	dd 4f       	sbci	r29, 0xFD	; 253
    2ade:	e8 81       	ld	r30, Y
    2ae0:	f9 81       	ldd	r31, Y+1	; 0x01
    2ae2:	c7 59       	subi	r28, 0x97	; 151
    2ae4:	d2 40       	sbci	r29, 0x02	; 2
    2ae6:	d8 01       	movw	r26, r16
    2ae8:	11 96       	adiw	r26, 0x01	; 1
    2aea:	fc 93       	st	X, r31
    2aec:	ee 93       	st	-X, r30

00002aee <.Loc.582>:
		while(__ticks)
    2aee:	26 c0       	rjmp	.+76     	; 0x2b3c <.L202>

00002af0 <.L203>:
    2af0:	ce 01       	movw	r24, r28
    2af2:	83 52       	subi	r24, 0x23	; 35
    2af4:	9f 4f       	sbci	r25, 0xFF	; 255
    2af6:	20 e9       	ldi	r18, 0x90	; 144
    2af8:	31 e0       	ldi	r19, 0x01	; 1
    2afa:	dc 01       	movw	r26, r24
    2afc:	2d 93       	st	X+, r18
    2afe:	3c 93       	st	X, r19

00002b00 <.LBB238>:
    2b00:	ce 01       	movw	r24, r28
    2b02:	83 52       	subi	r24, 0x23	; 35
    2b04:	9f 4f       	sbci	r25, 0xFF	; 255
    2b06:	fc 01       	movw	r30, r24
    2b08:	80 81       	ld	r24, Z
    2b0a:	91 81       	ldd	r25, Z+1	; 0x01

00002b0c <.L1^B32>:
    2b0c:	01 97       	sbiw	r24, 0x01	; 1
    2b0e:	f1 f7       	brne	.-4      	; 0x2b0c <.L1^B32>
    2b10:	9e 01       	movw	r18, r28
    2b12:	23 52       	subi	r18, 0x23	; 35
    2b14:	3f 4f       	sbci	r19, 0xFF	; 255
    2b16:	d9 01       	movw	r26, r18
    2b18:	8d 93       	st	X+, r24
    2b1a:	9c 93       	st	X, r25

00002b1c <.Loc.584>:
	...

00002b1e <.LBE238>:
			__ticks --;
    2b1e:	ce 01       	movw	r24, r28
    2b20:	85 52       	subi	r24, 0x25	; 37
    2b22:	9f 4f       	sbci	r25, 0xFF	; 255
    2b24:	9e 01       	movw	r18, r28
    2b26:	25 52       	subi	r18, 0x25	; 37
    2b28:	3f 4f       	sbci	r19, 0xFF	; 255
    2b2a:	f9 01       	movw	r30, r18
    2b2c:	20 81       	ld	r18, Z
    2b2e:	31 81       	ldd	r19, Z+1	; 0x01
    2b30:	21 50       	subi	r18, 0x01	; 1
    2b32:	31 09       	sbc	r19, r1
    2b34:	dc 01       	movw	r26, r24
    2b36:	11 96       	adiw	r26, 0x01	; 1
    2b38:	3c 93       	st	X, r19
    2b3a:	2e 93       	st	-X, r18

00002b3c <.L202>:
		while(__ticks)
    2b3c:	ce 01       	movw	r24, r28
    2b3e:	85 52       	subi	r24, 0x25	; 37
    2b40:	9f 4f       	sbci	r25, 0xFF	; 255
    2b42:	fc 01       	movw	r30, r24
    2b44:	80 81       	ld	r24, Z
    2b46:	91 81       	ldd	r25, Z+1	; 0x01
    2b48:	00 97       	sbiw	r24, 0x00	; 0
    2b4a:	91 f6       	brne	.-92     	; 0x2af0 <.L203>

00002b4c <.Loc.587>:
		return;
    2b4c:	3a c0       	rjmp	.+116    	; 0x2bc2 <.L204>

00002b4e <.L351>:
		__ticks = (uint16_t)__tmp;
    2b4e:	8e 01       	movw	r16, r28
    2b50:	05 52       	subi	r16, 0x25	; 37
    2b52:	1f 4f       	sbci	r17, 0xFF	; 255
    2b54:	ce 01       	movw	r24, r28
    2b56:	89 52       	subi	r24, 0x29	; 41
    2b58:	9f 4f       	sbci	r25, 0xFF	; 255
    2b5a:	dc 01       	movw	r26, r24
    2b5c:	6d 91       	ld	r22, X+
    2b5e:	7d 91       	ld	r23, X+
    2b60:	8d 91       	ld	r24, X+
    2b62:	9c 91       	ld	r25, X
    2b64:	0e 94 93 1f 	call	0x3f26	; 0x3f26 <__fixunssfsi>
    2b68:	c5 56       	subi	r28, 0x65	; 101
    2b6a:	dd 4f       	sbci	r29, 0xFD	; 253
    2b6c:	68 83       	st	Y, r22
    2b6e:	79 83       	std	Y+1, r23	; 0x01
    2b70:	8a 83       	std	Y+2, r24	; 0x02
    2b72:	9b 83       	std	Y+3, r25	; 0x03
    2b74:	cb 59       	subi	r28, 0x9B	; 155
    2b76:	d2 40       	sbci	r29, 0x02	; 2
    2b78:	c5 56       	subi	r28, 0x65	; 101
    2b7a:	dd 4f       	sbci	r29, 0xFD	; 253
    2b7c:	28 81       	ld	r18, Y
    2b7e:	39 81       	ldd	r19, Y+1	; 0x01
    2b80:	cb 59       	subi	r28, 0x9B	; 155
    2b82:	d2 40       	sbci	r29, 0x02	; 2
    2b84:	f8 01       	movw	r30, r16
    2b86:	31 83       	std	Z+1, r19	; 0x01
    2b88:	20 83       	st	Z, r18

00002b8a <.L199>:
    2b8a:	ce 01       	movw	r24, r28
    2b8c:	81 52       	subi	r24, 0x21	; 33
    2b8e:	9f 4f       	sbci	r25, 0xFF	; 255
    2b90:	9e 01       	movw	r18, r28
    2b92:	25 52       	subi	r18, 0x25	; 37
    2b94:	3f 4f       	sbci	r19, 0xFF	; 255
    2b96:	d9 01       	movw	r26, r18
    2b98:	2d 91       	ld	r18, X+
    2b9a:	3c 91       	ld	r19, X
    2b9c:	fc 01       	movw	r30, r24
    2b9e:	31 83       	std	Z+1, r19	; 0x01
    2ba0:	20 83       	st	Z, r18

00002ba2 <.LBB240>:
    2ba2:	ce 01       	movw	r24, r28
    2ba4:	81 52       	subi	r24, 0x21	; 33
    2ba6:	9f 4f       	sbci	r25, 0xFF	; 255
    2ba8:	dc 01       	movw	r26, r24
    2baa:	8d 91       	ld	r24, X+
    2bac:	9c 91       	ld	r25, X
    2bae:	11 97       	sbiw	r26, 0x01	; 1

00002bb0 <.L1^B33>:
    2bb0:	01 97       	sbiw	r24, 0x01	; 1
    2bb2:	f1 f7       	brne	.-4      	; 0x2bb0 <.L1^B33>
    2bb4:	9e 01       	movw	r18, r28
    2bb6:	21 52       	subi	r18, 0x21	; 33
    2bb8:	3f 4f       	sbci	r19, 0xFF	; 255
    2bba:	f9 01       	movw	r30, r18
    2bbc:	91 83       	std	Z+1, r25	; 0x01
    2bbe:	80 83       	st	Z, r24

00002bc0 <.Loc.590>:
	...

00002bc2 <.L204>:
                            {
                                _delay_ms(30);
                                StepCounterY=n;
    2bc2:	80 91 12 02 	lds	r24, 0x0212	; 0x800212 <n>
    2bc6:	90 91 13 02 	lds	r25, 0x0213	; 0x800213 <n+0x1>
    2bca:	90 93 03 02 	sts	0x0203, r25	; 0x800203 <StepCounterY+0x1>
    2bce:	80 93 02 02 	sts	0x0202, r24	; 0x800202 <StepCounterY>

00002bd2 <.Loc.592>:
                                MenuLayer = 30; //Switch to execution of code
    2bd2:	8e e1       	ldi	r24, 0x1E	; 30
    2bd4:	90 e0       	ldi	r25, 0x00	; 0
    2bd6:	90 93 01 02 	sts	0x0201, r25	; 0x800201 <MenuLayer+0x1>
    2bda:	80 93 00 02 	sts	0x0200, r24	; 0x800200 <MenuLayer>

00002bde <.Loc.593>:
                                n=0; //New axis starts from 0.
    2bde:	10 92 13 02 	sts	0x0213, r1	; 0x800213 <n+0x1>
    2be2:	10 92 12 02 	sts	0x0212, r1	; 0x800212 <n>

00002be6 <.Loc.594>:
                                knop4_ingedrukt = 1;
    2be6:	81 e0       	ldi	r24, 0x01	; 1
    2be8:	90 e0       	ldi	r25, 0x00	; 0
    2bea:	90 93 1f 02 	sts	0x021F, r25	; 0x80021f <knop4_ingedrukt+0x1>
    2bee:	80 93 1e 02 	sts	0x021E, r24	; 0x80021e <knop4_ingedrukt>
    2bf2:	18 c1       	rjmp	.+560    	; 0x2e24 <.L196>

00002bf4 <.L195>:
                            }
                        }
                    else
                        {
                        if (knop4_ingedrukt != 0) // knop is zojuist losgelaten
    2bf4:	80 91 1e 02 	lds	r24, 0x021E	; 0x80021e <knop4_ingedrukt>
    2bf8:	90 91 1f 02 	lds	r25, 0x021F	; 0x80021f <knop4_ingedrukt+0x1>

00002bfc <.Loc.596>:
    2bfc:	00 97       	sbiw	r24, 0x00	; 0
    2bfe:	09 f4       	brne	.+2      	; 0x2c02 <L0^A+0x2>

00002c00 <L0^A>:
    2c00:	11 c1       	rjmp	.+546    	; 0x2e24 <.L196>
    2c02:	9e 01       	movw	r18, r28
    2c04:	2f 51       	subi	r18, 0x1F	; 31
    2c06:	3f 4f       	sbci	r19, 0xFF	; 255
    2c08:	80 e0       	ldi	r24, 0x00	; 0
    2c0a:	90 e0       	ldi	r25, 0x00	; 0
    2c0c:	a0 ef       	ldi	r26, 0xF0	; 240
    2c0e:	b1 e4       	ldi	r27, 0x41	; 65
    2c10:	f9 01       	movw	r30, r18
    2c12:	80 83       	st	Z, r24
    2c14:	91 83       	std	Z+1, r25	; 0x01
    2c16:	a2 83       	std	Z+2, r26	; 0x02
    2c18:	b3 83       	std	Z+3, r27	; 0x03

00002c1a <.LBB242>:
	__tmp = ((F_CPU) / 4e3) * __ms;
    2c1a:	8e 01       	movw	r16, r28
    2c1c:	0b 51       	subi	r16, 0x1B	; 27
    2c1e:	1f 4f       	sbci	r17, 0xFF	; 255
    2c20:	ce 01       	movw	r24, r28
    2c22:	8f 51       	subi	r24, 0x1F	; 31
    2c24:	9f 4f       	sbci	r25, 0xFF	; 255
    2c26:	20 e0       	ldi	r18, 0x00	; 0
    2c28:	30 e0       	ldi	r19, 0x00	; 0
    2c2a:	4a e7       	ldi	r20, 0x7A	; 122
    2c2c:	55 e4       	ldi	r21, 0x45	; 69
    2c2e:	dc 01       	movw	r26, r24
    2c30:	6d 91       	ld	r22, X+
    2c32:	7d 91       	ld	r23, X+
    2c34:	8d 91       	ld	r24, X+
    2c36:	9c 91       	ld	r25, X
    2c38:	0e 94 14 20 	call	0x4028	; 0x4028 <__mulsf3>
    2c3c:	c1 56       	subi	r28, 0x61	; 97
    2c3e:	dd 4f       	sbci	r29, 0xFD	; 253
    2c40:	68 83       	st	Y, r22
    2c42:	79 83       	std	Y+1, r23	; 0x01
    2c44:	8a 83       	std	Y+2, r24	; 0x02
    2c46:	9b 83       	std	Y+3, r25	; 0x03
    2c48:	cf 59       	subi	r28, 0x9F	; 159
    2c4a:	d2 40       	sbci	r29, 0x02	; 2
    2c4c:	c1 56       	subi	r28, 0x61	; 97
    2c4e:	dd 4f       	sbci	r29, 0xFD	; 253
    2c50:	28 81       	ld	r18, Y
    2c52:	39 81       	ldd	r19, Y+1	; 0x01
    2c54:	4a 81       	ldd	r20, Y+2	; 0x02
    2c56:	5b 81       	ldd	r21, Y+3	; 0x03
    2c58:	cf 59       	subi	r28, 0x9F	; 159
    2c5a:	d2 40       	sbci	r29, 0x02	; 2
    2c5c:	d8 01       	movw	r26, r16
    2c5e:	2d 93       	st	X+, r18
    2c60:	3d 93       	st	X+, r19
    2c62:	4d 93       	st	X+, r20
    2c64:	5c 93       	st	X, r21
    2c66:	13 97       	sbiw	r26, 0x03	; 3

00002c68 <.Loc.598>:
	if (__tmp < 1.0)
    2c68:	ce 01       	movw	r24, r28
    2c6a:	8b 51       	subi	r24, 0x1B	; 27
    2c6c:	9f 4f       	sbci	r25, 0xFF	; 255
    2c6e:	20 e0       	ldi	r18, 0x00	; 0
    2c70:	30 e0       	ldi	r19, 0x00	; 0
    2c72:	40 e8       	ldi	r20, 0x80	; 128
    2c74:	5f e3       	ldi	r21, 0x3F	; 63
    2c76:	fc 01       	movw	r30, r24
    2c78:	60 81       	ld	r22, Z
    2c7a:	71 81       	ldd	r23, Z+1	; 0x01
    2c7c:	82 81       	ldd	r24, Z+2	; 0x02
    2c7e:	93 81       	ldd	r25, Z+3	; 0x03
    2c80:	0e 94 8e 1f 	call	0x3f1c	; 0x3f1c <__cmpsf2>
    2c84:	88 23       	and	r24, r24
    2c86:	54 f4       	brge	.+20     	; 0x2c9c <.L352>

00002c88 <.Loc.599>:
		__ticks = 1;
    2c88:	ce 01       	movw	r24, r28
    2c8a:	87 51       	subi	r24, 0x17	; 23
    2c8c:	9f 4f       	sbci	r25, 0xFF	; 255
    2c8e:	21 e0       	ldi	r18, 0x01	; 1
    2c90:	30 e0       	ldi	r19, 0x00	; 0
    2c92:	dc 01       	movw	r26, r24
    2c94:	11 96       	adiw	r26, 0x01	; 1
    2c96:	3c 93       	st	X, r19
    2c98:	2e 93       	st	-X, r18
    2c9a:	a5 c0       	rjmp	.+330    	; 0x2de6 <.L207>

00002c9c <.L352>:
	else if (__tmp > 65535)
    2c9c:	ce 01       	movw	r24, r28
    2c9e:	8b 51       	subi	r24, 0x1B	; 27
    2ca0:	9f 4f       	sbci	r25, 0xFF	; 255
    2ca2:	20 e0       	ldi	r18, 0x00	; 0
    2ca4:	3f ef       	ldi	r19, 0xFF	; 255
    2ca6:	4f e7       	ldi	r20, 0x7F	; 127
    2ca8:	57 e4       	ldi	r21, 0x47	; 71
    2caa:	fc 01       	movw	r30, r24
    2cac:	60 81       	ld	r22, Z
    2cae:	71 81       	ldd	r23, Z+1	; 0x01
    2cb0:	82 81       	ldd	r24, Z+2	; 0x02
    2cb2:	93 81       	ldd	r25, Z+3	; 0x03
    2cb4:	0e 94 0f 20 	call	0x401e	; 0x401e <__gesf2>
    2cb8:	88 23       	and	r24, r24
    2cba:	09 f0       	breq	.+2      	; 0x2cbe <L0^A>

00002cbc <L0^A>:
    2cbc:	0c f4       	brge	.+2      	; 0x2cc0 <.Loc.601>

00002cbe <L0^A>:
    2cbe:	75 c0       	rjmp	.+234    	; 0x2daa <.L353>

00002cc0 <.Loc.601>:
		__ticks = (uint16_t) (__ms * 10.0);
    2cc0:	ce 01       	movw	r24, r28
    2cc2:	8f 51       	subi	r24, 0x1F	; 31
    2cc4:	9f 4f       	sbci	r25, 0xFF	; 255
    2cc6:	20 e0       	ldi	r18, 0x00	; 0
    2cc8:	30 e0       	ldi	r19, 0x00	; 0
    2cca:	40 e2       	ldi	r20, 0x20	; 32
    2ccc:	51 e4       	ldi	r21, 0x41	; 65
    2cce:	dc 01       	movw	r26, r24
    2cd0:	6d 91       	ld	r22, X+
    2cd2:	7d 91       	ld	r23, X+
    2cd4:	8d 91       	ld	r24, X+
    2cd6:	9c 91       	ld	r25, X
    2cd8:	0e 94 14 20 	call	0x4028	; 0x4028 <__mulsf3>
    2cdc:	cd 55       	subi	r28, 0x5D	; 93
    2cde:	dd 4f       	sbci	r29, 0xFD	; 253
    2ce0:	68 83       	st	Y, r22
    2ce2:	79 83       	std	Y+1, r23	; 0x01
    2ce4:	8a 83       	std	Y+2, r24	; 0x02
    2ce6:	9b 83       	std	Y+3, r25	; 0x03
    2ce8:	c3 5a       	subi	r28, 0xA3	; 163
    2cea:	d2 40       	sbci	r29, 0x02	; 2
    2cec:	cd 55       	subi	r28, 0x5D	; 93
    2cee:	dd 4f       	sbci	r29, 0xFD	; 253
    2cf0:	28 81       	ld	r18, Y
    2cf2:	39 81       	ldd	r19, Y+1	; 0x01
    2cf4:	4a 81       	ldd	r20, Y+2	; 0x02
    2cf6:	5b 81       	ldd	r21, Y+3	; 0x03
    2cf8:	c3 5a       	subi	r28, 0xA3	; 163
    2cfa:	d2 40       	sbci	r29, 0x02	; 2
    2cfc:	cd 57       	subi	r28, 0x7D	; 125
    2cfe:	de 4f       	sbci	r29, 0xFE	; 254
    2d00:	28 83       	st	Y, r18
    2d02:	39 83       	std	Y+1, r19	; 0x01
    2d04:	4a 83       	std	Y+2, r20	; 0x02
    2d06:	5b 83       	std	Y+3, r21	; 0x03
    2d08:	c3 58       	subi	r28, 0x83	; 131
    2d0a:	d1 40       	sbci	r29, 0x01	; 1

00002d0c <.Loc.602>:
    2d0c:	8e 01       	movw	r16, r28
    2d0e:	07 51       	subi	r16, 0x17	; 23
    2d10:	1f 4f       	sbci	r17, 0xFF	; 255
    2d12:	cd 57       	subi	r28, 0x7D	; 125
    2d14:	de 4f       	sbci	r29, 0xFE	; 254
    2d16:	68 81       	ld	r22, Y
    2d18:	79 81       	ldd	r23, Y+1	; 0x01
    2d1a:	8a 81       	ldd	r24, Y+2	; 0x02
    2d1c:	9b 81       	ldd	r25, Y+3	; 0x03
    2d1e:	c3 58       	subi	r28, 0x83	; 131
    2d20:	d1 40       	sbci	r29, 0x01	; 1
    2d22:	0e 94 93 1f 	call	0x3f26	; 0x3f26 <__fixunssfsi>
    2d26:	c9 55       	subi	r28, 0x59	; 89
    2d28:	dd 4f       	sbci	r29, 0xFD	; 253
    2d2a:	68 83       	st	Y, r22
    2d2c:	79 83       	std	Y+1, r23	; 0x01
    2d2e:	8a 83       	std	Y+2, r24	; 0x02
    2d30:	9b 83       	std	Y+3, r25	; 0x03
    2d32:	c7 5a       	subi	r28, 0xA7	; 167
    2d34:	d2 40       	sbci	r29, 0x02	; 2
    2d36:	c9 55       	subi	r28, 0x59	; 89
    2d38:	dd 4f       	sbci	r29, 0xFD	; 253
    2d3a:	e8 81       	ld	r30, Y
    2d3c:	f9 81       	ldd	r31, Y+1	; 0x01
    2d3e:	c7 5a       	subi	r28, 0xA7	; 167
    2d40:	d2 40       	sbci	r29, 0x02	; 2
    2d42:	d8 01       	movw	r26, r16
    2d44:	11 96       	adiw	r26, 0x01	; 1
    2d46:	fc 93       	st	X, r31
    2d48:	ee 93       	st	-X, r30

00002d4a <.Loc.603>:
		while(__ticks)
    2d4a:	26 c0       	rjmp	.+76     	; 0x2d98 <.L210>

00002d4c <.L211>:
    2d4c:	ce 01       	movw	r24, r28
    2d4e:	85 51       	subi	r24, 0x15	; 21
    2d50:	9f 4f       	sbci	r25, 0xFF	; 255
    2d52:	20 e9       	ldi	r18, 0x90	; 144
    2d54:	31 e0       	ldi	r19, 0x01	; 1
    2d56:	dc 01       	movw	r26, r24
    2d58:	2d 93       	st	X+, r18
    2d5a:	3c 93       	st	X, r19

00002d5c <.LBB244>:
    2d5c:	ce 01       	movw	r24, r28
    2d5e:	85 51       	subi	r24, 0x15	; 21
    2d60:	9f 4f       	sbci	r25, 0xFF	; 255
    2d62:	fc 01       	movw	r30, r24
    2d64:	80 81       	ld	r24, Z
    2d66:	91 81       	ldd	r25, Z+1	; 0x01

00002d68 <.L1^B34>:
    2d68:	01 97       	sbiw	r24, 0x01	; 1
    2d6a:	f1 f7       	brne	.-4      	; 0x2d68 <.L1^B34>
    2d6c:	9e 01       	movw	r18, r28
    2d6e:	25 51       	subi	r18, 0x15	; 21
    2d70:	3f 4f       	sbci	r19, 0xFF	; 255
    2d72:	d9 01       	movw	r26, r18
    2d74:	8d 93       	st	X+, r24
    2d76:	9c 93       	st	X, r25

00002d78 <.Loc.605>:
	...

00002d7a <.LBE244>:
			__ticks --;
    2d7a:	ce 01       	movw	r24, r28
    2d7c:	87 51       	subi	r24, 0x17	; 23
    2d7e:	9f 4f       	sbci	r25, 0xFF	; 255
    2d80:	9e 01       	movw	r18, r28
    2d82:	27 51       	subi	r18, 0x17	; 23
    2d84:	3f 4f       	sbci	r19, 0xFF	; 255
    2d86:	f9 01       	movw	r30, r18
    2d88:	20 81       	ld	r18, Z
    2d8a:	31 81       	ldd	r19, Z+1	; 0x01
    2d8c:	21 50       	subi	r18, 0x01	; 1
    2d8e:	31 09       	sbc	r19, r1
    2d90:	dc 01       	movw	r26, r24
    2d92:	11 96       	adiw	r26, 0x01	; 1
    2d94:	3c 93       	st	X, r19
    2d96:	2e 93       	st	-X, r18

00002d98 <.L210>:
		while(__ticks)
    2d98:	ce 01       	movw	r24, r28
    2d9a:	87 51       	subi	r24, 0x17	; 23
    2d9c:	9f 4f       	sbci	r25, 0xFF	; 255
    2d9e:	fc 01       	movw	r30, r24
    2da0:	80 81       	ld	r24, Z
    2da2:	91 81       	ldd	r25, Z+1	; 0x01
    2da4:	00 97       	sbiw	r24, 0x00	; 0
    2da6:	91 f6       	brne	.-92     	; 0x2d4c <.L211>

00002da8 <.Loc.608>:
		return;
    2da8:	39 c0       	rjmp	.+114    	; 0x2e1c <.L212>

00002daa <.L353>:
		__ticks = (uint16_t)__tmp;
    2daa:	8e 01       	movw	r16, r28
    2dac:	07 51       	subi	r16, 0x17	; 23
    2dae:	1f 4f       	sbci	r17, 0xFF	; 255
    2db0:	ce 01       	movw	r24, r28
    2db2:	8b 51       	subi	r24, 0x1B	; 27
    2db4:	9f 4f       	sbci	r25, 0xFF	; 255
    2db6:	dc 01       	movw	r26, r24
    2db8:	6d 91       	ld	r22, X+
    2dba:	7d 91       	ld	r23, X+
    2dbc:	8d 91       	ld	r24, X+
    2dbe:	9c 91       	ld	r25, X
    2dc0:	0e 94 93 1f 	call	0x3f26	; 0x3f26 <__fixunssfsi>
    2dc4:	c5 55       	subi	r28, 0x55	; 85
    2dc6:	dd 4f       	sbci	r29, 0xFD	; 253
    2dc8:	68 83       	st	Y, r22
    2dca:	79 83       	std	Y+1, r23	; 0x01
    2dcc:	8a 83       	std	Y+2, r24	; 0x02
    2dce:	9b 83       	std	Y+3, r25	; 0x03
    2dd0:	cb 5a       	subi	r28, 0xAB	; 171
    2dd2:	d2 40       	sbci	r29, 0x02	; 2
    2dd4:	c5 55       	subi	r28, 0x55	; 85
    2dd6:	dd 4f       	sbci	r29, 0xFD	; 253
    2dd8:	28 81       	ld	r18, Y
    2dda:	39 81       	ldd	r19, Y+1	; 0x01
    2ddc:	cb 5a       	subi	r28, 0xAB	; 171
    2dde:	d2 40       	sbci	r29, 0x02	; 2
    2de0:	f8 01       	movw	r30, r16
    2de2:	31 83       	std	Z+1, r19	; 0x01
    2de4:	20 83       	st	Z, r18

00002de6 <.L207>:
    2de6:	ce 01       	movw	r24, r28
    2de8:	83 51       	subi	r24, 0x13	; 19
    2dea:	9f 4f       	sbci	r25, 0xFF	; 255
    2dec:	9e 01       	movw	r18, r28
    2dee:	27 51       	subi	r18, 0x17	; 23
    2df0:	3f 4f       	sbci	r19, 0xFF	; 255
    2df2:	d9 01       	movw	r26, r18
    2df4:	2d 91       	ld	r18, X+
    2df6:	3c 91       	ld	r19, X
    2df8:	fc 01       	movw	r30, r24
    2dfa:	31 83       	std	Z+1, r19	; 0x01
    2dfc:	20 83       	st	Z, r18

00002dfe <.LBB246>:
    2dfe:	ce 01       	movw	r24, r28
    2e00:	83 51       	subi	r24, 0x13	; 19
    2e02:	9f 4f       	sbci	r25, 0xFF	; 255
    2e04:	dc 01       	movw	r26, r24
    2e06:	8d 91       	ld	r24, X+
    2e08:	9c 91       	ld	r25, X

00002e0a <.L1^B35>:
    2e0a:	01 97       	sbiw	r24, 0x01	; 1
    2e0c:	f1 f7       	brne	.-4      	; 0x2e0a <.L1^B35>
    2e0e:	9e 01       	movw	r18, r28
    2e10:	23 51       	subi	r18, 0x13	; 19
    2e12:	3f 4f       	sbci	r19, 0xFF	; 255
    2e14:	f9 01       	movw	r30, r18
    2e16:	91 83       	std	Z+1, r25	; 0x01
    2e18:	80 83       	st	Z, r24

00002e1a <.Loc.611>:
	...

00002e1c <.L212>:
                            {
                                _delay_ms(30);
                                knop4_ingedrukt = 0;
    2e1c:	10 92 1f 02 	sts	0x021F, r1	; 0x80021f <knop4_ingedrukt+0x1>
    2e20:	10 92 1e 02 	sts	0x021E, r1	; 0x80021e <knop4_ingedrukt>

00002e24 <.L196>:
                            }
                        }
                Refresh();
    2e24:	0e 94 2c 03 	call	0x658	; 0x658 <Refresh>

00002e28 <.Loc.614>:
                }break;
    2e28:	0c 94 1f 1f 	jmp	0x3e3e	; 0x3e3e <.L44>

00002e2c <.L52>:


                case 30:{ //Beneden om te pakken
                    PORTA = ~(1 << (PA4));//Z-as aan
    2e2c:	82 e2       	ldi	r24, 0x22	; 34
    2e2e:	90 e0       	ldi	r25, 0x00	; 0

00002e30 <.Loc.616>:
    2e30:	2f ee       	ldi	r18, 0xEF	; 239
    2e32:	dc 01       	movw	r26, r24
    2e34:	2c 93       	st	X, r18

00002e36 <.Loc.617>:
                    PORTB ^= (1 << PB5); //Debug Light Z-as
    2e36:	85 e2       	ldi	r24, 0x25	; 37
    2e38:	90 e0       	ldi	r25, 0x00	; 0
    2e3a:	fc 01       	movw	r30, r24
    2e3c:	30 81       	ld	r19, Z
    2e3e:	85 e2       	ldi	r24, 0x25	; 37
    2e40:	90 e0       	ldi	r25, 0x00	; 0

00002e42 <.Loc.618>:
    2e42:	20 e2       	ldi	r18, 0x20	; 32
    2e44:	23 27       	eor	r18, r19
    2e46:	dc 01       	movw	r26, r24
    2e48:	2c 93       	st	X, r18

00002e4a <.Loc.619>:

                    h_bridge_set_percentage(20);
    2e4a:	84 e1       	ldi	r24, 0x14	; 20
    2e4c:	0e 94 bd 01 	call	0x37a	; 0x37a <h_bridge_set_percentage>
    2e50:	9e 01       	movw	r18, r28
    2e52:	21 51       	subi	r18, 0x11	; 17
    2e54:	3f 4f       	sbci	r19, 0xFF	; 255
    2e56:	80 e0       	ldi	r24, 0x00	; 0
    2e58:	90 e8       	ldi	r25, 0x80	; 128
    2e5a:	ab eb       	ldi	r26, 0xBB	; 187
    2e5c:	b4 e4       	ldi	r27, 0x44	; 68
    2e5e:	f9 01       	movw	r30, r18
    2e60:	80 83       	st	Z, r24
    2e62:	91 83       	std	Z+1, r25	; 0x01
    2e64:	a2 83       	std	Z+2, r26	; 0x02
    2e66:	b3 83       	std	Z+3, r27	; 0x03

00002e68 <.LBB248>:
	__tmp = ((F_CPU) / 4e3) * __ms;
    2e68:	8e 01       	movw	r16, r28
    2e6a:	0d 50       	subi	r16, 0x0D	; 13
    2e6c:	1f 4f       	sbci	r17, 0xFF	; 255
    2e6e:	ce 01       	movw	r24, r28
    2e70:	81 51       	subi	r24, 0x11	; 17
    2e72:	9f 4f       	sbci	r25, 0xFF	; 255
    2e74:	20 e0       	ldi	r18, 0x00	; 0
    2e76:	30 e0       	ldi	r19, 0x00	; 0
    2e78:	4a e7       	ldi	r20, 0x7A	; 122
    2e7a:	55 e4       	ldi	r21, 0x45	; 69
    2e7c:	dc 01       	movw	r26, r24
    2e7e:	6d 91       	ld	r22, X+
    2e80:	7d 91       	ld	r23, X+
    2e82:	8d 91       	ld	r24, X+
    2e84:	9c 91       	ld	r25, X
    2e86:	0e 94 14 20 	call	0x4028	; 0x4028 <__mulsf3>
    2e8a:	c1 55       	subi	r28, 0x51	; 81
    2e8c:	dd 4f       	sbci	r29, 0xFD	; 253
    2e8e:	68 83       	st	Y, r22
    2e90:	79 83       	std	Y+1, r23	; 0x01
    2e92:	8a 83       	std	Y+2, r24	; 0x02
    2e94:	9b 83       	std	Y+3, r25	; 0x03
    2e96:	cf 5a       	subi	r28, 0xAF	; 175
    2e98:	d2 40       	sbci	r29, 0x02	; 2
    2e9a:	c1 55       	subi	r28, 0x51	; 81
    2e9c:	dd 4f       	sbci	r29, 0xFD	; 253
    2e9e:	28 81       	ld	r18, Y
    2ea0:	39 81       	ldd	r19, Y+1	; 0x01
    2ea2:	4a 81       	ldd	r20, Y+2	; 0x02
    2ea4:	5b 81       	ldd	r21, Y+3	; 0x03
    2ea6:	cf 5a       	subi	r28, 0xAF	; 175
    2ea8:	d2 40       	sbci	r29, 0x02	; 2
    2eaa:	d8 01       	movw	r26, r16
    2eac:	2d 93       	st	X+, r18
    2eae:	3d 93       	st	X+, r19
    2eb0:	4d 93       	st	X+, r20
    2eb2:	5c 93       	st	X, r21
    2eb4:	13 97       	sbiw	r26, 0x03	; 3

00002eb6 <.Loc.621>:
	if (__tmp < 1.0)
    2eb6:	ce 01       	movw	r24, r28
    2eb8:	8d 50       	subi	r24, 0x0D	; 13
    2eba:	9f 4f       	sbci	r25, 0xFF	; 255
    2ebc:	20 e0       	ldi	r18, 0x00	; 0
    2ebe:	30 e0       	ldi	r19, 0x00	; 0
    2ec0:	40 e8       	ldi	r20, 0x80	; 128
    2ec2:	5f e3       	ldi	r21, 0x3F	; 63
    2ec4:	fc 01       	movw	r30, r24
    2ec6:	60 81       	ld	r22, Z
    2ec8:	71 81       	ldd	r23, Z+1	; 0x01
    2eca:	82 81       	ldd	r24, Z+2	; 0x02
    2ecc:	93 81       	ldd	r25, Z+3	; 0x03
    2ece:	0e 94 8e 1f 	call	0x3f1c	; 0x3f1c <__cmpsf2>
    2ed2:	88 23       	and	r24, r24
    2ed4:	54 f4       	brge	.+20     	; 0x2eea <.L354>

00002ed6 <.Loc.622>:
		__ticks = 1;
    2ed6:	ce 01       	movw	r24, r28
    2ed8:	89 50       	subi	r24, 0x09	; 9
    2eda:	9f 4f       	sbci	r25, 0xFF	; 255
    2edc:	21 e0       	ldi	r18, 0x01	; 1
    2ede:	30 e0       	ldi	r19, 0x00	; 0
    2ee0:	dc 01       	movw	r26, r24
    2ee2:	11 96       	adiw	r26, 0x01	; 1
    2ee4:	3c 93       	st	X, r19
    2ee6:	2e 93       	st	-X, r18
    2ee8:	a5 c0       	rjmp	.+330    	; 0x3034 <.L215>

00002eea <.L354>:
	else if (__tmp > 65535)
    2eea:	ce 01       	movw	r24, r28
    2eec:	8d 50       	subi	r24, 0x0D	; 13
    2eee:	9f 4f       	sbci	r25, 0xFF	; 255
    2ef0:	20 e0       	ldi	r18, 0x00	; 0
    2ef2:	3f ef       	ldi	r19, 0xFF	; 255
    2ef4:	4f e7       	ldi	r20, 0x7F	; 127
    2ef6:	57 e4       	ldi	r21, 0x47	; 71
    2ef8:	fc 01       	movw	r30, r24
    2efa:	60 81       	ld	r22, Z
    2efc:	71 81       	ldd	r23, Z+1	; 0x01
    2efe:	82 81       	ldd	r24, Z+2	; 0x02
    2f00:	93 81       	ldd	r25, Z+3	; 0x03
    2f02:	0e 94 0f 20 	call	0x401e	; 0x401e <__gesf2>
    2f06:	88 23       	and	r24, r24
    2f08:	09 f0       	breq	.+2      	; 0x2f0c <L0^A>

00002f0a <L0^A>:
    2f0a:	0c f4       	brge	.+2      	; 0x2f0e <.Loc.624>

00002f0c <L0^A>:
    2f0c:	75 c0       	rjmp	.+234    	; 0x2ff8 <.L355>

00002f0e <.Loc.624>:
		__ticks = (uint16_t) (__ms * 10.0);
    2f0e:	ce 01       	movw	r24, r28
    2f10:	81 51       	subi	r24, 0x11	; 17
    2f12:	9f 4f       	sbci	r25, 0xFF	; 255
    2f14:	20 e0       	ldi	r18, 0x00	; 0
    2f16:	30 e0       	ldi	r19, 0x00	; 0
    2f18:	40 e2       	ldi	r20, 0x20	; 32
    2f1a:	51 e4       	ldi	r21, 0x41	; 65
    2f1c:	dc 01       	movw	r26, r24
    2f1e:	6d 91       	ld	r22, X+
    2f20:	7d 91       	ld	r23, X+
    2f22:	8d 91       	ld	r24, X+
    2f24:	9c 91       	ld	r25, X
    2f26:	0e 94 14 20 	call	0x4028	; 0x4028 <__mulsf3>
    2f2a:	cd 54       	subi	r28, 0x4D	; 77
    2f2c:	dd 4f       	sbci	r29, 0xFD	; 253
    2f2e:	68 83       	st	Y, r22
    2f30:	79 83       	std	Y+1, r23	; 0x01
    2f32:	8a 83       	std	Y+2, r24	; 0x02
    2f34:	9b 83       	std	Y+3, r25	; 0x03
    2f36:	c3 5b       	subi	r28, 0xB3	; 179
    2f38:	d2 40       	sbci	r29, 0x02	; 2
    2f3a:	cd 54       	subi	r28, 0x4D	; 77
    2f3c:	dd 4f       	sbci	r29, 0xFD	; 253
    2f3e:	28 81       	ld	r18, Y
    2f40:	39 81       	ldd	r19, Y+1	; 0x01
    2f42:	4a 81       	ldd	r20, Y+2	; 0x02
    2f44:	5b 81       	ldd	r21, Y+3	; 0x03
    2f46:	c3 5b       	subi	r28, 0xB3	; 179
    2f48:	d2 40       	sbci	r29, 0x02	; 2
    2f4a:	c9 57       	subi	r28, 0x79	; 121
    2f4c:	de 4f       	sbci	r29, 0xFE	; 254
    2f4e:	28 83       	st	Y, r18
    2f50:	39 83       	std	Y+1, r19	; 0x01
    2f52:	4a 83       	std	Y+2, r20	; 0x02
    2f54:	5b 83       	std	Y+3, r21	; 0x03
    2f56:	c7 58       	subi	r28, 0x87	; 135
    2f58:	d1 40       	sbci	r29, 0x01	; 1

00002f5a <.Loc.625>:
    2f5a:	8e 01       	movw	r16, r28
    2f5c:	09 50       	subi	r16, 0x09	; 9
    2f5e:	1f 4f       	sbci	r17, 0xFF	; 255
    2f60:	c9 57       	subi	r28, 0x79	; 121
    2f62:	de 4f       	sbci	r29, 0xFE	; 254
    2f64:	68 81       	ld	r22, Y
    2f66:	79 81       	ldd	r23, Y+1	; 0x01
    2f68:	8a 81       	ldd	r24, Y+2	; 0x02
    2f6a:	9b 81       	ldd	r25, Y+3	; 0x03
    2f6c:	c7 58       	subi	r28, 0x87	; 135
    2f6e:	d1 40       	sbci	r29, 0x01	; 1
    2f70:	0e 94 93 1f 	call	0x3f26	; 0x3f26 <__fixunssfsi>
    2f74:	c9 54       	subi	r28, 0x49	; 73
    2f76:	dd 4f       	sbci	r29, 0xFD	; 253
    2f78:	68 83       	st	Y, r22
    2f7a:	79 83       	std	Y+1, r23	; 0x01
    2f7c:	8a 83       	std	Y+2, r24	; 0x02
    2f7e:	9b 83       	std	Y+3, r25	; 0x03
    2f80:	c7 5b       	subi	r28, 0xB7	; 183
    2f82:	d2 40       	sbci	r29, 0x02	; 2
    2f84:	c9 54       	subi	r28, 0x49	; 73
    2f86:	dd 4f       	sbci	r29, 0xFD	; 253
    2f88:	e8 81       	ld	r30, Y
    2f8a:	f9 81       	ldd	r31, Y+1	; 0x01
    2f8c:	c7 5b       	subi	r28, 0xB7	; 183
    2f8e:	d2 40       	sbci	r29, 0x02	; 2
    2f90:	d8 01       	movw	r26, r16
    2f92:	11 96       	adiw	r26, 0x01	; 1
    2f94:	fc 93       	st	X, r31
    2f96:	ee 93       	st	-X, r30

00002f98 <.Loc.626>:
		while(__ticks)
    2f98:	26 c0       	rjmp	.+76     	; 0x2fe6 <.L218>

00002f9a <.L219>:
    2f9a:	ce 01       	movw	r24, r28
    2f9c:	87 50       	subi	r24, 0x07	; 7
    2f9e:	9f 4f       	sbci	r25, 0xFF	; 255
    2fa0:	20 e9       	ldi	r18, 0x90	; 144
    2fa2:	31 e0       	ldi	r19, 0x01	; 1
    2fa4:	dc 01       	movw	r26, r24
    2fa6:	2d 93       	st	X+, r18
    2fa8:	3c 93       	st	X, r19

00002faa <.LBB250>:
    2faa:	ce 01       	movw	r24, r28
    2fac:	87 50       	subi	r24, 0x07	; 7
    2fae:	9f 4f       	sbci	r25, 0xFF	; 255
    2fb0:	fc 01       	movw	r30, r24
    2fb2:	80 81       	ld	r24, Z
    2fb4:	91 81       	ldd	r25, Z+1	; 0x01

00002fb6 <.L1^B36>:
    2fb6:	01 97       	sbiw	r24, 0x01	; 1
    2fb8:	f1 f7       	brne	.-4      	; 0x2fb6 <.L1^B36>
    2fba:	9e 01       	movw	r18, r28
    2fbc:	27 50       	subi	r18, 0x07	; 7
    2fbe:	3f 4f       	sbci	r19, 0xFF	; 255
    2fc0:	d9 01       	movw	r26, r18
    2fc2:	8d 93       	st	X+, r24
    2fc4:	9c 93       	st	X, r25

00002fc6 <.Loc.628>:
	...

00002fc8 <.LBE250>:
			__ticks --;
    2fc8:	ce 01       	movw	r24, r28
    2fca:	89 50       	subi	r24, 0x09	; 9
    2fcc:	9f 4f       	sbci	r25, 0xFF	; 255
    2fce:	9e 01       	movw	r18, r28
    2fd0:	29 50       	subi	r18, 0x09	; 9
    2fd2:	3f 4f       	sbci	r19, 0xFF	; 255
    2fd4:	f9 01       	movw	r30, r18
    2fd6:	20 81       	ld	r18, Z
    2fd8:	31 81       	ldd	r19, Z+1	; 0x01
    2fda:	21 50       	subi	r18, 0x01	; 1
    2fdc:	31 09       	sbc	r19, r1
    2fde:	dc 01       	movw	r26, r24
    2fe0:	11 96       	adiw	r26, 0x01	; 1
    2fe2:	3c 93       	st	X, r19
    2fe4:	2e 93       	st	-X, r18

00002fe6 <.L218>:
		while(__ticks)
    2fe6:	ce 01       	movw	r24, r28
    2fe8:	89 50       	subi	r24, 0x09	; 9
    2fea:	9f 4f       	sbci	r25, 0xFF	; 255
    2fec:	fc 01       	movw	r30, r24
    2fee:	80 81       	ld	r24, Z
    2ff0:	91 81       	ldd	r25, Z+1	; 0x01
    2ff2:	00 97       	sbiw	r24, 0x00	; 0
    2ff4:	91 f6       	brne	.-92     	; 0x2f9a <.L219>

00002ff6 <.Loc.631>:
		return;
    2ff6:	39 c0       	rjmp	.+114    	; 0x306a <.L220>

00002ff8 <.L355>:
		__ticks = (uint16_t)__tmp;
    2ff8:	8e 01       	movw	r16, r28
    2ffa:	09 50       	subi	r16, 0x09	; 9
    2ffc:	1f 4f       	sbci	r17, 0xFF	; 255
    2ffe:	ce 01       	movw	r24, r28
    3000:	8d 50       	subi	r24, 0x0D	; 13
    3002:	9f 4f       	sbci	r25, 0xFF	; 255
    3004:	dc 01       	movw	r26, r24
    3006:	6d 91       	ld	r22, X+
    3008:	7d 91       	ld	r23, X+
    300a:	8d 91       	ld	r24, X+
    300c:	9c 91       	ld	r25, X
    300e:	0e 94 93 1f 	call	0x3f26	; 0x3f26 <__fixunssfsi>
    3012:	c5 54       	subi	r28, 0x45	; 69
    3014:	dd 4f       	sbci	r29, 0xFD	; 253
    3016:	68 83       	st	Y, r22
    3018:	79 83       	std	Y+1, r23	; 0x01
    301a:	8a 83       	std	Y+2, r24	; 0x02
    301c:	9b 83       	std	Y+3, r25	; 0x03
    301e:	cb 5b       	subi	r28, 0xBB	; 187
    3020:	d2 40       	sbci	r29, 0x02	; 2
    3022:	c5 54       	subi	r28, 0x45	; 69
    3024:	dd 4f       	sbci	r29, 0xFD	; 253
    3026:	28 81       	ld	r18, Y
    3028:	39 81       	ldd	r19, Y+1	; 0x01
    302a:	cb 5b       	subi	r28, 0xBB	; 187
    302c:	d2 40       	sbci	r29, 0x02	; 2
    302e:	f8 01       	movw	r30, r16
    3030:	31 83       	std	Z+1, r19	; 0x01
    3032:	20 83       	st	Z, r18

00003034 <.L215>:
    3034:	ce 01       	movw	r24, r28
    3036:	85 50       	subi	r24, 0x05	; 5
    3038:	9f 4f       	sbci	r25, 0xFF	; 255
    303a:	9e 01       	movw	r18, r28
    303c:	29 50       	subi	r18, 0x09	; 9
    303e:	3f 4f       	sbci	r19, 0xFF	; 255
    3040:	d9 01       	movw	r26, r18
    3042:	2d 91       	ld	r18, X+
    3044:	3c 91       	ld	r19, X
    3046:	fc 01       	movw	r30, r24
    3048:	31 83       	std	Z+1, r19	; 0x01
    304a:	20 83       	st	Z, r18

0000304c <.LBB252>:
    304c:	ce 01       	movw	r24, r28
    304e:	85 50       	subi	r24, 0x05	; 5
    3050:	9f 4f       	sbci	r25, 0xFF	; 255
    3052:	dc 01       	movw	r26, r24
    3054:	8d 91       	ld	r24, X+
    3056:	9c 91       	ld	r25, X

00003058 <.L1^B37>:
    3058:	01 97       	sbiw	r24, 0x01	; 1
    305a:	f1 f7       	brne	.-4      	; 0x3058 <.L1^B37>
    305c:	9e 01       	movw	r18, r28
    305e:	25 50       	subi	r18, 0x05	; 5
    3060:	3f 4f       	sbci	r19, 0xFF	; 255
    3062:	f9 01       	movw	r30, r18
    3064:	91 83       	std	Z+1, r25	; 0x01
    3066:	80 83       	st	Z, r24

00003068 <.Loc.634>:
	...

0000306a <.L220>:
                    _delay_ms(1500);//Yeag replace this with a timer instead in the final release.
                    h_bridge_set_percentage(0);
    306a:	80 e0       	ldi	r24, 0x00	; 0
    306c:	0e 94 bd 01 	call	0x37a	; 0x37a <h_bridge_set_percentage>

00003070 <.Loc.636>:

                    PORTA = (1 << (PA1));//Magneet kleeft weer
    3070:	82 e2       	ldi	r24, 0x22	; 34
    3072:	90 e0       	ldi	r25, 0x00	; 0

00003074 <.Loc.637>:
    3074:	22 e0       	ldi	r18, 0x02	; 2
    3076:	dc 01       	movw	r26, r24
    3078:	2c 93       	st	X, r18

0000307a <.Loc.638>:
                    PORTB ^= (1 << PB4); //Debug Light Magnet
    307a:	85 e2       	ldi	r24, 0x25	; 37
    307c:	90 e0       	ldi	r25, 0x00	; 0
    307e:	fc 01       	movw	r30, r24
    3080:	30 81       	ld	r19, Z
    3082:	85 e2       	ldi	r24, 0x25	; 37
    3084:	90 e0       	ldi	r25, 0x00	; 0

00003086 <.Loc.639>:
    3086:	20 e1       	ldi	r18, 0x10	; 16
    3088:	23 27       	eor	r18, r19
    308a:	dc 01       	movw	r26, r24
    308c:	2c 93       	st	X, r18

0000308e <.Loc.640>:

                    MenuLayer = 35;
    308e:	83 e2       	ldi	r24, 0x23	; 35
    3090:	90 e0       	ldi	r25, 0x00	; 0
    3092:	90 93 01 02 	sts	0x0201, r25	; 0x800201 <MenuLayer+0x1>
    3096:	80 93 00 02 	sts	0x0200, r24	; 0x800200 <MenuLayer>

0000309a <.Loc.641>:
                }break;
    309a:	d1 c6       	rjmp	.+3490   	; 0x3e3e <.L44>

0000309c <.L51>:

                case 35:{ //Homhoog met cargo
                    h_bridge_set_percentage(-20);
    309c:	8c ee       	ldi	r24, 0xEC	; 236
    309e:	0e 94 bd 01 	call	0x37a	; 0x37a <h_bridge_set_percentage>

000030a2 <.Loc.643>:
                        if (PINC & (1 << PC2)) {
    30a2:	86 e2       	ldi	r24, 0x26	; 38
    30a4:	90 e0       	ldi	r25, 0x00	; 0
    30a6:	fc 01       	movw	r30, r24
    30a8:	80 81       	ld	r24, Z

000030aa <.Loc.644>:
    30aa:	88 2f       	mov	r24, r24
    30ac:	90 e0       	ldi	r25, 0x00	; 0
    30ae:	84 70       	andi	r24, 0x04	; 4
    30b0:	99 27       	eor	r25, r25

000030b2 <.Loc.645>:
    30b2:	00 97       	sbiw	r24, 0x00	; 0
    30b4:	09 f4       	brne	.+2      	; 0x30b8 <.Loc.646>

000030b6 <L0^A>:
    30b6:	bf c6       	rjmp	.+3454   	; 0x3e36 <.L369>

000030b8 <.Loc.646>:
                            h_bridge_set_percentage(0);
    30b8:	80 e0       	ldi	r24, 0x00	; 0
    30ba:	0e 94 bd 01 	call	0x37a	; 0x37a <h_bridge_set_percentage>

000030be <.Loc.647>:

                            PORTA = (1 << PA4);//Switch Relais off of Z-as.
    30be:	82 e2       	ldi	r24, 0x22	; 34
    30c0:	90 e0       	ldi	r25, 0x00	; 0

000030c2 <.Loc.648>:
    30c2:	20 e1       	ldi	r18, 0x10	; 16
    30c4:	dc 01       	movw	r26, r24
    30c6:	2c 93       	st	X, r18

000030c8 <.Loc.649>:
                            PORTB ^= (1 << PB5); //Debug Light Z-as
    30c8:	85 e2       	ldi	r24, 0x25	; 37
    30ca:	90 e0       	ldi	r25, 0x00	; 0
    30cc:	fc 01       	movw	r30, r24
    30ce:	30 81       	ld	r19, Z
    30d0:	85 e2       	ldi	r24, 0x25	; 37
    30d2:	90 e0       	ldi	r25, 0x00	; 0

000030d4 <.Loc.650>:
    30d4:	20 e2       	ldi	r18, 0x20	; 32
    30d6:	23 27       	eor	r18, r19
    30d8:	dc 01       	movw	r26, r24
    30da:	2c 93       	st	X, r18

000030dc <.Loc.651>:
                            MenuLayer = 40;
    30dc:	88 e2       	ldi	r24, 0x28	; 40
    30de:	90 e0       	ldi	r25, 0x00	; 0
    30e0:	90 93 01 02 	sts	0x0201, r25	; 0x800201 <MenuLayer+0x1>
    30e4:	80 93 00 02 	sts	0x0200, r24	; 0x800200 <MenuLayer>

000030e8 <.Loc.652>:
                            }
                }break;
    30e8:	a6 c6       	rjmp	.+3404   	; 0x3e36 <.L369>

000030ea <.L50>:


                case 40:{ //go Y
                    DisplayState = 'Y';
    30ea:	89 e5       	ldi	r24, 0x59	; 89
    30ec:	80 93 06 02 	sts	0x0206, r24	; 0x800206 <DisplayState>

000030f0 <.Loc.654>:

                    PORTA = ~(1 << PA2);
    30f0:	82 e2       	ldi	r24, 0x22	; 34
    30f2:	90 e0       	ldi	r25, 0x00	; 0

000030f4 <.Loc.655>:
    30f4:	2b ef       	ldi	r18, 0xFB	; 251
    30f6:	fc 01       	movw	r30, r24
    30f8:	20 83       	st	Z, r18

000030fa <.Loc.656>:
                    PORTB ^= (1 << PB6); //Debug Light Y-as
    30fa:	85 e2       	ldi	r24, 0x25	; 37
    30fc:	90 e0       	ldi	r25, 0x00	; 0
    30fe:	dc 01       	movw	r26, r24
    3100:	3c 91       	ld	r19, X
    3102:	85 e2       	ldi	r24, 0x25	; 37
    3104:	90 e0       	ldi	r25, 0x00	; 0

00003106 <.Loc.657>:
    3106:	20 e4       	ldi	r18, 0x40	; 64
    3108:	23 27       	eor	r18, r19
    310a:	fc 01       	movw	r30, r24
    310c:	20 83       	st	Z, r18

0000310e <.Loc.658>:
                    if(StepCounterY <= 1)
    310e:	80 91 02 02 	lds	r24, 0x0202	; 0x800202 <StepCounterY>
    3112:	90 91 03 02 	lds	r25, 0x0203	; 0x800203 <StepCounterY+0x1>

00003116 <.Loc.659>:
    3116:	81 30       	cpi	r24, 0x01	; 1
    3118:	91 05       	cpc	r25, r1
    311a:	09 f0       	breq	.+2      	; 0x311e <.Loc.660>

0000311c <L0^A>:
    311c:	24 f4       	brge	.+8      	; 0x3126 <.L222>

0000311e <.Loc.660>:
                    {
                        h_bridge_set_percentage(12); //Deze zijn [pos]atief sinds dat van de eindswitch af gaat.
    311e:	8c e0       	ldi	r24, 0x0C	; 12
    3120:	0e 94 bd 01 	call	0x37a	; 0x37a <h_bridge_set_percentage>
    3124:	03 c0       	rjmp	.+6      	; 0x312c <.L223>

00003126 <.L222>:
                    }
                    else
                    {
                         h_bridge_set_percentage(25);
    3126:	89 e1       	ldi	r24, 0x19	; 25
    3128:	0e 94 bd 01 	call	0x37a	; 0x37a <h_bridge_set_percentage>

0000312c <.L223>:
                    }


                    if ((PINC & (1 << PC5)) == 0)
    312c:	86 e2       	ldi	r24, 0x26	; 38
    312e:	90 e0       	ldi	r25, 0x00	; 0
    3130:	dc 01       	movw	r26, r24
    3132:	8c 91       	ld	r24, X

00003134 <.Loc.663>:
    3134:	88 2f       	mov	r24, r24
    3136:	90 e0       	ldi	r25, 0x00	; 0
    3138:	80 72       	andi	r24, 0x20	; 32
    313a:	99 27       	eor	r25, r25

0000313c <.Loc.664>:
    313c:	00 97       	sbiw	r24, 0x00	; 0
    313e:	09 f0       	breq	.+2      	; 0x3142 <.Loc.665>

00003140 <L0^A>:
    3140:	25 c1       	rjmp	.+586    	; 0x338c <.L224>

00003142 <.Loc.665>:
                        {
                            if (knop1_ingedrukt == 0) // knop is niet al eerder ingedrukt
    3142:	80 91 18 02 	lds	r24, 0x0218	; 0x800218 <knop1_ingedrukt>
    3146:	90 91 19 02 	lds	r25, 0x0219	; 0x800219 <knop1_ingedrukt+0x1>

0000314a <.Loc.666>:
    314a:	00 97       	sbiw	r24, 0x00	; 0
    314c:	09 f0       	breq	.+2      	; 0x3150 <L0^A+0x2>

0000314e <L0^A>:
    314e:	37 c2       	rjmp	.+1134   	; 0x35be <.L225>
    3150:	9e 01       	movw	r18, r28
    3152:	23 50       	subi	r18, 0x03	; 3
    3154:	3f 4f       	sbci	r19, 0xFF	; 255
    3156:	80 e0       	ldi	r24, 0x00	; 0
    3158:	90 e0       	ldi	r25, 0x00	; 0
    315a:	a0 ef       	ldi	r26, 0xF0	; 240
    315c:	b1 e4       	ldi	r27, 0x41	; 65
    315e:	f9 01       	movw	r30, r18
    3160:	80 83       	st	Z, r24
    3162:	91 83       	std	Z+1, r25	; 0x01
    3164:	a2 83       	std	Z+2, r26	; 0x02
    3166:	b3 83       	std	Z+3, r27	; 0x03

00003168 <.LBB254>:
	__tmp = ((F_CPU) / 4e3) * __ms;
    3168:	8e 01       	movw	r16, r28
    316a:	0f 5f       	subi	r16, 0xFF	; 255
    316c:	1e 4f       	sbci	r17, 0xFE	; 254
    316e:	ce 01       	movw	r24, r28
    3170:	83 50       	subi	r24, 0x03	; 3
    3172:	9f 4f       	sbci	r25, 0xFF	; 255
    3174:	20 e0       	ldi	r18, 0x00	; 0
    3176:	30 e0       	ldi	r19, 0x00	; 0
    3178:	4a e7       	ldi	r20, 0x7A	; 122
    317a:	55 e4       	ldi	r21, 0x45	; 69
    317c:	dc 01       	movw	r26, r24
    317e:	6d 91       	ld	r22, X+
    3180:	7d 91       	ld	r23, X+
    3182:	8d 91       	ld	r24, X+
    3184:	9c 91       	ld	r25, X
    3186:	0e 94 14 20 	call	0x4028	; 0x4028 <__mulsf3>
    318a:	c1 54       	subi	r28, 0x41	; 65
    318c:	dd 4f       	sbci	r29, 0xFD	; 253
    318e:	68 83       	st	Y, r22
    3190:	79 83       	std	Y+1, r23	; 0x01
    3192:	8a 83       	std	Y+2, r24	; 0x02
    3194:	9b 83       	std	Y+3, r25	; 0x03
    3196:	cf 5b       	subi	r28, 0xBF	; 191
    3198:	d2 40       	sbci	r29, 0x02	; 2
    319a:	c1 54       	subi	r28, 0x41	; 65
    319c:	dd 4f       	sbci	r29, 0xFD	; 253
    319e:	28 81       	ld	r18, Y
    31a0:	39 81       	ldd	r19, Y+1	; 0x01
    31a2:	4a 81       	ldd	r20, Y+2	; 0x02
    31a4:	5b 81       	ldd	r21, Y+3	; 0x03
    31a6:	cf 5b       	subi	r28, 0xBF	; 191
    31a8:	d2 40       	sbci	r29, 0x02	; 2
    31aa:	d8 01       	movw	r26, r16
    31ac:	2d 93       	st	X+, r18
    31ae:	3d 93       	st	X+, r19
    31b0:	4d 93       	st	X+, r20
    31b2:	5c 93       	st	X, r21
    31b4:	13 97       	sbiw	r26, 0x03	; 3

000031b6 <.Loc.668>:
	if (__tmp < 1.0)
    31b6:	ce 01       	movw	r24, r28
    31b8:	8f 5f       	subi	r24, 0xFF	; 255
    31ba:	9e 4f       	sbci	r25, 0xFE	; 254
    31bc:	20 e0       	ldi	r18, 0x00	; 0
    31be:	30 e0       	ldi	r19, 0x00	; 0
    31c0:	40 e8       	ldi	r20, 0x80	; 128
    31c2:	5f e3       	ldi	r21, 0x3F	; 63
    31c4:	fc 01       	movw	r30, r24
    31c6:	60 81       	ld	r22, Z
    31c8:	71 81       	ldd	r23, Z+1	; 0x01
    31ca:	82 81       	ldd	r24, Z+2	; 0x02
    31cc:	93 81       	ldd	r25, Z+3	; 0x03
    31ce:	0e 94 8e 1f 	call	0x3f1c	; 0x3f1c <__cmpsf2>
    31d2:	88 23       	and	r24, r24
    31d4:	54 f4       	brge	.+20     	; 0x31ea <.L356>

000031d6 <.Loc.669>:
		__ticks = 1;
    31d6:	ce 01       	movw	r24, r28
    31d8:	8b 5f       	subi	r24, 0xFB	; 251
    31da:	9e 4f       	sbci	r25, 0xFE	; 254
    31dc:	21 e0       	ldi	r18, 0x01	; 1
    31de:	30 e0       	ldi	r19, 0x00	; 0
    31e0:	dc 01       	movw	r26, r24
    31e2:	11 96       	adiw	r26, 0x01	; 1
    31e4:	3c 93       	st	X, r19
    31e6:	2e 93       	st	-X, r18
    31e8:	a5 c0       	rjmp	.+330    	; 0x3334 <.L228>

000031ea <.L356>:
	else if (__tmp > 65535)
    31ea:	ce 01       	movw	r24, r28
    31ec:	8f 5f       	subi	r24, 0xFF	; 255
    31ee:	9e 4f       	sbci	r25, 0xFE	; 254
    31f0:	20 e0       	ldi	r18, 0x00	; 0
    31f2:	3f ef       	ldi	r19, 0xFF	; 255
    31f4:	4f e7       	ldi	r20, 0x7F	; 127
    31f6:	57 e4       	ldi	r21, 0x47	; 71
    31f8:	fc 01       	movw	r30, r24
    31fa:	60 81       	ld	r22, Z
    31fc:	71 81       	ldd	r23, Z+1	; 0x01
    31fe:	82 81       	ldd	r24, Z+2	; 0x02
    3200:	93 81       	ldd	r25, Z+3	; 0x03
    3202:	0e 94 0f 20 	call	0x401e	; 0x401e <__gesf2>
    3206:	88 23       	and	r24, r24
    3208:	09 f0       	breq	.+2      	; 0x320c <L0^A>

0000320a <L0^A>:
    320a:	0c f4       	brge	.+2      	; 0x320e <.Loc.671>

0000320c <L0^A>:
    320c:	75 c0       	rjmp	.+234    	; 0x32f8 <.L357>

0000320e <.Loc.671>:
		__ticks = (uint16_t) (__ms * 10.0);
    320e:	ce 01       	movw	r24, r28
    3210:	83 50       	subi	r24, 0x03	; 3
    3212:	9f 4f       	sbci	r25, 0xFF	; 255
    3214:	20 e0       	ldi	r18, 0x00	; 0
    3216:	30 e0       	ldi	r19, 0x00	; 0
    3218:	40 e2       	ldi	r20, 0x20	; 32
    321a:	51 e4       	ldi	r21, 0x41	; 65
    321c:	dc 01       	movw	r26, r24
    321e:	6d 91       	ld	r22, X+
    3220:	7d 91       	ld	r23, X+
    3222:	8d 91       	ld	r24, X+
    3224:	9c 91       	ld	r25, X
    3226:	0e 94 14 20 	call	0x4028	; 0x4028 <__mulsf3>
    322a:	cd 53       	subi	r28, 0x3D	; 61
    322c:	dd 4f       	sbci	r29, 0xFD	; 253
    322e:	68 83       	st	Y, r22
    3230:	79 83       	std	Y+1, r23	; 0x01
    3232:	8a 83       	std	Y+2, r24	; 0x02
    3234:	9b 83       	std	Y+3, r25	; 0x03
    3236:	c3 5c       	subi	r28, 0xC3	; 195
    3238:	d2 40       	sbci	r29, 0x02	; 2
    323a:	cd 53       	subi	r28, 0x3D	; 61
    323c:	dd 4f       	sbci	r29, 0xFD	; 253
    323e:	28 81       	ld	r18, Y
    3240:	39 81       	ldd	r19, Y+1	; 0x01
    3242:	4a 81       	ldd	r20, Y+2	; 0x02
    3244:	5b 81       	ldd	r21, Y+3	; 0x03
    3246:	c3 5c       	subi	r28, 0xC3	; 195
    3248:	d2 40       	sbci	r29, 0x02	; 2
    324a:	c5 57       	subi	r28, 0x75	; 117
    324c:	de 4f       	sbci	r29, 0xFE	; 254
    324e:	28 83       	st	Y, r18
    3250:	39 83       	std	Y+1, r19	; 0x01
    3252:	4a 83       	std	Y+2, r20	; 0x02
    3254:	5b 83       	std	Y+3, r21	; 0x03
    3256:	cb 58       	subi	r28, 0x8B	; 139
    3258:	d1 40       	sbci	r29, 0x01	; 1

0000325a <.Loc.672>:
    325a:	8e 01       	movw	r16, r28
    325c:	0b 5f       	subi	r16, 0xFB	; 251
    325e:	1e 4f       	sbci	r17, 0xFE	; 254
    3260:	c5 57       	subi	r28, 0x75	; 117
    3262:	de 4f       	sbci	r29, 0xFE	; 254
    3264:	68 81       	ld	r22, Y
    3266:	79 81       	ldd	r23, Y+1	; 0x01
    3268:	8a 81       	ldd	r24, Y+2	; 0x02
    326a:	9b 81       	ldd	r25, Y+3	; 0x03
    326c:	cb 58       	subi	r28, 0x8B	; 139
    326e:	d1 40       	sbci	r29, 0x01	; 1
    3270:	0e 94 93 1f 	call	0x3f26	; 0x3f26 <__fixunssfsi>
    3274:	c9 53       	subi	r28, 0x39	; 57
    3276:	dd 4f       	sbci	r29, 0xFD	; 253
    3278:	68 83       	st	Y, r22
    327a:	79 83       	std	Y+1, r23	; 0x01
    327c:	8a 83       	std	Y+2, r24	; 0x02
    327e:	9b 83       	std	Y+3, r25	; 0x03
    3280:	c7 5c       	subi	r28, 0xC7	; 199
    3282:	d2 40       	sbci	r29, 0x02	; 2
    3284:	c9 53       	subi	r28, 0x39	; 57
    3286:	dd 4f       	sbci	r29, 0xFD	; 253
    3288:	e8 81       	ld	r30, Y
    328a:	f9 81       	ldd	r31, Y+1	; 0x01
    328c:	c7 5c       	subi	r28, 0xC7	; 199
    328e:	d2 40       	sbci	r29, 0x02	; 2
    3290:	d8 01       	movw	r26, r16
    3292:	11 96       	adiw	r26, 0x01	; 1
    3294:	fc 93       	st	X, r31
    3296:	ee 93       	st	-X, r30

00003298 <.Loc.673>:
		while(__ticks)
    3298:	26 c0       	rjmp	.+76     	; 0x32e6 <.L231>

0000329a <.L232>:
    329a:	ce 01       	movw	r24, r28
    329c:	89 5f       	subi	r24, 0xF9	; 249
    329e:	9e 4f       	sbci	r25, 0xFE	; 254
    32a0:	20 e9       	ldi	r18, 0x90	; 144
    32a2:	31 e0       	ldi	r19, 0x01	; 1
    32a4:	dc 01       	movw	r26, r24
    32a6:	2d 93       	st	X+, r18
    32a8:	3c 93       	st	X, r19

000032aa <.LBB256>:
    32aa:	ce 01       	movw	r24, r28
    32ac:	89 5f       	subi	r24, 0xF9	; 249
    32ae:	9e 4f       	sbci	r25, 0xFE	; 254
    32b0:	fc 01       	movw	r30, r24
    32b2:	80 81       	ld	r24, Z
    32b4:	91 81       	ldd	r25, Z+1	; 0x01

000032b6 <.L1^B38>:
    32b6:	01 97       	sbiw	r24, 0x01	; 1
    32b8:	f1 f7       	brne	.-4      	; 0x32b6 <.L1^B38>
    32ba:	9e 01       	movw	r18, r28
    32bc:	29 5f       	subi	r18, 0xF9	; 249
    32be:	3e 4f       	sbci	r19, 0xFE	; 254
    32c0:	d9 01       	movw	r26, r18
    32c2:	8d 93       	st	X+, r24
    32c4:	9c 93       	st	X, r25

000032c6 <.Loc.675>:
	...

000032c8 <.LBE256>:
			__ticks --;
    32c8:	ce 01       	movw	r24, r28
    32ca:	8b 5f       	subi	r24, 0xFB	; 251
    32cc:	9e 4f       	sbci	r25, 0xFE	; 254
    32ce:	9e 01       	movw	r18, r28
    32d0:	2b 5f       	subi	r18, 0xFB	; 251
    32d2:	3e 4f       	sbci	r19, 0xFE	; 254
    32d4:	f9 01       	movw	r30, r18
    32d6:	20 81       	ld	r18, Z
    32d8:	31 81       	ldd	r19, Z+1	; 0x01
    32da:	21 50       	subi	r18, 0x01	; 1
    32dc:	31 09       	sbc	r19, r1
    32de:	dc 01       	movw	r26, r24
    32e0:	11 96       	adiw	r26, 0x01	; 1
    32e2:	3c 93       	st	X, r19
    32e4:	2e 93       	st	-X, r18

000032e6 <.L231>:
		while(__ticks)
    32e6:	ce 01       	movw	r24, r28
    32e8:	8b 5f       	subi	r24, 0xFB	; 251
    32ea:	9e 4f       	sbci	r25, 0xFE	; 254
    32ec:	fc 01       	movw	r30, r24
    32ee:	80 81       	ld	r24, Z
    32f0:	91 81       	ldd	r25, Z+1	; 0x01
    32f2:	00 97       	sbiw	r24, 0x00	; 0
    32f4:	91 f6       	brne	.-92     	; 0x329a <.L232>

000032f6 <.Loc.678>:
		return;
    32f6:	3a c0       	rjmp	.+116    	; 0x336c <.L233>

000032f8 <.L357>:
		__ticks = (uint16_t)__tmp;
    32f8:	8e 01       	movw	r16, r28
    32fa:	0b 5f       	subi	r16, 0xFB	; 251
    32fc:	1e 4f       	sbci	r17, 0xFE	; 254
    32fe:	ce 01       	movw	r24, r28
    3300:	8f 5f       	subi	r24, 0xFF	; 255
    3302:	9e 4f       	sbci	r25, 0xFE	; 254
    3304:	dc 01       	movw	r26, r24
    3306:	6d 91       	ld	r22, X+
    3308:	7d 91       	ld	r23, X+
    330a:	8d 91       	ld	r24, X+
    330c:	9c 91       	ld	r25, X
    330e:	0e 94 93 1f 	call	0x3f26	; 0x3f26 <__fixunssfsi>
    3312:	c5 53       	subi	r28, 0x35	; 53
    3314:	dd 4f       	sbci	r29, 0xFD	; 253
    3316:	68 83       	st	Y, r22
    3318:	79 83       	std	Y+1, r23	; 0x01
    331a:	8a 83       	std	Y+2, r24	; 0x02
    331c:	9b 83       	std	Y+3, r25	; 0x03
    331e:	cb 5c       	subi	r28, 0xCB	; 203
    3320:	d2 40       	sbci	r29, 0x02	; 2
    3322:	c5 53       	subi	r28, 0x35	; 53
    3324:	dd 4f       	sbci	r29, 0xFD	; 253
    3326:	28 81       	ld	r18, Y
    3328:	39 81       	ldd	r19, Y+1	; 0x01
    332a:	cb 5c       	subi	r28, 0xCB	; 203
    332c:	d2 40       	sbci	r29, 0x02	; 2
    332e:	f8 01       	movw	r30, r16
    3330:	31 83       	std	Z+1, r19	; 0x01
    3332:	20 83       	st	Z, r18

00003334 <.L228>:
    3334:	ce 01       	movw	r24, r28
    3336:	87 5f       	subi	r24, 0xF7	; 247
    3338:	9e 4f       	sbci	r25, 0xFE	; 254
    333a:	9e 01       	movw	r18, r28
    333c:	2b 5f       	subi	r18, 0xFB	; 251
    333e:	3e 4f       	sbci	r19, 0xFE	; 254
    3340:	d9 01       	movw	r26, r18
    3342:	2d 91       	ld	r18, X+
    3344:	3c 91       	ld	r19, X
    3346:	fc 01       	movw	r30, r24
    3348:	31 83       	std	Z+1, r19	; 0x01
    334a:	20 83       	st	Z, r18

0000334c <.LBB258>:
    334c:	ce 01       	movw	r24, r28
    334e:	87 5f       	subi	r24, 0xF7	; 247
    3350:	9e 4f       	sbci	r25, 0xFE	; 254
    3352:	dc 01       	movw	r26, r24
    3354:	8d 91       	ld	r24, X+
    3356:	9c 91       	ld	r25, X
    3358:	11 97       	sbiw	r26, 0x01	; 1

0000335a <.L1^B39>:
    335a:	01 97       	sbiw	r24, 0x01	; 1
    335c:	f1 f7       	brne	.-4      	; 0x335a <.L1^B39>
    335e:	9e 01       	movw	r18, r28
    3360:	27 5f       	subi	r18, 0xF7	; 247
    3362:	3e 4f       	sbci	r19, 0xFE	; 254
    3364:	f9 01       	movw	r30, r18
    3366:	91 83       	std	Z+1, r25	; 0x01
    3368:	80 83       	st	Z, r24

0000336a <.Loc.681>:
	...

0000336c <.L233>:
                            {
                                _delay_ms(30);//Fine-tune this also? do these switches need a different debouncing time or???
                                  StepCounterY -=  1;
    336c:	80 91 02 02 	lds	r24, 0x0202	; 0x800202 <StepCounterY>
    3370:	90 91 03 02 	lds	r25, 0x0203	; 0x800203 <StepCounterY+0x1>
    3374:	01 97       	sbiw	r24, 0x01	; 1
    3376:	90 93 03 02 	sts	0x0203, r25	; 0x800203 <StepCounterY+0x1>
    337a:	80 93 02 02 	sts	0x0202, r24	; 0x800202 <StepCounterY>

0000337e <.Loc.683>:
                                knop1_ingedrukt = 1;
    337e:	81 e0       	ldi	r24, 0x01	; 1
    3380:	90 e0       	ldi	r25, 0x00	; 0
    3382:	90 93 19 02 	sts	0x0219, r25	; 0x800219 <knop1_ingedrukt+0x1>
    3386:	80 93 18 02 	sts	0x0218, r24	; 0x800218 <knop1_ingedrukt>
    338a:	19 c1       	rjmp	.+562    	; 0x35be <.L225>

0000338c <.L224>:
                            }
                        }
                    else
                        {
                        if (knop1_ingedrukt != 0) // knop is zojuist losgelaten
    338c:	80 91 18 02 	lds	r24, 0x0218	; 0x800218 <knop1_ingedrukt>
    3390:	90 91 19 02 	lds	r25, 0x0219	; 0x800219 <knop1_ingedrukt+0x1>

00003394 <.Loc.685>:
    3394:	00 97       	sbiw	r24, 0x00	; 0
    3396:	09 f4       	brne	.+2      	; 0x339a <L0^A+0x2>

00003398 <L0^A>:
    3398:	12 c1       	rjmp	.+548    	; 0x35be <.L225>
    339a:	9e 01       	movw	r18, r28
    339c:	25 5f       	subi	r18, 0xF5	; 245
    339e:	3e 4f       	sbci	r19, 0xFE	; 254
    33a0:	80 e0       	ldi	r24, 0x00	; 0
    33a2:	90 e0       	ldi	r25, 0x00	; 0
    33a4:	a0 ef       	ldi	r26, 0xF0	; 240
    33a6:	b1 e4       	ldi	r27, 0x41	; 65
    33a8:	f9 01       	movw	r30, r18
    33aa:	80 83       	st	Z, r24
    33ac:	91 83       	std	Z+1, r25	; 0x01
    33ae:	a2 83       	std	Z+2, r26	; 0x02
    33b0:	b3 83       	std	Z+3, r27	; 0x03

000033b2 <.LBB260>:
	__tmp = ((F_CPU) / 4e3) * __ms;
    33b2:	8e 01       	movw	r16, r28
    33b4:	01 5f       	subi	r16, 0xF1	; 241
    33b6:	1e 4f       	sbci	r17, 0xFE	; 254
    33b8:	ce 01       	movw	r24, r28
    33ba:	85 5f       	subi	r24, 0xF5	; 245
    33bc:	9e 4f       	sbci	r25, 0xFE	; 254
    33be:	20 e0       	ldi	r18, 0x00	; 0
    33c0:	30 e0       	ldi	r19, 0x00	; 0
    33c2:	4a e7       	ldi	r20, 0x7A	; 122
    33c4:	55 e4       	ldi	r21, 0x45	; 69
    33c6:	dc 01       	movw	r26, r24
    33c8:	6d 91       	ld	r22, X+
    33ca:	7d 91       	ld	r23, X+
    33cc:	8d 91       	ld	r24, X+
    33ce:	9c 91       	ld	r25, X
    33d0:	0e 94 14 20 	call	0x4028	; 0x4028 <__mulsf3>
    33d4:	c1 53       	subi	r28, 0x31	; 49
    33d6:	dd 4f       	sbci	r29, 0xFD	; 253
    33d8:	68 83       	st	Y, r22
    33da:	79 83       	std	Y+1, r23	; 0x01
    33dc:	8a 83       	std	Y+2, r24	; 0x02
    33de:	9b 83       	std	Y+3, r25	; 0x03
    33e0:	cf 5c       	subi	r28, 0xCF	; 207
    33e2:	d2 40       	sbci	r29, 0x02	; 2
    33e4:	c1 53       	subi	r28, 0x31	; 49
    33e6:	dd 4f       	sbci	r29, 0xFD	; 253
    33e8:	28 81       	ld	r18, Y
    33ea:	39 81       	ldd	r19, Y+1	; 0x01
    33ec:	4a 81       	ldd	r20, Y+2	; 0x02
    33ee:	5b 81       	ldd	r21, Y+3	; 0x03
    33f0:	cf 5c       	subi	r28, 0xCF	; 207
    33f2:	d2 40       	sbci	r29, 0x02	; 2
    33f4:	d8 01       	movw	r26, r16
    33f6:	2d 93       	st	X+, r18
    33f8:	3d 93       	st	X+, r19
    33fa:	4d 93       	st	X+, r20
    33fc:	5c 93       	st	X, r21
    33fe:	13 97       	sbiw	r26, 0x03	; 3

00003400 <.Loc.687>:
	if (__tmp < 1.0)
    3400:	ce 01       	movw	r24, r28
    3402:	81 5f       	subi	r24, 0xF1	; 241
    3404:	9e 4f       	sbci	r25, 0xFE	; 254
    3406:	20 e0       	ldi	r18, 0x00	; 0
    3408:	30 e0       	ldi	r19, 0x00	; 0
    340a:	40 e8       	ldi	r20, 0x80	; 128
    340c:	5f e3       	ldi	r21, 0x3F	; 63
    340e:	fc 01       	movw	r30, r24
    3410:	60 81       	ld	r22, Z
    3412:	71 81       	ldd	r23, Z+1	; 0x01
    3414:	82 81       	ldd	r24, Z+2	; 0x02
    3416:	93 81       	ldd	r25, Z+3	; 0x03
    3418:	0e 94 8e 1f 	call	0x3f1c	; 0x3f1c <__cmpsf2>
    341c:	88 23       	and	r24, r24
    341e:	54 f4       	brge	.+20     	; 0x3434 <.L358>

00003420 <.Loc.688>:
		__ticks = 1;
    3420:	ce 01       	movw	r24, r28
    3422:	8d 5e       	subi	r24, 0xED	; 237
    3424:	9e 4f       	sbci	r25, 0xFE	; 254
    3426:	21 e0       	ldi	r18, 0x01	; 1
    3428:	30 e0       	ldi	r19, 0x00	; 0
    342a:	dc 01       	movw	r26, r24
    342c:	11 96       	adiw	r26, 0x01	; 1
    342e:	3c 93       	st	X, r19
    3430:	2e 93       	st	-X, r18
    3432:	a5 c0       	rjmp	.+330    	; 0x357e <.L236>

00003434 <.L358>:
	else if (__tmp > 65535)
    3434:	ce 01       	movw	r24, r28
    3436:	81 5f       	subi	r24, 0xF1	; 241
    3438:	9e 4f       	sbci	r25, 0xFE	; 254
    343a:	20 e0       	ldi	r18, 0x00	; 0
    343c:	3f ef       	ldi	r19, 0xFF	; 255
    343e:	4f e7       	ldi	r20, 0x7F	; 127
    3440:	57 e4       	ldi	r21, 0x47	; 71
    3442:	fc 01       	movw	r30, r24
    3444:	60 81       	ld	r22, Z
    3446:	71 81       	ldd	r23, Z+1	; 0x01
    3448:	82 81       	ldd	r24, Z+2	; 0x02
    344a:	93 81       	ldd	r25, Z+3	; 0x03
    344c:	0e 94 0f 20 	call	0x401e	; 0x401e <__gesf2>
    3450:	88 23       	and	r24, r24
    3452:	09 f0       	breq	.+2      	; 0x3456 <L0^A>

00003454 <L0^A>:
    3454:	0c f4       	brge	.+2      	; 0x3458 <.Loc.690>

00003456 <L0^A>:
    3456:	75 c0       	rjmp	.+234    	; 0x3542 <.L359>

00003458 <.Loc.690>:
		__ticks = (uint16_t) (__ms * 10.0);
    3458:	ce 01       	movw	r24, r28
    345a:	85 5f       	subi	r24, 0xF5	; 245
    345c:	9e 4f       	sbci	r25, 0xFE	; 254
    345e:	20 e0       	ldi	r18, 0x00	; 0
    3460:	30 e0       	ldi	r19, 0x00	; 0
    3462:	40 e2       	ldi	r20, 0x20	; 32
    3464:	51 e4       	ldi	r21, 0x41	; 65
    3466:	dc 01       	movw	r26, r24
    3468:	6d 91       	ld	r22, X+
    346a:	7d 91       	ld	r23, X+
    346c:	8d 91       	ld	r24, X+
    346e:	9c 91       	ld	r25, X
    3470:	0e 94 14 20 	call	0x4028	; 0x4028 <__mulsf3>
    3474:	cd 52       	subi	r28, 0x2D	; 45
    3476:	dd 4f       	sbci	r29, 0xFD	; 253
    3478:	68 83       	st	Y, r22
    347a:	79 83       	std	Y+1, r23	; 0x01
    347c:	8a 83       	std	Y+2, r24	; 0x02
    347e:	9b 83       	std	Y+3, r25	; 0x03
    3480:	c3 5d       	subi	r28, 0xD3	; 211
    3482:	d2 40       	sbci	r29, 0x02	; 2
    3484:	cd 52       	subi	r28, 0x2D	; 45
    3486:	dd 4f       	sbci	r29, 0xFD	; 253
    3488:	28 81       	ld	r18, Y
    348a:	39 81       	ldd	r19, Y+1	; 0x01
    348c:	4a 81       	ldd	r20, Y+2	; 0x02
    348e:	5b 81       	ldd	r21, Y+3	; 0x03
    3490:	c3 5d       	subi	r28, 0xD3	; 211
    3492:	d2 40       	sbci	r29, 0x02	; 2
    3494:	c1 57       	subi	r28, 0x71	; 113
    3496:	de 4f       	sbci	r29, 0xFE	; 254
    3498:	28 83       	st	Y, r18
    349a:	39 83       	std	Y+1, r19	; 0x01
    349c:	4a 83       	std	Y+2, r20	; 0x02
    349e:	5b 83       	std	Y+3, r21	; 0x03
    34a0:	cf 58       	subi	r28, 0x8F	; 143
    34a2:	d1 40       	sbci	r29, 0x01	; 1

000034a4 <.Loc.691>:
    34a4:	8e 01       	movw	r16, r28
    34a6:	0d 5e       	subi	r16, 0xED	; 237
    34a8:	1e 4f       	sbci	r17, 0xFE	; 254
    34aa:	c1 57       	subi	r28, 0x71	; 113
    34ac:	de 4f       	sbci	r29, 0xFE	; 254
    34ae:	68 81       	ld	r22, Y
    34b0:	79 81       	ldd	r23, Y+1	; 0x01
    34b2:	8a 81       	ldd	r24, Y+2	; 0x02
    34b4:	9b 81       	ldd	r25, Y+3	; 0x03
    34b6:	cf 58       	subi	r28, 0x8F	; 143
    34b8:	d1 40       	sbci	r29, 0x01	; 1
    34ba:	0e 94 93 1f 	call	0x3f26	; 0x3f26 <__fixunssfsi>
    34be:	c9 52       	subi	r28, 0x29	; 41
    34c0:	dd 4f       	sbci	r29, 0xFD	; 253
    34c2:	68 83       	st	Y, r22
    34c4:	79 83       	std	Y+1, r23	; 0x01
    34c6:	8a 83       	std	Y+2, r24	; 0x02
    34c8:	9b 83       	std	Y+3, r25	; 0x03
    34ca:	c7 5d       	subi	r28, 0xD7	; 215
    34cc:	d2 40       	sbci	r29, 0x02	; 2
    34ce:	c9 52       	subi	r28, 0x29	; 41
    34d0:	dd 4f       	sbci	r29, 0xFD	; 253
    34d2:	e8 81       	ld	r30, Y
    34d4:	f9 81       	ldd	r31, Y+1	; 0x01
    34d6:	c7 5d       	subi	r28, 0xD7	; 215
    34d8:	d2 40       	sbci	r29, 0x02	; 2
    34da:	d8 01       	movw	r26, r16
    34dc:	11 96       	adiw	r26, 0x01	; 1
    34de:	fc 93       	st	X, r31
    34e0:	ee 93       	st	-X, r30

000034e2 <.Loc.692>:
		while(__ticks)
    34e2:	26 c0       	rjmp	.+76     	; 0x3530 <.L239>

000034e4 <.L240>:
    34e4:	ce 01       	movw	r24, r28
    34e6:	8b 5e       	subi	r24, 0xEB	; 235
    34e8:	9e 4f       	sbci	r25, 0xFE	; 254
    34ea:	20 e9       	ldi	r18, 0x90	; 144
    34ec:	31 e0       	ldi	r19, 0x01	; 1
    34ee:	dc 01       	movw	r26, r24
    34f0:	2d 93       	st	X+, r18
    34f2:	3c 93       	st	X, r19

000034f4 <.LBB262>:
    34f4:	ce 01       	movw	r24, r28
    34f6:	8b 5e       	subi	r24, 0xEB	; 235
    34f8:	9e 4f       	sbci	r25, 0xFE	; 254
    34fa:	fc 01       	movw	r30, r24
    34fc:	80 81       	ld	r24, Z
    34fe:	91 81       	ldd	r25, Z+1	; 0x01

00003500 <.L1^B40>:
    3500:	01 97       	sbiw	r24, 0x01	; 1
    3502:	f1 f7       	brne	.-4      	; 0x3500 <.L1^B40>
    3504:	9e 01       	movw	r18, r28
    3506:	2b 5e       	subi	r18, 0xEB	; 235
    3508:	3e 4f       	sbci	r19, 0xFE	; 254
    350a:	d9 01       	movw	r26, r18
    350c:	8d 93       	st	X+, r24
    350e:	9c 93       	st	X, r25

00003510 <.Loc.694>:
	...

00003512 <.LBE262>:
			__ticks --;
    3512:	ce 01       	movw	r24, r28
    3514:	8d 5e       	subi	r24, 0xED	; 237
    3516:	9e 4f       	sbci	r25, 0xFE	; 254
    3518:	9e 01       	movw	r18, r28
    351a:	2d 5e       	subi	r18, 0xED	; 237
    351c:	3e 4f       	sbci	r19, 0xFE	; 254
    351e:	f9 01       	movw	r30, r18
    3520:	20 81       	ld	r18, Z
    3522:	31 81       	ldd	r19, Z+1	; 0x01
    3524:	21 50       	subi	r18, 0x01	; 1
    3526:	31 09       	sbc	r19, r1
    3528:	dc 01       	movw	r26, r24
    352a:	11 96       	adiw	r26, 0x01	; 1
    352c:	3c 93       	st	X, r19
    352e:	2e 93       	st	-X, r18

00003530 <.L239>:
		while(__ticks)
    3530:	ce 01       	movw	r24, r28
    3532:	8d 5e       	subi	r24, 0xED	; 237
    3534:	9e 4f       	sbci	r25, 0xFE	; 254
    3536:	fc 01       	movw	r30, r24
    3538:	80 81       	ld	r24, Z
    353a:	91 81       	ldd	r25, Z+1	; 0x01
    353c:	00 97       	sbiw	r24, 0x00	; 0
    353e:	91 f6       	brne	.-92     	; 0x34e4 <.L240>

00003540 <.Loc.697>:
		return;
    3540:	3a c0       	rjmp	.+116    	; 0x35b6 <.L241>

00003542 <.L359>:
		__ticks = (uint16_t)__tmp;
    3542:	8e 01       	movw	r16, r28
    3544:	0d 5e       	subi	r16, 0xED	; 237
    3546:	1e 4f       	sbci	r17, 0xFE	; 254
    3548:	ce 01       	movw	r24, r28
    354a:	81 5f       	subi	r24, 0xF1	; 241
    354c:	9e 4f       	sbci	r25, 0xFE	; 254
    354e:	dc 01       	movw	r26, r24
    3550:	6d 91       	ld	r22, X+
    3552:	7d 91       	ld	r23, X+
    3554:	8d 91       	ld	r24, X+
    3556:	9c 91       	ld	r25, X
    3558:	0e 94 93 1f 	call	0x3f26	; 0x3f26 <__fixunssfsi>
    355c:	c5 52       	subi	r28, 0x25	; 37
    355e:	dd 4f       	sbci	r29, 0xFD	; 253
    3560:	68 83       	st	Y, r22
    3562:	79 83       	std	Y+1, r23	; 0x01
    3564:	8a 83       	std	Y+2, r24	; 0x02
    3566:	9b 83       	std	Y+3, r25	; 0x03
    3568:	cb 5d       	subi	r28, 0xDB	; 219
    356a:	d2 40       	sbci	r29, 0x02	; 2
    356c:	c5 52       	subi	r28, 0x25	; 37
    356e:	dd 4f       	sbci	r29, 0xFD	; 253
    3570:	28 81       	ld	r18, Y
    3572:	39 81       	ldd	r19, Y+1	; 0x01
    3574:	cb 5d       	subi	r28, 0xDB	; 219
    3576:	d2 40       	sbci	r29, 0x02	; 2
    3578:	f8 01       	movw	r30, r16
    357a:	31 83       	std	Z+1, r19	; 0x01
    357c:	20 83       	st	Z, r18

0000357e <.L236>:
    357e:	ce 01       	movw	r24, r28
    3580:	89 5e       	subi	r24, 0xE9	; 233
    3582:	9e 4f       	sbci	r25, 0xFE	; 254
    3584:	9e 01       	movw	r18, r28
    3586:	2d 5e       	subi	r18, 0xED	; 237
    3588:	3e 4f       	sbci	r19, 0xFE	; 254
    358a:	d9 01       	movw	r26, r18
    358c:	2d 91       	ld	r18, X+
    358e:	3c 91       	ld	r19, X
    3590:	fc 01       	movw	r30, r24
    3592:	31 83       	std	Z+1, r19	; 0x01
    3594:	20 83       	st	Z, r18

00003596 <.LBB264>:
    3596:	ce 01       	movw	r24, r28
    3598:	89 5e       	subi	r24, 0xE9	; 233
    359a:	9e 4f       	sbci	r25, 0xFE	; 254
    359c:	dc 01       	movw	r26, r24
    359e:	8d 91       	ld	r24, X+
    35a0:	9c 91       	ld	r25, X
    35a2:	11 97       	sbiw	r26, 0x01	; 1

000035a4 <.L1^B41>:
    35a4:	01 97       	sbiw	r24, 0x01	; 1
    35a6:	f1 f7       	brne	.-4      	; 0x35a4 <.L1^B41>
    35a8:	9e 01       	movw	r18, r28
    35aa:	29 5e       	subi	r18, 0xE9	; 233
    35ac:	3e 4f       	sbci	r19, 0xFE	; 254
    35ae:	f9 01       	movw	r30, r18
    35b0:	91 83       	std	Z+1, r25	; 0x01
    35b2:	80 83       	st	Z, r24

000035b4 <.Loc.700>:
	...

000035b6 <.L241>:
                            {
                                _delay_ms(30);
                                knop1_ingedrukt = 0;
    35b6:	10 92 19 02 	sts	0x0219, r1	; 0x800219 <knop1_ingedrukt+0x1>
    35ba:	10 92 18 02 	sts	0x0218, r1	; 0x800218 <knop1_ingedrukt>

000035be <.L225>:
                            }
                        }

                    if(StepCounterY == 0)
    35be:	80 91 02 02 	lds	r24, 0x0202	; 0x800202 <StepCounterY>
    35c2:	90 91 03 02 	lds	r25, 0x0203	; 0x800203 <StepCounterY+0x1>

000035c6 <.Loc.703>:
    35c6:	00 97       	sbiw	r24, 0x00	; 0
    35c8:	d9 f4       	brne	.+54     	; 0x3600 <.L242>

000035ca <.Loc.704>:
                    {
                        MenuLayer = 50;
    35ca:	82 e3       	ldi	r24, 0x32	; 50
    35cc:	90 e0       	ldi	r25, 0x00	; 0
    35ce:	90 93 01 02 	sts	0x0201, r25	; 0x800201 <MenuLayer+0x1>
    35d2:	80 93 00 02 	sts	0x0200, r24	; 0x800200 <MenuLayer>

000035d6 <.Loc.705>:
                        h_bridge_set_percentage(0);
    35d6:	80 e0       	ldi	r24, 0x00	; 0
    35d8:	0e 94 bd 01 	call	0x37a	; 0x37a <h_bridge_set_percentage>

000035dc <.Loc.706>:
                        PORTA = (1 << PB6);
    35dc:	82 e2       	ldi	r24, 0x22	; 34
    35de:	90 e0       	ldi	r25, 0x00	; 0

000035e0 <.Loc.707>:
    35e0:	20 e4       	ldi	r18, 0x40	; 64
    35e2:	dc 01       	movw	r26, r24
    35e4:	2c 93       	st	X, r18

000035e6 <.Loc.708>:
                        PORTB ^= (1 << PB6); //Debug Light Y-as
    35e6:	85 e2       	ldi	r24, 0x25	; 37
    35e8:	90 e0       	ldi	r25, 0x00	; 0
    35ea:	fc 01       	movw	r30, r24
    35ec:	30 81       	ld	r19, Z
    35ee:	85 e2       	ldi	r24, 0x25	; 37
    35f0:	90 e0       	ldi	r25, 0x00	; 0

000035f2 <.Loc.709>:
    35f2:	20 e4       	ldi	r18, 0x40	; 64
    35f4:	23 27       	eor	r18, r19
    35f6:	dc 01       	movw	r26, r24
    35f8:	2c 93       	st	X, r18

000035fa <.Loc.710>:
                        h_bridge_set_percentage(0);
    35fa:	80 e0       	ldi	r24, 0x00	; 0
    35fc:	0e 94 bd 01 	call	0x37a	; 0x37a <h_bridge_set_percentage>

00003600 <.L242>:
                    }
                        n=StepCounterY;// Here for display purposes. Handy Debug Tool.
    3600:	80 91 02 02 	lds	r24, 0x0202	; 0x800202 <StepCounterY>
    3604:	90 91 03 02 	lds	r25, 0x0203	; 0x800203 <StepCounterY+0x1>
    3608:	90 93 13 02 	sts	0x0213, r25	; 0x800213 <n+0x1>
    360c:	80 93 12 02 	sts	0x0212, r24	; 0x800212 <n>

00003610 <.Loc.712>:
                        Refresh();
    3610:	0e 94 2c 03 	call	0x658	; 0x658 <Refresh>

00003614 <.Loc.713>:
                }break;
    3614:	14 c4       	rjmp	.+2088   	; 0x3e3e <.L44>

00003616 <.L49>:


                case 50:{ //Go X
                    DisplayState = 'X';
    3616:	88 e5       	ldi	r24, 0x58	; 88
    3618:	80 93 06 02 	sts	0x0206, r24	; 0x800206 <DisplayState>

0000361c <.Loc.715>:
                    PORTA = ~(1 << PA0);
    361c:	82 e2       	ldi	r24, 0x22	; 34
    361e:	90 e0       	ldi	r25, 0x00	; 0

00003620 <.Loc.716>:
    3620:	2e ef       	ldi	r18, 0xFE	; 254
    3622:	fc 01       	movw	r30, r24
    3624:	20 83       	st	Z, r18

00003626 <.Loc.717>:
                    PORTB ^= (1 << PB7); //Debug Light X-as
    3626:	85 e2       	ldi	r24, 0x25	; 37
    3628:	90 e0       	ldi	r25, 0x00	; 0
    362a:	dc 01       	movw	r26, r24
    362c:	3c 91       	ld	r19, X
    362e:	85 e2       	ldi	r24, 0x25	; 37
    3630:	90 e0       	ldi	r25, 0x00	; 0

00003632 <.Loc.718>:
    3632:	20 e8       	ldi	r18, 0x80	; 128
    3634:	23 27       	eor	r18, r19
    3636:	fc 01       	movw	r30, r24
    3638:	20 83       	st	Z, r18

0000363a <.Loc.719>:

                    if(StepCounterX <= 1)
    363a:	80 91 04 02 	lds	r24, 0x0204	; 0x800204 <StepCounterX>
    363e:	90 91 05 02 	lds	r25, 0x0205	; 0x800205 <StepCounterX+0x1>

00003642 <.Loc.720>:
    3642:	81 30       	cpi	r24, 0x01	; 1
    3644:	91 05       	cpc	r25, r1
    3646:	09 f0       	breq	.+2      	; 0x364a <.Loc.721>

00003648 <L0^A>:
    3648:	24 f4       	brge	.+8      	; 0x3652 <.L243>

0000364a <.Loc.721>:
                    {
                        h_bridge_set_percentage(30); //Hier zodat het met grootere accuraatheid bij zijn plek komt.
    364a:	8e e1       	ldi	r24, 0x1E	; 30
    364c:	0e 94 bd 01 	call	0x37a	; 0x37a <h_bridge_set_percentage>
    3650:	03 c0       	rjmp	.+6      	; 0x3658 <.L244>

00003652 <.L243>:
                    }
                    else
                    {
                         h_bridge_set_percentage(75);
    3652:	8b e4       	ldi	r24, 0x4B	; 75
    3654:	0e 94 bd 01 	call	0x37a	; 0x37a <h_bridge_set_percentage>

00003658 <.L244>:
                    }

                    if ((PINC & (1 << PC3)) == 0)
    3658:	86 e2       	ldi	r24, 0x26	; 38
    365a:	90 e0       	ldi	r25, 0x00	; 0
    365c:	dc 01       	movw	r26, r24
    365e:	8c 91       	ld	r24, X

00003660 <.Loc.724>:
    3660:	88 2f       	mov	r24, r24
    3662:	90 e0       	ldi	r25, 0x00	; 0
    3664:	88 70       	andi	r24, 0x08	; 8
    3666:	99 27       	eor	r25, r25

00003668 <.Loc.725>:
    3668:	00 97       	sbiw	r24, 0x00	; 0
    366a:	09 f0       	breq	.+2      	; 0x366e <.Loc.726>

0000366c <L0^A>:
    366c:	25 c1       	rjmp	.+586    	; 0x38b8 <.L245>

0000366e <.Loc.726>:
                        {
                            if (knop1_ingedrukt == 0) // knop is niet al eerder ingedrukt
    366e:	80 91 18 02 	lds	r24, 0x0218	; 0x800218 <knop1_ingedrukt>
    3672:	90 91 19 02 	lds	r25, 0x0219	; 0x800219 <knop1_ingedrukt+0x1>

00003676 <.Loc.727>:
    3676:	00 97       	sbiw	r24, 0x00	; 0
    3678:	09 f0       	breq	.+2      	; 0x367c <L0^A+0x2>

0000367a <L0^A>:
    367a:	37 c2       	rjmp	.+1134   	; 0x3aea <.L246>
    367c:	9e 01       	movw	r18, r28
    367e:	27 5e       	subi	r18, 0xE7	; 231
    3680:	3e 4f       	sbci	r19, 0xFE	; 254
    3682:	80 e0       	ldi	r24, 0x00	; 0
    3684:	90 e0       	ldi	r25, 0x00	; 0
    3686:	a0 ef       	ldi	r26, 0xF0	; 240
    3688:	b1 e4       	ldi	r27, 0x41	; 65
    368a:	f9 01       	movw	r30, r18
    368c:	80 83       	st	Z, r24
    368e:	91 83       	std	Z+1, r25	; 0x01
    3690:	a2 83       	std	Z+2, r26	; 0x02
    3692:	b3 83       	std	Z+3, r27	; 0x03

00003694 <.LBB266>:
	__tmp = ((F_CPU) / 4e3) * __ms;
    3694:	8e 01       	movw	r16, r28
    3696:	03 5e       	subi	r16, 0xE3	; 227
    3698:	1e 4f       	sbci	r17, 0xFE	; 254
    369a:	ce 01       	movw	r24, r28
    369c:	87 5e       	subi	r24, 0xE7	; 231
    369e:	9e 4f       	sbci	r25, 0xFE	; 254
    36a0:	20 e0       	ldi	r18, 0x00	; 0
    36a2:	30 e0       	ldi	r19, 0x00	; 0
    36a4:	4a e7       	ldi	r20, 0x7A	; 122
    36a6:	55 e4       	ldi	r21, 0x45	; 69
    36a8:	dc 01       	movw	r26, r24
    36aa:	6d 91       	ld	r22, X+
    36ac:	7d 91       	ld	r23, X+
    36ae:	8d 91       	ld	r24, X+
    36b0:	9c 91       	ld	r25, X
    36b2:	0e 94 14 20 	call	0x4028	; 0x4028 <__mulsf3>
    36b6:	c1 52       	subi	r28, 0x21	; 33
    36b8:	dd 4f       	sbci	r29, 0xFD	; 253
    36ba:	68 83       	st	Y, r22
    36bc:	79 83       	std	Y+1, r23	; 0x01
    36be:	8a 83       	std	Y+2, r24	; 0x02
    36c0:	9b 83       	std	Y+3, r25	; 0x03
    36c2:	cf 5d       	subi	r28, 0xDF	; 223
    36c4:	d2 40       	sbci	r29, 0x02	; 2
    36c6:	c1 52       	subi	r28, 0x21	; 33
    36c8:	dd 4f       	sbci	r29, 0xFD	; 253
    36ca:	28 81       	ld	r18, Y
    36cc:	39 81       	ldd	r19, Y+1	; 0x01
    36ce:	4a 81       	ldd	r20, Y+2	; 0x02
    36d0:	5b 81       	ldd	r21, Y+3	; 0x03
    36d2:	cf 5d       	subi	r28, 0xDF	; 223
    36d4:	d2 40       	sbci	r29, 0x02	; 2
    36d6:	d8 01       	movw	r26, r16
    36d8:	2d 93       	st	X+, r18
    36da:	3d 93       	st	X+, r19
    36dc:	4d 93       	st	X+, r20
    36de:	5c 93       	st	X, r21
    36e0:	13 97       	sbiw	r26, 0x03	; 3

000036e2 <.Loc.729>:
	if (__tmp < 1.0)
    36e2:	ce 01       	movw	r24, r28
    36e4:	83 5e       	subi	r24, 0xE3	; 227
    36e6:	9e 4f       	sbci	r25, 0xFE	; 254
    36e8:	20 e0       	ldi	r18, 0x00	; 0
    36ea:	30 e0       	ldi	r19, 0x00	; 0
    36ec:	40 e8       	ldi	r20, 0x80	; 128
    36ee:	5f e3       	ldi	r21, 0x3F	; 63
    36f0:	fc 01       	movw	r30, r24
    36f2:	60 81       	ld	r22, Z
    36f4:	71 81       	ldd	r23, Z+1	; 0x01
    36f6:	82 81       	ldd	r24, Z+2	; 0x02
    36f8:	93 81       	ldd	r25, Z+3	; 0x03
    36fa:	0e 94 8e 1f 	call	0x3f1c	; 0x3f1c <__cmpsf2>
    36fe:	88 23       	and	r24, r24
    3700:	54 f4       	brge	.+20     	; 0x3716 <.L360>

00003702 <.Loc.730>:
		__ticks = 1;
    3702:	ce 01       	movw	r24, r28
    3704:	8f 5d       	subi	r24, 0xDF	; 223
    3706:	9e 4f       	sbci	r25, 0xFE	; 254
    3708:	21 e0       	ldi	r18, 0x01	; 1
    370a:	30 e0       	ldi	r19, 0x00	; 0
    370c:	dc 01       	movw	r26, r24
    370e:	11 96       	adiw	r26, 0x01	; 1
    3710:	3c 93       	st	X, r19
    3712:	2e 93       	st	-X, r18
    3714:	a5 c0       	rjmp	.+330    	; 0x3860 <.L249>

00003716 <.L360>:
	else if (__tmp > 65535)
    3716:	ce 01       	movw	r24, r28
    3718:	83 5e       	subi	r24, 0xE3	; 227
    371a:	9e 4f       	sbci	r25, 0xFE	; 254
    371c:	20 e0       	ldi	r18, 0x00	; 0
    371e:	3f ef       	ldi	r19, 0xFF	; 255
    3720:	4f e7       	ldi	r20, 0x7F	; 127
    3722:	57 e4       	ldi	r21, 0x47	; 71
    3724:	fc 01       	movw	r30, r24
    3726:	60 81       	ld	r22, Z
    3728:	71 81       	ldd	r23, Z+1	; 0x01
    372a:	82 81       	ldd	r24, Z+2	; 0x02
    372c:	93 81       	ldd	r25, Z+3	; 0x03
    372e:	0e 94 0f 20 	call	0x401e	; 0x401e <__gesf2>
    3732:	88 23       	and	r24, r24
    3734:	09 f0       	breq	.+2      	; 0x3738 <L0^A>

00003736 <L0^A>:
    3736:	0c f4       	brge	.+2      	; 0x373a <.Loc.732>

00003738 <L0^A>:
    3738:	75 c0       	rjmp	.+234    	; 0x3824 <.L361>

0000373a <.Loc.732>:
		__ticks = (uint16_t) (__ms * 10.0);
    373a:	ce 01       	movw	r24, r28
    373c:	87 5e       	subi	r24, 0xE7	; 231
    373e:	9e 4f       	sbci	r25, 0xFE	; 254
    3740:	20 e0       	ldi	r18, 0x00	; 0
    3742:	30 e0       	ldi	r19, 0x00	; 0
    3744:	40 e2       	ldi	r20, 0x20	; 32
    3746:	51 e4       	ldi	r21, 0x41	; 65
    3748:	dc 01       	movw	r26, r24
    374a:	6d 91       	ld	r22, X+
    374c:	7d 91       	ld	r23, X+
    374e:	8d 91       	ld	r24, X+
    3750:	9c 91       	ld	r25, X
    3752:	0e 94 14 20 	call	0x4028	; 0x4028 <__mulsf3>
    3756:	cd 51       	subi	r28, 0x1D	; 29
    3758:	dd 4f       	sbci	r29, 0xFD	; 253
    375a:	68 83       	st	Y, r22
    375c:	79 83       	std	Y+1, r23	; 0x01
    375e:	8a 83       	std	Y+2, r24	; 0x02
    3760:	9b 83       	std	Y+3, r25	; 0x03
    3762:	c3 5e       	subi	r28, 0xE3	; 227
    3764:	d2 40       	sbci	r29, 0x02	; 2
    3766:	cd 51       	subi	r28, 0x1D	; 29
    3768:	dd 4f       	sbci	r29, 0xFD	; 253
    376a:	28 81       	ld	r18, Y
    376c:	39 81       	ldd	r19, Y+1	; 0x01
    376e:	4a 81       	ldd	r20, Y+2	; 0x02
    3770:	5b 81       	ldd	r21, Y+3	; 0x03
    3772:	c3 5e       	subi	r28, 0xE3	; 227
    3774:	d2 40       	sbci	r29, 0x02	; 2
    3776:	cd 56       	subi	r28, 0x6D	; 109
    3778:	de 4f       	sbci	r29, 0xFE	; 254
    377a:	28 83       	st	Y, r18
    377c:	39 83       	std	Y+1, r19	; 0x01
    377e:	4a 83       	std	Y+2, r20	; 0x02
    3780:	5b 83       	std	Y+3, r21	; 0x03
    3782:	c3 59       	subi	r28, 0x93	; 147
    3784:	d1 40       	sbci	r29, 0x01	; 1

00003786 <.Loc.733>:
    3786:	8e 01       	movw	r16, r28
    3788:	0f 5d       	subi	r16, 0xDF	; 223
    378a:	1e 4f       	sbci	r17, 0xFE	; 254
    378c:	cd 56       	subi	r28, 0x6D	; 109
    378e:	de 4f       	sbci	r29, 0xFE	; 254
    3790:	68 81       	ld	r22, Y
    3792:	79 81       	ldd	r23, Y+1	; 0x01
    3794:	8a 81       	ldd	r24, Y+2	; 0x02
    3796:	9b 81       	ldd	r25, Y+3	; 0x03
    3798:	c3 59       	subi	r28, 0x93	; 147
    379a:	d1 40       	sbci	r29, 0x01	; 1
    379c:	0e 94 93 1f 	call	0x3f26	; 0x3f26 <__fixunssfsi>
    37a0:	c9 51       	subi	r28, 0x19	; 25
    37a2:	dd 4f       	sbci	r29, 0xFD	; 253
    37a4:	68 83       	st	Y, r22
    37a6:	79 83       	std	Y+1, r23	; 0x01
    37a8:	8a 83       	std	Y+2, r24	; 0x02
    37aa:	9b 83       	std	Y+3, r25	; 0x03
    37ac:	c7 5e       	subi	r28, 0xE7	; 231
    37ae:	d2 40       	sbci	r29, 0x02	; 2
    37b0:	c9 51       	subi	r28, 0x19	; 25
    37b2:	dd 4f       	sbci	r29, 0xFD	; 253
    37b4:	e8 81       	ld	r30, Y
    37b6:	f9 81       	ldd	r31, Y+1	; 0x01
    37b8:	c7 5e       	subi	r28, 0xE7	; 231
    37ba:	d2 40       	sbci	r29, 0x02	; 2
    37bc:	d8 01       	movw	r26, r16
    37be:	11 96       	adiw	r26, 0x01	; 1
    37c0:	fc 93       	st	X, r31
    37c2:	ee 93       	st	-X, r30

000037c4 <.Loc.734>:
		while(__ticks)
    37c4:	26 c0       	rjmp	.+76     	; 0x3812 <.L252>

000037c6 <.L253>:
    37c6:	ce 01       	movw	r24, r28
    37c8:	8d 5d       	subi	r24, 0xDD	; 221
    37ca:	9e 4f       	sbci	r25, 0xFE	; 254
    37cc:	20 e9       	ldi	r18, 0x90	; 144
    37ce:	31 e0       	ldi	r19, 0x01	; 1
    37d0:	dc 01       	movw	r26, r24
    37d2:	2d 93       	st	X+, r18
    37d4:	3c 93       	st	X, r19

000037d6 <.LBB268>:
    37d6:	ce 01       	movw	r24, r28
    37d8:	8d 5d       	subi	r24, 0xDD	; 221
    37da:	9e 4f       	sbci	r25, 0xFE	; 254
    37dc:	fc 01       	movw	r30, r24
    37de:	80 81       	ld	r24, Z
    37e0:	91 81       	ldd	r25, Z+1	; 0x01

000037e2 <.L1^B42>:
    37e2:	01 97       	sbiw	r24, 0x01	; 1
    37e4:	f1 f7       	brne	.-4      	; 0x37e2 <.L1^B42>
    37e6:	9e 01       	movw	r18, r28
    37e8:	2d 5d       	subi	r18, 0xDD	; 221
    37ea:	3e 4f       	sbci	r19, 0xFE	; 254
    37ec:	d9 01       	movw	r26, r18
    37ee:	8d 93       	st	X+, r24
    37f0:	9c 93       	st	X, r25

000037f2 <.Loc.736>:
	...

000037f4 <.LBE268>:
			__ticks --;
    37f4:	ce 01       	movw	r24, r28
    37f6:	8f 5d       	subi	r24, 0xDF	; 223
    37f8:	9e 4f       	sbci	r25, 0xFE	; 254
    37fa:	9e 01       	movw	r18, r28
    37fc:	2f 5d       	subi	r18, 0xDF	; 223
    37fe:	3e 4f       	sbci	r19, 0xFE	; 254
    3800:	f9 01       	movw	r30, r18
    3802:	20 81       	ld	r18, Z
    3804:	31 81       	ldd	r19, Z+1	; 0x01
    3806:	21 50       	subi	r18, 0x01	; 1
    3808:	31 09       	sbc	r19, r1
    380a:	dc 01       	movw	r26, r24
    380c:	11 96       	adiw	r26, 0x01	; 1
    380e:	3c 93       	st	X, r19
    3810:	2e 93       	st	-X, r18

00003812 <.L252>:
		while(__ticks)
    3812:	ce 01       	movw	r24, r28
    3814:	8f 5d       	subi	r24, 0xDF	; 223
    3816:	9e 4f       	sbci	r25, 0xFE	; 254
    3818:	fc 01       	movw	r30, r24
    381a:	80 81       	ld	r24, Z
    381c:	91 81       	ldd	r25, Z+1	; 0x01
    381e:	00 97       	sbiw	r24, 0x00	; 0
    3820:	91 f6       	brne	.-92     	; 0x37c6 <.L253>

00003822 <.Loc.739>:
		return;
    3822:	3a c0       	rjmp	.+116    	; 0x3898 <.L254>

00003824 <.L361>:
		__ticks = (uint16_t)__tmp;
    3824:	8e 01       	movw	r16, r28
    3826:	0f 5d       	subi	r16, 0xDF	; 223
    3828:	1e 4f       	sbci	r17, 0xFE	; 254
    382a:	ce 01       	movw	r24, r28
    382c:	83 5e       	subi	r24, 0xE3	; 227
    382e:	9e 4f       	sbci	r25, 0xFE	; 254
    3830:	dc 01       	movw	r26, r24
    3832:	6d 91       	ld	r22, X+
    3834:	7d 91       	ld	r23, X+
    3836:	8d 91       	ld	r24, X+
    3838:	9c 91       	ld	r25, X
    383a:	0e 94 93 1f 	call	0x3f26	; 0x3f26 <__fixunssfsi>
    383e:	c5 51       	subi	r28, 0x15	; 21
    3840:	dd 4f       	sbci	r29, 0xFD	; 253
    3842:	68 83       	st	Y, r22
    3844:	79 83       	std	Y+1, r23	; 0x01
    3846:	8a 83       	std	Y+2, r24	; 0x02
    3848:	9b 83       	std	Y+3, r25	; 0x03
    384a:	cb 5e       	subi	r28, 0xEB	; 235
    384c:	d2 40       	sbci	r29, 0x02	; 2
    384e:	c5 51       	subi	r28, 0x15	; 21
    3850:	dd 4f       	sbci	r29, 0xFD	; 253
    3852:	28 81       	ld	r18, Y
    3854:	39 81       	ldd	r19, Y+1	; 0x01
    3856:	cb 5e       	subi	r28, 0xEB	; 235
    3858:	d2 40       	sbci	r29, 0x02	; 2
    385a:	f8 01       	movw	r30, r16
    385c:	31 83       	std	Z+1, r19	; 0x01
    385e:	20 83       	st	Z, r18

00003860 <.L249>:
    3860:	ce 01       	movw	r24, r28
    3862:	8b 5d       	subi	r24, 0xDB	; 219
    3864:	9e 4f       	sbci	r25, 0xFE	; 254
    3866:	9e 01       	movw	r18, r28
    3868:	2f 5d       	subi	r18, 0xDF	; 223
    386a:	3e 4f       	sbci	r19, 0xFE	; 254
    386c:	d9 01       	movw	r26, r18
    386e:	2d 91       	ld	r18, X+
    3870:	3c 91       	ld	r19, X
    3872:	fc 01       	movw	r30, r24
    3874:	31 83       	std	Z+1, r19	; 0x01
    3876:	20 83       	st	Z, r18

00003878 <.LBB270>:
    3878:	ce 01       	movw	r24, r28
    387a:	8b 5d       	subi	r24, 0xDB	; 219
    387c:	9e 4f       	sbci	r25, 0xFE	; 254
    387e:	dc 01       	movw	r26, r24
    3880:	8d 91       	ld	r24, X+
    3882:	9c 91       	ld	r25, X
    3884:	11 97       	sbiw	r26, 0x01	; 1

00003886 <.L1^B43>:
    3886:	01 97       	sbiw	r24, 0x01	; 1
    3888:	f1 f7       	brne	.-4      	; 0x3886 <.L1^B43>
    388a:	9e 01       	movw	r18, r28
    388c:	2b 5d       	subi	r18, 0xDB	; 219
    388e:	3e 4f       	sbci	r19, 0xFE	; 254
    3890:	f9 01       	movw	r30, r18
    3892:	91 83       	std	Z+1, r25	; 0x01
    3894:	80 83       	st	Z, r24

00003896 <.Loc.742>:
	...

00003898 <.L254>:
                            {
                                _delay_ms(30);//Fine-tune this also? do these switches need a different debouncing time or???
                                  StepCounterX -=  1;
    3898:	80 91 04 02 	lds	r24, 0x0204	; 0x800204 <StepCounterX>
    389c:	90 91 05 02 	lds	r25, 0x0205	; 0x800205 <StepCounterX+0x1>
    38a0:	01 97       	sbiw	r24, 0x01	; 1
    38a2:	90 93 05 02 	sts	0x0205, r25	; 0x800205 <StepCounterX+0x1>
    38a6:	80 93 04 02 	sts	0x0204, r24	; 0x800204 <StepCounterX>

000038aa <.Loc.744>:
                                knop1_ingedrukt = 1;
    38aa:	81 e0       	ldi	r24, 0x01	; 1
    38ac:	90 e0       	ldi	r25, 0x00	; 0
    38ae:	90 93 19 02 	sts	0x0219, r25	; 0x800219 <knop1_ingedrukt+0x1>
    38b2:	80 93 18 02 	sts	0x0218, r24	; 0x800218 <knop1_ingedrukt>
    38b6:	19 c1       	rjmp	.+562    	; 0x3aea <.L246>

000038b8 <.L245>:
                            }
                        }
                    else
                        {
                        if (knop1_ingedrukt != 0) // knop is zojuist losgelaten
    38b8:	80 91 18 02 	lds	r24, 0x0218	; 0x800218 <knop1_ingedrukt>
    38bc:	90 91 19 02 	lds	r25, 0x0219	; 0x800219 <knop1_ingedrukt+0x1>

000038c0 <.Loc.746>:
    38c0:	00 97       	sbiw	r24, 0x00	; 0
    38c2:	09 f4       	brne	.+2      	; 0x38c6 <L0^A+0x2>

000038c4 <L0^A>:
    38c4:	12 c1       	rjmp	.+548    	; 0x3aea <.L246>
    38c6:	9e 01       	movw	r18, r28
    38c8:	29 5d       	subi	r18, 0xD9	; 217
    38ca:	3e 4f       	sbci	r19, 0xFE	; 254
    38cc:	80 e0       	ldi	r24, 0x00	; 0
    38ce:	90 e0       	ldi	r25, 0x00	; 0
    38d0:	a0 ef       	ldi	r26, 0xF0	; 240
    38d2:	b1 e4       	ldi	r27, 0x41	; 65
    38d4:	f9 01       	movw	r30, r18
    38d6:	80 83       	st	Z, r24
    38d8:	91 83       	std	Z+1, r25	; 0x01
    38da:	a2 83       	std	Z+2, r26	; 0x02
    38dc:	b3 83       	std	Z+3, r27	; 0x03

000038de <.LBB272>:
	__tmp = ((F_CPU) / 4e3) * __ms;
    38de:	8e 01       	movw	r16, r28
    38e0:	05 5d       	subi	r16, 0xD5	; 213
    38e2:	1e 4f       	sbci	r17, 0xFE	; 254
    38e4:	ce 01       	movw	r24, r28
    38e6:	89 5d       	subi	r24, 0xD9	; 217
    38e8:	9e 4f       	sbci	r25, 0xFE	; 254
    38ea:	20 e0       	ldi	r18, 0x00	; 0
    38ec:	30 e0       	ldi	r19, 0x00	; 0
    38ee:	4a e7       	ldi	r20, 0x7A	; 122
    38f0:	55 e4       	ldi	r21, 0x45	; 69
    38f2:	dc 01       	movw	r26, r24
    38f4:	6d 91       	ld	r22, X+
    38f6:	7d 91       	ld	r23, X+
    38f8:	8d 91       	ld	r24, X+
    38fa:	9c 91       	ld	r25, X
    38fc:	0e 94 14 20 	call	0x4028	; 0x4028 <__mulsf3>
    3900:	c1 51       	subi	r28, 0x11	; 17
    3902:	dd 4f       	sbci	r29, 0xFD	; 253
    3904:	68 83       	st	Y, r22
    3906:	79 83       	std	Y+1, r23	; 0x01
    3908:	8a 83       	std	Y+2, r24	; 0x02
    390a:	9b 83       	std	Y+3, r25	; 0x03
    390c:	cf 5e       	subi	r28, 0xEF	; 239
    390e:	d2 40       	sbci	r29, 0x02	; 2
    3910:	c1 51       	subi	r28, 0x11	; 17
    3912:	dd 4f       	sbci	r29, 0xFD	; 253
    3914:	28 81       	ld	r18, Y
    3916:	39 81       	ldd	r19, Y+1	; 0x01
    3918:	4a 81       	ldd	r20, Y+2	; 0x02
    391a:	5b 81       	ldd	r21, Y+3	; 0x03
    391c:	cf 5e       	subi	r28, 0xEF	; 239
    391e:	d2 40       	sbci	r29, 0x02	; 2
    3920:	d8 01       	movw	r26, r16
    3922:	2d 93       	st	X+, r18
    3924:	3d 93       	st	X+, r19
    3926:	4d 93       	st	X+, r20
    3928:	5c 93       	st	X, r21
    392a:	13 97       	sbiw	r26, 0x03	; 3

0000392c <.Loc.748>:
	if (__tmp < 1.0)
    392c:	ce 01       	movw	r24, r28
    392e:	85 5d       	subi	r24, 0xD5	; 213
    3930:	9e 4f       	sbci	r25, 0xFE	; 254
    3932:	20 e0       	ldi	r18, 0x00	; 0
    3934:	30 e0       	ldi	r19, 0x00	; 0
    3936:	40 e8       	ldi	r20, 0x80	; 128
    3938:	5f e3       	ldi	r21, 0x3F	; 63
    393a:	fc 01       	movw	r30, r24
    393c:	60 81       	ld	r22, Z
    393e:	71 81       	ldd	r23, Z+1	; 0x01
    3940:	82 81       	ldd	r24, Z+2	; 0x02
    3942:	93 81       	ldd	r25, Z+3	; 0x03
    3944:	0e 94 8e 1f 	call	0x3f1c	; 0x3f1c <__cmpsf2>
    3948:	88 23       	and	r24, r24
    394a:	54 f4       	brge	.+20     	; 0x3960 <.L362>

0000394c <.Loc.749>:
		__ticks = 1;
    394c:	ce 01       	movw	r24, r28
    394e:	81 5d       	subi	r24, 0xD1	; 209
    3950:	9e 4f       	sbci	r25, 0xFE	; 254
    3952:	21 e0       	ldi	r18, 0x01	; 1
    3954:	30 e0       	ldi	r19, 0x00	; 0
    3956:	dc 01       	movw	r26, r24
    3958:	11 96       	adiw	r26, 0x01	; 1
    395a:	3c 93       	st	X, r19
    395c:	2e 93       	st	-X, r18
    395e:	a5 c0       	rjmp	.+330    	; 0x3aaa <.L257>

00003960 <.L362>:
	else if (__tmp > 65535)
    3960:	ce 01       	movw	r24, r28
    3962:	85 5d       	subi	r24, 0xD5	; 213
    3964:	9e 4f       	sbci	r25, 0xFE	; 254
    3966:	20 e0       	ldi	r18, 0x00	; 0
    3968:	3f ef       	ldi	r19, 0xFF	; 255
    396a:	4f e7       	ldi	r20, 0x7F	; 127
    396c:	57 e4       	ldi	r21, 0x47	; 71
    396e:	fc 01       	movw	r30, r24
    3970:	60 81       	ld	r22, Z
    3972:	71 81       	ldd	r23, Z+1	; 0x01
    3974:	82 81       	ldd	r24, Z+2	; 0x02
    3976:	93 81       	ldd	r25, Z+3	; 0x03
    3978:	0e 94 0f 20 	call	0x401e	; 0x401e <__gesf2>
    397c:	88 23       	and	r24, r24
    397e:	09 f0       	breq	.+2      	; 0x3982 <L0^A>

00003980 <L0^A>:
    3980:	0c f4       	brge	.+2      	; 0x3984 <.Loc.751>

00003982 <L0^A>:
    3982:	75 c0       	rjmp	.+234    	; 0x3a6e <.L363>

00003984 <.Loc.751>:
		__ticks = (uint16_t) (__ms * 10.0);
    3984:	ce 01       	movw	r24, r28
    3986:	89 5d       	subi	r24, 0xD9	; 217
    3988:	9e 4f       	sbci	r25, 0xFE	; 254
    398a:	20 e0       	ldi	r18, 0x00	; 0
    398c:	30 e0       	ldi	r19, 0x00	; 0
    398e:	40 e2       	ldi	r20, 0x20	; 32
    3990:	51 e4       	ldi	r21, 0x41	; 65
    3992:	dc 01       	movw	r26, r24
    3994:	6d 91       	ld	r22, X+
    3996:	7d 91       	ld	r23, X+
    3998:	8d 91       	ld	r24, X+
    399a:	9c 91       	ld	r25, X
    399c:	0e 94 14 20 	call	0x4028	; 0x4028 <__mulsf3>
    39a0:	cd 50       	subi	r28, 0x0D	; 13
    39a2:	dd 4f       	sbci	r29, 0xFD	; 253
    39a4:	68 83       	st	Y, r22
    39a6:	79 83       	std	Y+1, r23	; 0x01
    39a8:	8a 83       	std	Y+2, r24	; 0x02
    39aa:	9b 83       	std	Y+3, r25	; 0x03
    39ac:	c3 5f       	subi	r28, 0xF3	; 243
    39ae:	d2 40       	sbci	r29, 0x02	; 2
    39b0:	cd 50       	subi	r28, 0x0D	; 13
    39b2:	dd 4f       	sbci	r29, 0xFD	; 253
    39b4:	28 81       	ld	r18, Y
    39b6:	39 81       	ldd	r19, Y+1	; 0x01
    39b8:	4a 81       	ldd	r20, Y+2	; 0x02
    39ba:	5b 81       	ldd	r21, Y+3	; 0x03
    39bc:	c3 5f       	subi	r28, 0xF3	; 243
    39be:	d2 40       	sbci	r29, 0x02	; 2
    39c0:	c9 56       	subi	r28, 0x69	; 105
    39c2:	de 4f       	sbci	r29, 0xFE	; 254
    39c4:	28 83       	st	Y, r18
    39c6:	39 83       	std	Y+1, r19	; 0x01
    39c8:	4a 83       	std	Y+2, r20	; 0x02
    39ca:	5b 83       	std	Y+3, r21	; 0x03
    39cc:	c7 59       	subi	r28, 0x97	; 151
    39ce:	d1 40       	sbci	r29, 0x01	; 1

000039d0 <.Loc.752>:
    39d0:	8e 01       	movw	r16, r28
    39d2:	01 5d       	subi	r16, 0xD1	; 209
    39d4:	1e 4f       	sbci	r17, 0xFE	; 254
    39d6:	c9 56       	subi	r28, 0x69	; 105
    39d8:	de 4f       	sbci	r29, 0xFE	; 254
    39da:	68 81       	ld	r22, Y
    39dc:	79 81       	ldd	r23, Y+1	; 0x01
    39de:	8a 81       	ldd	r24, Y+2	; 0x02
    39e0:	9b 81       	ldd	r25, Y+3	; 0x03
    39e2:	c7 59       	subi	r28, 0x97	; 151
    39e4:	d1 40       	sbci	r29, 0x01	; 1
    39e6:	0e 94 93 1f 	call	0x3f26	; 0x3f26 <__fixunssfsi>
    39ea:	c9 50       	subi	r28, 0x09	; 9
    39ec:	dd 4f       	sbci	r29, 0xFD	; 253
    39ee:	68 83       	st	Y, r22
    39f0:	79 83       	std	Y+1, r23	; 0x01
    39f2:	8a 83       	std	Y+2, r24	; 0x02
    39f4:	9b 83       	std	Y+3, r25	; 0x03
    39f6:	c7 5f       	subi	r28, 0xF7	; 247
    39f8:	d2 40       	sbci	r29, 0x02	; 2
    39fa:	c9 50       	subi	r28, 0x09	; 9
    39fc:	dd 4f       	sbci	r29, 0xFD	; 253
    39fe:	e8 81       	ld	r30, Y
    3a00:	f9 81       	ldd	r31, Y+1	; 0x01
    3a02:	c7 5f       	subi	r28, 0xF7	; 247
    3a04:	d2 40       	sbci	r29, 0x02	; 2
    3a06:	d8 01       	movw	r26, r16
    3a08:	11 96       	adiw	r26, 0x01	; 1
    3a0a:	fc 93       	st	X, r31
    3a0c:	ee 93       	st	-X, r30

00003a0e <.Loc.753>:
		while(__ticks)
    3a0e:	26 c0       	rjmp	.+76     	; 0x3a5c <.L260>

00003a10 <.L261>:
    3a10:	ce 01       	movw	r24, r28
    3a12:	8f 5c       	subi	r24, 0xCF	; 207
    3a14:	9e 4f       	sbci	r25, 0xFE	; 254
    3a16:	20 e9       	ldi	r18, 0x90	; 144
    3a18:	31 e0       	ldi	r19, 0x01	; 1
    3a1a:	dc 01       	movw	r26, r24
    3a1c:	2d 93       	st	X+, r18
    3a1e:	3c 93       	st	X, r19

00003a20 <.LBB274>:
    3a20:	ce 01       	movw	r24, r28
    3a22:	8f 5c       	subi	r24, 0xCF	; 207
    3a24:	9e 4f       	sbci	r25, 0xFE	; 254
    3a26:	fc 01       	movw	r30, r24
    3a28:	80 81       	ld	r24, Z
    3a2a:	91 81       	ldd	r25, Z+1	; 0x01

00003a2c <.L1^B44>:
    3a2c:	01 97       	sbiw	r24, 0x01	; 1
    3a2e:	f1 f7       	brne	.-4      	; 0x3a2c <.L1^B44>
    3a30:	9e 01       	movw	r18, r28
    3a32:	2f 5c       	subi	r18, 0xCF	; 207
    3a34:	3e 4f       	sbci	r19, 0xFE	; 254
    3a36:	d9 01       	movw	r26, r18
    3a38:	8d 93       	st	X+, r24
    3a3a:	9c 93       	st	X, r25

00003a3c <.Loc.755>:
	...

00003a3e <.LBE274>:
			__ticks --;
    3a3e:	ce 01       	movw	r24, r28
    3a40:	81 5d       	subi	r24, 0xD1	; 209
    3a42:	9e 4f       	sbci	r25, 0xFE	; 254
    3a44:	9e 01       	movw	r18, r28
    3a46:	21 5d       	subi	r18, 0xD1	; 209
    3a48:	3e 4f       	sbci	r19, 0xFE	; 254
    3a4a:	f9 01       	movw	r30, r18
    3a4c:	20 81       	ld	r18, Z
    3a4e:	31 81       	ldd	r19, Z+1	; 0x01
    3a50:	21 50       	subi	r18, 0x01	; 1
    3a52:	31 09       	sbc	r19, r1
    3a54:	dc 01       	movw	r26, r24
    3a56:	11 96       	adiw	r26, 0x01	; 1
    3a58:	3c 93       	st	X, r19
    3a5a:	2e 93       	st	-X, r18

00003a5c <.L260>:
		while(__ticks)
    3a5c:	ce 01       	movw	r24, r28
    3a5e:	81 5d       	subi	r24, 0xD1	; 209
    3a60:	9e 4f       	sbci	r25, 0xFE	; 254
    3a62:	fc 01       	movw	r30, r24
    3a64:	80 81       	ld	r24, Z
    3a66:	91 81       	ldd	r25, Z+1	; 0x01
    3a68:	00 97       	sbiw	r24, 0x00	; 0
    3a6a:	91 f6       	brne	.-92     	; 0x3a10 <.L261>

00003a6c <.Loc.758>:
		return;
    3a6c:	3a c0       	rjmp	.+116    	; 0x3ae2 <.L262>

00003a6e <.L363>:
		__ticks = (uint16_t)__tmp;
    3a6e:	8e 01       	movw	r16, r28
    3a70:	01 5d       	subi	r16, 0xD1	; 209
    3a72:	1e 4f       	sbci	r17, 0xFE	; 254
    3a74:	ce 01       	movw	r24, r28
    3a76:	85 5d       	subi	r24, 0xD5	; 213
    3a78:	9e 4f       	sbci	r25, 0xFE	; 254
    3a7a:	dc 01       	movw	r26, r24
    3a7c:	6d 91       	ld	r22, X+
    3a7e:	7d 91       	ld	r23, X+
    3a80:	8d 91       	ld	r24, X+
    3a82:	9c 91       	ld	r25, X
    3a84:	0e 94 93 1f 	call	0x3f26	; 0x3f26 <__fixunssfsi>
    3a88:	c5 50       	subi	r28, 0x05	; 5
    3a8a:	dd 4f       	sbci	r29, 0xFD	; 253
    3a8c:	68 83       	st	Y, r22
    3a8e:	79 83       	std	Y+1, r23	; 0x01
    3a90:	8a 83       	std	Y+2, r24	; 0x02
    3a92:	9b 83       	std	Y+3, r25	; 0x03
    3a94:	cb 5f       	subi	r28, 0xFB	; 251
    3a96:	d2 40       	sbci	r29, 0x02	; 2
    3a98:	c5 50       	subi	r28, 0x05	; 5
    3a9a:	dd 4f       	sbci	r29, 0xFD	; 253
    3a9c:	28 81       	ld	r18, Y
    3a9e:	39 81       	ldd	r19, Y+1	; 0x01
    3aa0:	cb 5f       	subi	r28, 0xFB	; 251
    3aa2:	d2 40       	sbci	r29, 0x02	; 2
    3aa4:	f8 01       	movw	r30, r16
    3aa6:	31 83       	std	Z+1, r19	; 0x01
    3aa8:	20 83       	st	Z, r18

00003aaa <.L257>:
    3aaa:	ce 01       	movw	r24, r28
    3aac:	8d 5c       	subi	r24, 0xCD	; 205
    3aae:	9e 4f       	sbci	r25, 0xFE	; 254
    3ab0:	9e 01       	movw	r18, r28
    3ab2:	21 5d       	subi	r18, 0xD1	; 209
    3ab4:	3e 4f       	sbci	r19, 0xFE	; 254
    3ab6:	d9 01       	movw	r26, r18
    3ab8:	2d 91       	ld	r18, X+
    3aba:	3c 91       	ld	r19, X
    3abc:	fc 01       	movw	r30, r24
    3abe:	31 83       	std	Z+1, r19	; 0x01
    3ac0:	20 83       	st	Z, r18

00003ac2 <.LBB276>:
    3ac2:	ce 01       	movw	r24, r28
    3ac4:	8d 5c       	subi	r24, 0xCD	; 205
    3ac6:	9e 4f       	sbci	r25, 0xFE	; 254
    3ac8:	dc 01       	movw	r26, r24
    3aca:	8d 91       	ld	r24, X+
    3acc:	9c 91       	ld	r25, X
    3ace:	11 97       	sbiw	r26, 0x01	; 1

00003ad0 <.L1^B45>:
    3ad0:	01 97       	sbiw	r24, 0x01	; 1
    3ad2:	f1 f7       	brne	.-4      	; 0x3ad0 <.L1^B45>
    3ad4:	9e 01       	movw	r18, r28
    3ad6:	2d 5c       	subi	r18, 0xCD	; 205
    3ad8:	3e 4f       	sbci	r19, 0xFE	; 254
    3ada:	f9 01       	movw	r30, r18
    3adc:	91 83       	std	Z+1, r25	; 0x01
    3ade:	80 83       	st	Z, r24

00003ae0 <.Loc.761>:
	...

00003ae2 <.L262>:
                            {
                                _delay_ms(30);
                                knop1_ingedrukt = 0;
    3ae2:	10 92 19 02 	sts	0x0219, r1	; 0x800219 <knop1_ingedrukt+0x1>
    3ae6:	10 92 18 02 	sts	0x0218, r1	; 0x800218 <knop1_ingedrukt>

00003aea <.L246>:
                            }
                        }

                    if(StepCounterX == 0)
    3aea:	80 91 04 02 	lds	r24, 0x0204	; 0x800204 <StepCounterX>
    3aee:	90 91 05 02 	lds	r25, 0x0205	; 0x800205 <StepCounterX+0x1>

00003af2 <.Loc.764>:
    3af2:	00 97       	sbiw	r24, 0x00	; 0
    3af4:	c1 f4       	brne	.+48     	; 0x3b26 <.L263>

00003af6 <.Loc.765>:
                    {
                        h_bridge_set_percentage(0);
    3af6:	80 e0       	ldi	r24, 0x00	; 0
    3af8:	0e 94 bd 01 	call	0x37a	; 0x37a <h_bridge_set_percentage>

00003afc <.Loc.766>:
                        PORTA = (1 << PA0); //Yet-again first h-bridge and THEN the port. Net zoals je eigenlijk een laptop accu moet ontkoppelen.
    3afc:	82 e2       	ldi	r24, 0x22	; 34
    3afe:	90 e0       	ldi	r25, 0x00	; 0

00003b00 <.Loc.767>:
    3b00:	21 e0       	ldi	r18, 0x01	; 1
    3b02:	dc 01       	movw	r26, r24
    3b04:	2c 93       	st	X, r18

00003b06 <.Loc.768>:
                        PORTB ^= (1 << PB7); //Debug Light X-as
    3b06:	85 e2       	ldi	r24, 0x25	; 37
    3b08:	90 e0       	ldi	r25, 0x00	; 0
    3b0a:	fc 01       	movw	r30, r24
    3b0c:	30 81       	ld	r19, Z
    3b0e:	85 e2       	ldi	r24, 0x25	; 37
    3b10:	90 e0       	ldi	r25, 0x00	; 0

00003b12 <.Loc.769>:
    3b12:	20 e8       	ldi	r18, 0x80	; 128
    3b14:	23 27       	eor	r18, r19
    3b16:	dc 01       	movw	r26, r24
    3b18:	2c 93       	st	X, r18

00003b1a <.Loc.770>:
                        MenuLayer = 60;
    3b1a:	8c e3       	ldi	r24, 0x3C	; 60
    3b1c:	90 e0       	ldi	r25, 0x00	; 0
    3b1e:	90 93 01 02 	sts	0x0201, r25	; 0x800201 <MenuLayer+0x1>
    3b22:	80 93 00 02 	sts	0x0200, r24	; 0x800200 <MenuLayer>

00003b26 <.L263>:
                    }
                        n=StepCounterX;// Here for display purposes. Handy Debug Tool.
    3b26:	80 91 04 02 	lds	r24, 0x0204	; 0x800204 <StepCounterX>
    3b2a:	90 91 05 02 	lds	r25, 0x0205	; 0x800205 <StepCounterX+0x1>
    3b2e:	90 93 13 02 	sts	0x0213, r25	; 0x800213 <n+0x1>
    3b32:	80 93 12 02 	sts	0x0212, r24	; 0x800212 <n>

00003b36 <.Loc.772>:
                        Refresh();
    3b36:	0e 94 2c 03 	call	0x658	; 0x658 <Refresh>

00003b3a <.Loc.773>:
                }break;
    3b3a:	81 c1       	rjmp	.+770    	; 0x3e3e <.L44>

00003b3c <.L48>:


                case 60:{
                    PORTA = ~(1 << (PA4));//Z-as aan
    3b3c:	82 e2       	ldi	r24, 0x22	; 34
    3b3e:	90 e0       	ldi	r25, 0x00	; 0

00003b40 <.Loc.775>:
    3b40:	2f ee       	ldi	r18, 0xEF	; 239
    3b42:	fc 01       	movw	r30, r24
    3b44:	20 83       	st	Z, r18

00003b46 <.Loc.776>:
                    PORTB ^= (1 << PB5); //Debug Light Z-as
    3b46:	85 e2       	ldi	r24, 0x25	; 37
    3b48:	90 e0       	ldi	r25, 0x00	; 0
    3b4a:	dc 01       	movw	r26, r24
    3b4c:	3c 91       	ld	r19, X
    3b4e:	85 e2       	ldi	r24, 0x25	; 37
    3b50:	90 e0       	ldi	r25, 0x00	; 0

00003b52 <.Loc.777>:
    3b52:	20 e2       	ldi	r18, 0x20	; 32
    3b54:	23 27       	eor	r18, r19
    3b56:	fc 01       	movw	r30, r24
    3b58:	20 83       	st	Z, r18

00003b5a <.Loc.778>:

                    h_bridge_set_percentage(20);
    3b5a:	84 e1       	ldi	r24, 0x14	; 20
    3b5c:	0e 94 bd 01 	call	0x37a	; 0x37a <h_bridge_set_percentage>
    3b60:	9e 01       	movw	r18, r28
    3b62:	2b 5c       	subi	r18, 0xCB	; 203
    3b64:	3e 4f       	sbci	r19, 0xFE	; 254
    3b66:	80 e0       	ldi	r24, 0x00	; 0
    3b68:	90 e8       	ldi	r25, 0x80	; 128
    3b6a:	ab eb       	ldi	r26, 0xBB	; 187
    3b6c:	b4 e4       	ldi	r27, 0x44	; 68
    3b6e:	f9 01       	movw	r30, r18
    3b70:	80 83       	st	Z, r24
    3b72:	91 83       	std	Z+1, r25	; 0x01
    3b74:	a2 83       	std	Z+2, r26	; 0x02
    3b76:	b3 83       	std	Z+3, r27	; 0x03

00003b78 <.LBB278>:
	__tmp = ((F_CPU) / 4e3) * __ms;
    3b78:	8e 01       	movw	r16, r28
    3b7a:	07 5c       	subi	r16, 0xC7	; 199
    3b7c:	1e 4f       	sbci	r17, 0xFE	; 254
    3b7e:	ce 01       	movw	r24, r28
    3b80:	8b 5c       	subi	r24, 0xCB	; 203
    3b82:	9e 4f       	sbci	r25, 0xFE	; 254
    3b84:	20 e0       	ldi	r18, 0x00	; 0
    3b86:	30 e0       	ldi	r19, 0x00	; 0
    3b88:	4a e7       	ldi	r20, 0x7A	; 122
    3b8a:	55 e4       	ldi	r21, 0x45	; 69
    3b8c:	dc 01       	movw	r26, r24
    3b8e:	6d 91       	ld	r22, X+
    3b90:	7d 91       	ld	r23, X+
    3b92:	8d 91       	ld	r24, X+
    3b94:	9c 91       	ld	r25, X
    3b96:	0e 94 14 20 	call	0x4028	; 0x4028 <__mulsf3>
    3b9a:	c1 50       	subi	r28, 0x01	; 1
    3b9c:	dd 4f       	sbci	r29, 0xFD	; 253
    3b9e:	68 83       	st	Y, r22
    3ba0:	79 83       	std	Y+1, r23	; 0x01
    3ba2:	8a 83       	std	Y+2, r24	; 0x02
    3ba4:	9b 83       	std	Y+3, r25	; 0x03
    3ba6:	cf 5f       	subi	r28, 0xFF	; 255
    3ba8:	d2 40       	sbci	r29, 0x02	; 2
    3baa:	c1 50       	subi	r28, 0x01	; 1
    3bac:	dd 4f       	sbci	r29, 0xFD	; 253
    3bae:	28 81       	ld	r18, Y
    3bb0:	39 81       	ldd	r19, Y+1	; 0x01
    3bb2:	4a 81       	ldd	r20, Y+2	; 0x02
    3bb4:	5b 81       	ldd	r21, Y+3	; 0x03
    3bb6:	cf 5f       	subi	r28, 0xFF	; 255
    3bb8:	d2 40       	sbci	r29, 0x02	; 2
    3bba:	d8 01       	movw	r26, r16
    3bbc:	2d 93       	st	X+, r18
    3bbe:	3d 93       	st	X+, r19
    3bc0:	4d 93       	st	X+, r20
    3bc2:	5c 93       	st	X, r21
    3bc4:	13 97       	sbiw	r26, 0x03	; 3

00003bc6 <.Loc.780>:
	if (__tmp < 1.0)
    3bc6:	ce 01       	movw	r24, r28
    3bc8:	87 5c       	subi	r24, 0xC7	; 199
    3bca:	9e 4f       	sbci	r25, 0xFE	; 254
    3bcc:	20 e0       	ldi	r18, 0x00	; 0
    3bce:	30 e0       	ldi	r19, 0x00	; 0
    3bd0:	40 e8       	ldi	r20, 0x80	; 128
    3bd2:	5f e3       	ldi	r21, 0x3F	; 63
    3bd4:	fc 01       	movw	r30, r24
    3bd6:	60 81       	ld	r22, Z
    3bd8:	71 81       	ldd	r23, Z+1	; 0x01
    3bda:	82 81       	ldd	r24, Z+2	; 0x02
    3bdc:	93 81       	ldd	r25, Z+3	; 0x03
    3bde:	0e 94 8e 1f 	call	0x3f1c	; 0x3f1c <__cmpsf2>
    3be2:	88 23       	and	r24, r24
    3be4:	54 f4       	brge	.+20     	; 0x3bfa <.L364>

00003be6 <.Loc.781>:
		__ticks = 1;
    3be6:	ce 01       	movw	r24, r28
    3be8:	83 5c       	subi	r24, 0xC3	; 195
    3bea:	9e 4f       	sbci	r25, 0xFE	; 254
    3bec:	21 e0       	ldi	r18, 0x01	; 1
    3bee:	30 e0       	ldi	r19, 0x00	; 0
    3bf0:	dc 01       	movw	r26, r24
    3bf2:	11 96       	adiw	r26, 0x01	; 1
    3bf4:	3c 93       	st	X, r19
    3bf6:	2e 93       	st	-X, r18
    3bf8:	a5 c0       	rjmp	.+330    	; 0x3d44 <.L266>

00003bfa <.L364>:
	else if (__tmp > 65535)
    3bfa:	ce 01       	movw	r24, r28
    3bfc:	87 5c       	subi	r24, 0xC7	; 199
    3bfe:	9e 4f       	sbci	r25, 0xFE	; 254
    3c00:	20 e0       	ldi	r18, 0x00	; 0
    3c02:	3f ef       	ldi	r19, 0xFF	; 255
    3c04:	4f e7       	ldi	r20, 0x7F	; 127
    3c06:	57 e4       	ldi	r21, 0x47	; 71
    3c08:	fc 01       	movw	r30, r24
    3c0a:	60 81       	ld	r22, Z
    3c0c:	71 81       	ldd	r23, Z+1	; 0x01
    3c0e:	82 81       	ldd	r24, Z+2	; 0x02
    3c10:	93 81       	ldd	r25, Z+3	; 0x03
    3c12:	0e 94 0f 20 	call	0x401e	; 0x401e <__gesf2>
    3c16:	88 23       	and	r24, r24
    3c18:	09 f0       	breq	.+2      	; 0x3c1c <L0^A>

00003c1a <L0^A>:
    3c1a:	0c f4       	brge	.+2      	; 0x3c1e <.Loc.783>

00003c1c <L0^A>:
    3c1c:	75 c0       	rjmp	.+234    	; 0x3d08 <.L365>

00003c1e <.Loc.783>:
		__ticks = (uint16_t) (__ms * 10.0);
    3c1e:	ce 01       	movw	r24, r28
    3c20:	8b 5c       	subi	r24, 0xCB	; 203
    3c22:	9e 4f       	sbci	r25, 0xFE	; 254
    3c24:	20 e0       	ldi	r18, 0x00	; 0
    3c26:	30 e0       	ldi	r19, 0x00	; 0
    3c28:	40 e2       	ldi	r20, 0x20	; 32
    3c2a:	51 e4       	ldi	r21, 0x41	; 65
    3c2c:	dc 01       	movw	r26, r24
    3c2e:	6d 91       	ld	r22, X+
    3c30:	7d 91       	ld	r23, X+
    3c32:	8d 91       	ld	r24, X+
    3c34:	9c 91       	ld	r25, X
    3c36:	0e 94 14 20 	call	0x4028	; 0x4028 <__mulsf3>
    3c3a:	cd 5f       	subi	r28, 0xFD	; 253
    3c3c:	dc 4f       	sbci	r29, 0xFC	; 252
    3c3e:	68 83       	st	Y, r22
    3c40:	79 83       	std	Y+1, r23	; 0x01
    3c42:	8a 83       	std	Y+2, r24	; 0x02
    3c44:	9b 83       	std	Y+3, r25	; 0x03
    3c46:	c3 50       	subi	r28, 0x03	; 3
    3c48:	d3 40       	sbci	r29, 0x03	; 3
    3c4a:	cd 5f       	subi	r28, 0xFD	; 253
    3c4c:	dc 4f       	sbci	r29, 0xFC	; 252
    3c4e:	28 81       	ld	r18, Y
    3c50:	39 81       	ldd	r19, Y+1	; 0x01
    3c52:	4a 81       	ldd	r20, Y+2	; 0x02
    3c54:	5b 81       	ldd	r21, Y+3	; 0x03
    3c56:	c3 50       	subi	r28, 0x03	; 3
    3c58:	d3 40       	sbci	r29, 0x03	; 3
    3c5a:	c5 56       	subi	r28, 0x65	; 101
    3c5c:	de 4f       	sbci	r29, 0xFE	; 254
    3c5e:	28 83       	st	Y, r18
    3c60:	39 83       	std	Y+1, r19	; 0x01
    3c62:	4a 83       	std	Y+2, r20	; 0x02
    3c64:	5b 83       	std	Y+3, r21	; 0x03
    3c66:	cb 59       	subi	r28, 0x9B	; 155
    3c68:	d1 40       	sbci	r29, 0x01	; 1

00003c6a <.Loc.784>:
    3c6a:	8e 01       	movw	r16, r28
    3c6c:	03 5c       	subi	r16, 0xC3	; 195
    3c6e:	1e 4f       	sbci	r17, 0xFE	; 254
    3c70:	c5 56       	subi	r28, 0x65	; 101
    3c72:	de 4f       	sbci	r29, 0xFE	; 254
    3c74:	68 81       	ld	r22, Y
    3c76:	79 81       	ldd	r23, Y+1	; 0x01
    3c78:	8a 81       	ldd	r24, Y+2	; 0x02
    3c7a:	9b 81       	ldd	r25, Y+3	; 0x03
    3c7c:	cb 59       	subi	r28, 0x9B	; 155
    3c7e:	d1 40       	sbci	r29, 0x01	; 1
    3c80:	0e 94 93 1f 	call	0x3f26	; 0x3f26 <__fixunssfsi>
    3c84:	c9 5f       	subi	r28, 0xF9	; 249
    3c86:	dc 4f       	sbci	r29, 0xFC	; 252
    3c88:	68 83       	st	Y, r22
    3c8a:	79 83       	std	Y+1, r23	; 0x01
    3c8c:	8a 83       	std	Y+2, r24	; 0x02
    3c8e:	9b 83       	std	Y+3, r25	; 0x03
    3c90:	c7 50       	subi	r28, 0x07	; 7
    3c92:	d3 40       	sbci	r29, 0x03	; 3
    3c94:	c9 5f       	subi	r28, 0xF9	; 249
    3c96:	dc 4f       	sbci	r29, 0xFC	; 252
    3c98:	e8 81       	ld	r30, Y
    3c9a:	f9 81       	ldd	r31, Y+1	; 0x01
    3c9c:	c7 50       	subi	r28, 0x07	; 7
    3c9e:	d3 40       	sbci	r29, 0x03	; 3
    3ca0:	d8 01       	movw	r26, r16
    3ca2:	11 96       	adiw	r26, 0x01	; 1
    3ca4:	fc 93       	st	X, r31
    3ca6:	ee 93       	st	-X, r30

00003ca8 <.Loc.785>:
		while(__ticks)
    3ca8:	26 c0       	rjmp	.+76     	; 0x3cf6 <.L269>

00003caa <.L270>:
    3caa:	ce 01       	movw	r24, r28
    3cac:	81 5c       	subi	r24, 0xC1	; 193
    3cae:	9e 4f       	sbci	r25, 0xFE	; 254
    3cb0:	20 e9       	ldi	r18, 0x90	; 144
    3cb2:	31 e0       	ldi	r19, 0x01	; 1
    3cb4:	dc 01       	movw	r26, r24
    3cb6:	2d 93       	st	X+, r18
    3cb8:	3c 93       	st	X, r19

00003cba <.LBB280>:
    3cba:	ce 01       	movw	r24, r28
    3cbc:	81 5c       	subi	r24, 0xC1	; 193
    3cbe:	9e 4f       	sbci	r25, 0xFE	; 254
    3cc0:	fc 01       	movw	r30, r24
    3cc2:	80 81       	ld	r24, Z
    3cc4:	91 81       	ldd	r25, Z+1	; 0x01

00003cc6 <.L1^B46>:
    3cc6:	01 97       	sbiw	r24, 0x01	; 1
    3cc8:	f1 f7       	brne	.-4      	; 0x3cc6 <.L1^B46>
    3cca:	9e 01       	movw	r18, r28
    3ccc:	21 5c       	subi	r18, 0xC1	; 193
    3cce:	3e 4f       	sbci	r19, 0xFE	; 254
    3cd0:	d9 01       	movw	r26, r18
    3cd2:	8d 93       	st	X+, r24
    3cd4:	9c 93       	st	X, r25

00003cd6 <.Loc.787>:
	...

00003cd8 <.LBE280>:
			__ticks --;
    3cd8:	ce 01       	movw	r24, r28
    3cda:	83 5c       	subi	r24, 0xC3	; 195
    3cdc:	9e 4f       	sbci	r25, 0xFE	; 254
    3cde:	9e 01       	movw	r18, r28
    3ce0:	23 5c       	subi	r18, 0xC3	; 195
    3ce2:	3e 4f       	sbci	r19, 0xFE	; 254
    3ce4:	f9 01       	movw	r30, r18
    3ce6:	20 81       	ld	r18, Z
    3ce8:	31 81       	ldd	r19, Z+1	; 0x01
    3cea:	21 50       	subi	r18, 0x01	; 1
    3cec:	31 09       	sbc	r19, r1
    3cee:	dc 01       	movw	r26, r24
    3cf0:	11 96       	adiw	r26, 0x01	; 1
    3cf2:	3c 93       	st	X, r19
    3cf4:	2e 93       	st	-X, r18

00003cf6 <.L269>:
		while(__ticks)
    3cf6:	ce 01       	movw	r24, r28
    3cf8:	83 5c       	subi	r24, 0xC3	; 195
    3cfa:	9e 4f       	sbci	r25, 0xFE	; 254
    3cfc:	fc 01       	movw	r30, r24
    3cfe:	80 81       	ld	r24, Z
    3d00:	91 81       	ldd	r25, Z+1	; 0x01
    3d02:	00 97       	sbiw	r24, 0x00	; 0
    3d04:	91 f6       	brne	.-92     	; 0x3caa <.L270>

00003d06 <.Loc.790>:
		return;
    3d06:	39 c0       	rjmp	.+114    	; 0x3d7a <.L271>

00003d08 <.L365>:
		__ticks = (uint16_t)__tmp;
    3d08:	8e 01       	movw	r16, r28
    3d0a:	03 5c       	subi	r16, 0xC3	; 195
    3d0c:	1e 4f       	sbci	r17, 0xFE	; 254
    3d0e:	ce 01       	movw	r24, r28
    3d10:	87 5c       	subi	r24, 0xC7	; 199
    3d12:	9e 4f       	sbci	r25, 0xFE	; 254
    3d14:	dc 01       	movw	r26, r24
    3d16:	6d 91       	ld	r22, X+
    3d18:	7d 91       	ld	r23, X+
    3d1a:	8d 91       	ld	r24, X+
    3d1c:	9c 91       	ld	r25, X
    3d1e:	0e 94 93 1f 	call	0x3f26	; 0x3f26 <__fixunssfsi>
    3d22:	c5 5f       	subi	r28, 0xF5	; 245
    3d24:	dc 4f       	sbci	r29, 0xFC	; 252
    3d26:	68 83       	st	Y, r22
    3d28:	79 83       	std	Y+1, r23	; 0x01
    3d2a:	8a 83       	std	Y+2, r24	; 0x02
    3d2c:	9b 83       	std	Y+3, r25	; 0x03
    3d2e:	cb 50       	subi	r28, 0x0B	; 11
    3d30:	d3 40       	sbci	r29, 0x03	; 3
    3d32:	c5 5f       	subi	r28, 0xF5	; 245
    3d34:	dc 4f       	sbci	r29, 0xFC	; 252
    3d36:	28 81       	ld	r18, Y
    3d38:	39 81       	ldd	r19, Y+1	; 0x01
    3d3a:	cb 50       	subi	r28, 0x0B	; 11
    3d3c:	d3 40       	sbci	r29, 0x03	; 3
    3d3e:	f8 01       	movw	r30, r16
    3d40:	31 83       	std	Z+1, r19	; 0x01
    3d42:	20 83       	st	Z, r18

00003d44 <.L266>:
    3d44:	ce 01       	movw	r24, r28
    3d46:	8f 5b       	subi	r24, 0xBF	; 191
    3d48:	9e 4f       	sbci	r25, 0xFE	; 254
    3d4a:	9e 01       	movw	r18, r28
    3d4c:	23 5c       	subi	r18, 0xC3	; 195
    3d4e:	3e 4f       	sbci	r19, 0xFE	; 254
    3d50:	d9 01       	movw	r26, r18
    3d52:	2d 91       	ld	r18, X+
    3d54:	3c 91       	ld	r19, X
    3d56:	fc 01       	movw	r30, r24
    3d58:	31 83       	std	Z+1, r19	; 0x01
    3d5a:	20 83       	st	Z, r18

00003d5c <.LBB282>:
    3d5c:	ce 01       	movw	r24, r28
    3d5e:	8f 5b       	subi	r24, 0xBF	; 191
    3d60:	9e 4f       	sbci	r25, 0xFE	; 254
    3d62:	dc 01       	movw	r26, r24
    3d64:	8d 91       	ld	r24, X+
    3d66:	9c 91       	ld	r25, X

00003d68 <.L1^B47>:
    3d68:	01 97       	sbiw	r24, 0x01	; 1
    3d6a:	f1 f7       	brne	.-4      	; 0x3d68 <.L1^B47>
    3d6c:	9e 01       	movw	r18, r28
    3d6e:	2f 5b       	subi	r18, 0xBF	; 191
    3d70:	3e 4f       	sbci	r19, 0xFE	; 254
    3d72:	f9 01       	movw	r30, r18
    3d74:	91 83       	std	Z+1, r25	; 0x01
    3d76:	80 83       	st	Z, r24

00003d78 <.Loc.793>:
	...

00003d7a <.L271>:
                    _delay_ms(1500);//Yeag replace this with a timer instead in the final release.
                    h_bridge_set_percentage(0);
    3d7a:	80 e0       	ldi	r24, 0x00	; 0
    3d7c:	0e 94 bd 01 	call	0x37a	; 0x37a <h_bridge_set_percentage>

00003d80 <.Loc.795>:

                    PORTA = ~(1 << (PA1));//Magneet laat los
    3d80:	82 e2       	ldi	r24, 0x22	; 34
    3d82:	90 e0       	ldi	r25, 0x00	; 0

00003d84 <.Loc.796>:
    3d84:	2d ef       	ldi	r18, 0xFD	; 253
    3d86:	dc 01       	movw	r26, r24
    3d88:	2c 93       	st	X, r18

00003d8a <.Loc.797>:
                    PORTB ^= (1 << PB4); //Debug Light Magnet
    3d8a:	85 e2       	ldi	r24, 0x25	; 37
    3d8c:	90 e0       	ldi	r25, 0x00	; 0
    3d8e:	fc 01       	movw	r30, r24
    3d90:	30 81       	ld	r19, Z
    3d92:	85 e2       	ldi	r24, 0x25	; 37
    3d94:	90 e0       	ldi	r25, 0x00	; 0

00003d96 <.Loc.798>:
    3d96:	20 e1       	ldi	r18, 0x10	; 16
    3d98:	23 27       	eor	r18, r19
    3d9a:	dc 01       	movw	r26, r24
    3d9c:	2c 93       	st	X, r18

00003d9e <.Loc.799>:

                    MenuLayer = 65;
    3d9e:	81 e4       	ldi	r24, 0x41	; 65
    3da0:	90 e0       	ldi	r25, 0x00	; 0
    3da2:	90 93 01 02 	sts	0x0201, r25	; 0x800201 <MenuLayer+0x1>
    3da6:	80 93 00 02 	sts	0x0200, r24	; 0x800200 <MenuLayer>

00003daa <.Loc.800>:
                }break;
    3daa:	49 c0       	rjmp	.+146    	; 0x3e3e <.L44>

00003dac <.L47>:


                case 65:{
                    h_bridge_set_percentage(-20);
    3dac:	8c ee       	ldi	r24, 0xEC	; 236
    3dae:	0e 94 bd 01 	call	0x37a	; 0x37a <h_bridge_set_percentage>

00003db2 <.Loc.802>:
                        if (PINC & (1 << PC2)) {
    3db2:	86 e2       	ldi	r24, 0x26	; 38
    3db4:	90 e0       	ldi	r25, 0x00	; 0
    3db6:	fc 01       	movw	r30, r24
    3db8:	80 81       	ld	r24, Z

00003dba <.Loc.803>:
    3dba:	88 2f       	mov	r24, r24
    3dbc:	90 e0       	ldi	r25, 0x00	; 0
    3dbe:	84 70       	andi	r24, 0x04	; 4
    3dc0:	99 27       	eor	r25, r25

00003dc2 <.Loc.804>:
    3dc2:	00 97       	sbiw	r24, 0x00	; 0
    3dc4:	d9 f1       	breq	.+118    	; 0x3e3c <.L370>

00003dc6 <.Loc.805>:
                            h_bridge_set_percentage(0);
    3dc6:	80 e0       	ldi	r24, 0x00	; 0
    3dc8:	0e 94 bd 01 	call	0x37a	; 0x37a <h_bridge_set_percentage>

00003dcc <.Loc.806>:

                            PORTA = (1 << PA4);//Switch Relais off of Z-as.
    3dcc:	82 e2       	ldi	r24, 0x22	; 34
    3dce:	90 e0       	ldi	r25, 0x00	; 0

00003dd0 <.Loc.807>:
    3dd0:	20 e1       	ldi	r18, 0x10	; 16
    3dd2:	dc 01       	movw	r26, r24
    3dd4:	2c 93       	st	X, r18

00003dd6 <.Loc.808>:
                            PORTB ^= (1 << PB5); //Debug Light Z-as
    3dd6:	85 e2       	ldi	r24, 0x25	; 37
    3dd8:	90 e0       	ldi	r25, 0x00	; 0
    3dda:	fc 01       	movw	r30, r24
    3ddc:	30 81       	ld	r19, Z
    3dde:	85 e2       	ldi	r24, 0x25	; 37
    3de0:	90 e0       	ldi	r25, 0x00	; 0

00003de2 <.Loc.809>:
    3de2:	20 e2       	ldi	r18, 0x20	; 32
    3de4:	23 27       	eor	r18, r19
    3de6:	dc 01       	movw	r26, r24
    3de8:	2c 93       	st	X, r18

00003dea <.Loc.810>:
                            PORTA = (1 << (PA1));//Magneet kleeft weer (energy saving measure)
    3dea:	82 e2       	ldi	r24, 0x22	; 34
    3dec:	90 e0       	ldi	r25, 0x00	; 0

00003dee <.Loc.811>:
    3dee:	22 e0       	ldi	r18, 0x02	; 2
    3df0:	fc 01       	movw	r30, r24
    3df2:	20 83       	st	Z, r18

00003df4 <.Loc.812>:
                            PORTB ^= (1 << PB4); //Debug Light Magnet
    3df4:	85 e2       	ldi	r24, 0x25	; 37
    3df6:	90 e0       	ldi	r25, 0x00	; 0
    3df8:	dc 01       	movw	r26, r24
    3dfa:	3c 91       	ld	r19, X
    3dfc:	85 e2       	ldi	r24, 0x25	; 37
    3dfe:	90 e0       	ldi	r25, 0x00	; 0

00003e00 <.Loc.813>:
    3e00:	20 e1       	ldi	r18, 0x10	; 16
    3e02:	23 27       	eor	r18, r19
    3e04:	fc 01       	movw	r30, r24
    3e06:	20 83       	st	Z, r18

00003e08 <.Loc.814>:
                            MenuLayer = 70;
    3e08:	86 e4       	ldi	r24, 0x46	; 70
    3e0a:	90 e0       	ldi	r25, 0x00	; 0
    3e0c:	90 93 01 02 	sts	0x0201, r25	; 0x800201 <MenuLayer+0x1>
    3e10:	80 93 00 02 	sts	0x0200, r24	; 0x800200 <MenuLayer>

00003e14 <.Loc.815>:
                            }
                }break;
    3e14:	13 c0       	rjmp	.+38     	; 0x3e3c <.L370>

00003e16 <.L45>:


                case 70:{
                    MenuLayer = 10;
    3e16:	8a e0       	ldi	r24, 0x0A	; 10
    3e18:	90 e0       	ldi	r25, 0x00	; 0
    3e1a:	90 93 01 02 	sts	0x0201, r25	; 0x800201 <MenuLayer+0x1>
    3e1e:	80 93 00 02 	sts	0x0200, r24	; 0x800200 <MenuLayer>

00003e22 <.Loc.817>:
                }break;
    3e22:	0d c0       	rjmp	.+26     	; 0x3e3e <.L44>

00003e24 <.L366>:
                }break;
    3e24:	00 00       	nop
    3e26:	0c 94 bb 03 	jmp	0x776	; 0x776 <.L273>

00003e2a <.L367>:
                }break;
    3e2a:	00 00       	nop
    3e2c:	0c 94 bb 03 	jmp	0x776	; 0x776 <.L273>

00003e30 <.L368>:
                }break;
    3e30:	00 00       	nop
    3e32:	0c 94 bb 03 	jmp	0x776	; 0x776 <.L273>

00003e36 <.L369>:
                }break;
    3e36:	00 00       	nop
    3e38:	0c 94 bb 03 	jmp	0x776	; 0x776 <.L273>

00003e3c <.L370>:
	...

00003e3e <.L44>:
                if (PIND & (1 << PD0))  //Noodstop Ding
    3e3e:	0c 94 bb 03 	jmp	0x776	; 0x776 <.L273>

00003e42 <__vector_42>:
    return 0;
}


ISR(TIMER4_COMPA_vect)
{
    3e42:	1f 92       	push	r1
    3e44:	0f 92       	push	r0
    3e46:	0f b6       	in	r0, 0x3f	; 63
    3e48:	0f 92       	push	r0
    3e4a:	11 24       	eor	r1, r1
    3e4c:	2f 93       	push	r18
    3e4e:	3f 93       	push	r19
    3e50:	5f 93       	push	r21
    3e52:	6f 93       	push	r22
    3e54:	7f 93       	push	r23
    3e56:	8f 93       	push	r24
    3e58:	9f 93       	push	r25
    3e5a:	af 93       	push	r26
    3e5c:	bf 93       	push	r27
    3e5e:	cf 93       	push	r28
    3e60:	df 93       	push	r29
    3e62:	cd b7       	in	r28, 0x3d	; 61
    3e64:	de b7       	in	r29, 0x3e	; 62

00003e66 <.Loc.825>:

    {
    o=n%10;
    3e66:	80 91 12 02 	lds	r24, 0x0212	; 0x800212 <n>
    3e6a:	90 91 13 02 	lds	r25, 0x0213	; 0x800213 <n+0x1>
    3e6e:	2a e0       	ldi	r18, 0x0A	; 10
    3e70:	30 e0       	ldi	r19, 0x00	; 0
    3e72:	b9 01       	movw	r22, r18
    3e74:	0e 94 4f 1f 	call	0x3e9e	; 0x3e9e <__divmodhi4>

00003e78 <.Loc.826>:
    3e78:	80 93 14 02 	sts	0x0214, r24	; 0x800214 <o>

00003e7c <.Loc.827>:
	//t=(n/10)%10;
    }


}
    3e7c:	00 00       	nop
    3e7e:	df 91       	pop	r29
    3e80:	cf 91       	pop	r28
    3e82:	bf 91       	pop	r27
    3e84:	af 91       	pop	r26
    3e86:	9f 91       	pop	r25
    3e88:	8f 91       	pop	r24
    3e8a:	7f 91       	pop	r23
    3e8c:	6f 91       	pop	r22
    3e8e:	5f 91       	pop	r21
    3e90:	3f 91       	pop	r19
    3e92:	2f 91       	pop	r18
    3e94:	0f 90       	pop	r0
    3e96:	0f be       	out	0x3f, r0	; 63
    3e98:	0f 90       	pop	r0
    3e9a:	1f 90       	pop	r1
    3e9c:	18 95       	reti

00003e9e <__divmodhi4>:
    3e9e:	97 fb       	bst	r25, 7

00003ea0 <.Loc.1>:
    3ea0:	07 2e       	mov	r0, r23

00003ea2 <.Loc.2>:
    3ea2:	16 f4       	brtc	.+4      	; 0x3ea8 <.L^B1>

00003ea4 <.Loc.3>:
    3ea4:	00 94       	com	r0

00003ea6 <.Loc.4>:
    3ea6:	07 d0       	rcall	.+14     	; 0x3eb6 <__divmodhi4_neg1>

00003ea8 <.L^B1>:
    3ea8:	77 fd       	sbrc	r23, 7

00003eaa <.Loc.6>:
    3eaa:	09 d0       	rcall	.+18     	; 0x3ebe <__divmodhi4_neg2>

00003eac <.Loc.7>:
    3eac:	0e 94 7a 1f 	call	0x3ef4	; 0x3ef4 <__udivmodhi4>

00003eb0 <.Loc.8>:
    3eb0:	07 fc       	sbrc	r0, 7

00003eb2 <.Loc.9>:
    3eb2:	05 d0       	rcall	.+10     	; 0x3ebe <__divmodhi4_neg2>

00003eb4 <.Loc.10>:
    3eb4:	3e f4       	brtc	.+14     	; 0x3ec4 <__divmodhi4_exit>

00003eb6 <__divmodhi4_neg1>:
    3eb6:	90 95       	com	r25

00003eb8 <.Loc.12>:
    3eb8:	81 95       	neg	r24

00003eba <.Loc.13>:
    3eba:	9f 4f       	sbci	r25, 0xFF	; 255

00003ebc <.Loc.14>:
    3ebc:	08 95       	ret

00003ebe <__divmodhi4_neg2>:
    3ebe:	70 95       	com	r23

00003ec0 <.Loc.16>:
    3ec0:	61 95       	neg	r22

00003ec2 <.Loc.17>:
    3ec2:	7f 4f       	sbci	r23, 0xFF	; 255

00003ec4 <__divmodhi4_exit>:
    3ec4:	08 95       	ret

00003ec6 <__tablejump2__>:
    3ec6:	ee 0f       	add	r30, r30

00003ec8 <.Loc.1>:
    3ec8:	ff 1f       	adc	r31, r31

00003eca <.Loc.2>:
    3eca:	88 1f       	adc	r24, r24

00003ecc <.Loc.3>:
    3ecc:	8b bf       	out	0x3b, r24	; 59

00003ece <.Loc.4>:
    3ece:	07 90       	elpm	r0, Z+

00003ed0 <.Loc.5>:
    3ed0:	f6 91       	elpm	r31, Z

00003ed2 <.Loc.6>:
    3ed2:	e0 2d       	mov	r30, r0

00003ed4 <.Loc.7>:
    3ed4:	19 94       	eijmp

00003ed6 <__umulhisi3>:
    3ed6:	a2 9f       	mul	r26, r18

00003ed8 <.Loc.1>:
    3ed8:	b0 01       	movw	r22, r0

00003eda <.Loc.2>:
    3eda:	b3 9f       	mul	r27, r19

00003edc <.Loc.3>:
    3edc:	c0 01       	movw	r24, r0

00003ede <.Loc.4>:
    3ede:	a3 9f       	mul	r26, r19

00003ee0 <.Loc.5>:
    3ee0:	70 0d       	add	r23, r0

00003ee2 <.Loc.6>:
    3ee2:	81 1d       	adc	r24, r1

00003ee4 <.Loc.7>:
    3ee4:	11 24       	eor	r1, r1

00003ee6 <.Loc.8>:
    3ee6:	91 1d       	adc	r25, r1

00003ee8 <.Loc.9>:
    3ee8:	b2 9f       	mul	r27, r18

00003eea <.Loc.10>:
    3eea:	70 0d       	add	r23, r0

00003eec <.Loc.11>:
    3eec:	81 1d       	adc	r24, r1

00003eee <.Loc.12>:
    3eee:	11 24       	eor	r1, r1

00003ef0 <.Loc.13>:
    3ef0:	91 1d       	adc	r25, r1

00003ef2 <.Loc.14>:
    3ef2:	08 95       	ret

00003ef4 <__udivmodhi4>:
    3ef4:	aa 1b       	sub	r26, r26

00003ef6 <.Loc.1>:
    3ef6:	bb 1b       	sub	r27, r27

00003ef8 <.Loc.2>:
    3ef8:	51 e1       	ldi	r21, 0x11	; 17

00003efa <.Loc.3>:
    3efa:	07 c0       	rjmp	.+14     	; 0x3f0a <__udivmodhi4_ep>

00003efc <__udivmodhi4_loop>:
    3efc:	aa 1f       	adc	r26, r26

00003efe <.Loc.5>:
    3efe:	bb 1f       	adc	r27, r27

00003f00 <.Loc.6>:
    3f00:	a6 17       	cp	r26, r22

00003f02 <.Loc.7>:
    3f02:	b7 07       	cpc	r27, r23

00003f04 <.Loc.8>:
    3f04:	10 f0       	brcs	.+4      	; 0x3f0a <__udivmodhi4_ep>

00003f06 <.Loc.9>:
    3f06:	a6 1b       	sub	r26, r22

00003f08 <.Loc.10>:
    3f08:	b7 0b       	sbc	r27, r23

00003f0a <__udivmodhi4_ep>:
    3f0a:	88 1f       	adc	r24, r24

00003f0c <.Loc.12>:
    3f0c:	99 1f       	adc	r25, r25

00003f0e <.Loc.13>:
    3f0e:	5a 95       	dec	r21

00003f10 <.Loc.14>:
    3f10:	a9 f7       	brne	.-22     	; 0x3efc <__udivmodhi4_loop>

00003f12 <.Loc.15>:
    3f12:	80 95       	com	r24

00003f14 <.Loc.16>:
    3f14:	90 95       	com	r25

00003f16 <.Loc.17>:
    3f16:	bc 01       	movw	r22, r24

00003f18 <.Loc.18>:
    3f18:	cd 01       	movw	r24, r26

00003f1a <.Loc.19>:
    3f1a:	08 95       	ret

00003f1c <__cmpsf2>:
    3f1c:	0e 94 c2 1f 	call	0x3f84	; 0x3f84 <__fp_cmp>
    3f20:	08 f4       	brcc	.+2      	; 0x3f24 <.L1^B1>
    3f22:	81 e0       	ldi	r24, 0x01	; 1

00003f24 <.L1^B1>:
    3f24:	08 95       	ret

00003f26 <__fixunssfsi>:
    3f26:	0e 94 ee 1f 	call	0x3fdc	; 0x3fdc <__fp_splitA>
    3f2a:	88 f0       	brcs	.+34     	; 0x3f4e <.L_err>
    3f2c:	9f 57       	subi	r25, 0x7F	; 127
    3f2e:	98 f0       	brcs	.+38     	; 0x3f56 <.L_zr>
    3f30:	b9 2f       	mov	r27, r25
    3f32:	99 27       	eor	r25, r25
    3f34:	b7 51       	subi	r27, 0x17	; 23
    3f36:	b0 f0       	brcs	.+44     	; 0x3f64 <.L4^B1>
    3f38:	e1 f0       	breq	.+56     	; 0x3f72 <.L_sign>

00003f3a <.L1^B1>:
    3f3a:	66 0f       	add	r22, r22
    3f3c:	77 1f       	adc	r23, r23
    3f3e:	88 1f       	adc	r24, r24
    3f40:	99 1f       	adc	r25, r25
    3f42:	1a f0       	brmi	.+6      	; 0x3f4a <.L2^B1>
    3f44:	ba 95       	dec	r27
    3f46:	c9 f7       	brne	.-14     	; 0x3f3a <.L1^B1>
    3f48:	14 c0       	rjmp	.+40     	; 0x3f72 <.L_sign>

00003f4a <.L2^B1>:
    3f4a:	b1 30       	cpi	r27, 0x01	; 1
    3f4c:	91 f0       	breq	.+36     	; 0x3f72 <.L_sign>

00003f4e <.L_err>:
    3f4e:	0e 94 08 20 	call	0x4010	; 0x4010 <__fp_zero>
    3f52:	b1 e0       	ldi	r27, 0x01	; 1
    3f54:	08 95       	ret

00003f56 <.L_zr>:
    3f56:	0c 94 08 20 	jmp	0x4010	; 0x4010 <__fp_zero>

00003f5a <.L3^B1>:
    3f5a:	67 2f       	mov	r22, r23
    3f5c:	78 2f       	mov	r23, r24
    3f5e:	88 27       	eor	r24, r24
    3f60:	b8 5f       	subi	r27, 0xF8	; 248
    3f62:	39 f0       	breq	.+14     	; 0x3f72 <.L_sign>

00003f64 <.L4^B1>:
    3f64:	b9 3f       	cpi	r27, 0xF9	; 249
    3f66:	cc f3       	brlt	.-14     	; 0x3f5a <.L3^B1>

00003f68 <.L5^B1>:
    3f68:	86 95       	lsr	r24
    3f6a:	77 95       	ror	r23
    3f6c:	67 95       	ror	r22
    3f6e:	b3 95       	inc	r27
    3f70:	d9 f7       	brne	.-10     	; 0x3f68 <.L5^B1>

00003f72 <.L_sign>:
    3f72:	3e f4       	brtc	.+14     	; 0x3f82 <.L6^B1>
    3f74:	90 95       	com	r25
    3f76:	80 95       	com	r24
    3f78:	70 95       	com	r23
    3f7a:	61 95       	neg	r22
    3f7c:	7f 4f       	sbci	r23, 0xFF	; 255
    3f7e:	8f 4f       	sbci	r24, 0xFF	; 255
    3f80:	9f 4f       	sbci	r25, 0xFF	; 255

00003f82 <.L6^B1>:
    3f82:	08 95       	ret

00003f84 <__fp_cmp>:
    3f84:	99 0f       	add	r25, r25
    3f86:	00 08       	sbc	r0, r0
    3f88:	55 0f       	add	r21, r21
    3f8a:	aa 0b       	sbc	r26, r26
    3f8c:	e0 e8       	ldi	r30, 0x80	; 128
    3f8e:	fe ef       	ldi	r31, 0xFE	; 254
    3f90:	16 16       	cp	r1, r22
    3f92:	17 06       	cpc	r1, r23
    3f94:	e8 07       	cpc	r30, r24
    3f96:	f9 07       	cpc	r31, r25
    3f98:	c0 f0       	brcs	.+48     	; 0x3fca <.L9^B1>
    3f9a:	12 16       	cp	r1, r18
    3f9c:	13 06       	cpc	r1, r19
    3f9e:	e4 07       	cpc	r30, r20
    3fa0:	f5 07       	cpc	r31, r21
    3fa2:	98 f0       	brcs	.+38     	; 0x3fca <.L9^B1>
    3fa4:	62 1b       	sub	r22, r18
    3fa6:	73 0b       	sbc	r23, r19
    3fa8:	84 0b       	sbc	r24, r20
    3faa:	95 0b       	sbc	r25, r21
    3fac:	39 f4       	brne	.+14     	; 0x3fbc <.L1^B1>
    3fae:	0a 26       	eor	r0, r26
    3fb0:	61 f0       	breq	.+24     	; 0x3fca <.L9^B1>
    3fb2:	23 2b       	or	r18, r19
    3fb4:	24 2b       	or	r18, r20
    3fb6:	25 2b       	or	r18, r21
    3fb8:	21 f4       	brne	.+8      	; 0x3fc2 <.L2^B1>
    3fba:	08 95       	ret

00003fbc <.L1^B1>:
    3fbc:	0a 26       	eor	r0, r26
    3fbe:	09 f4       	brne	.+2      	; 0x3fc2 <.L2^B1>
    3fc0:	a1 40       	sbci	r26, 0x01	; 1

00003fc2 <.L2^B1>:
    3fc2:	a6 95       	lsr	r26
    3fc4:	8f ef       	ldi	r24, 0xFF	; 255
    3fc6:	81 1d       	adc	r24, r1
    3fc8:	81 1d       	adc	r24, r1

00003fca <.L9^B1>:
    3fca:	08 95       	ret

00003fcc <__fp_split3>:
    3fcc:	57 fd       	sbrc	r21, 7
    3fce:	90 58       	subi	r25, 0x80	; 128
    3fd0:	44 0f       	add	r20, r20
    3fd2:	55 1f       	adc	r21, r21
    3fd4:	59 f0       	breq	.+22     	; 0x3fec <.L4^B1>
    3fd6:	5f 3f       	cpi	r21, 0xFF	; 255
    3fd8:	71 f0       	breq	.+28     	; 0x3ff6 <.L5^B1>

00003fda <.L1^B1>:
    3fda:	47 95       	ror	r20

00003fdc <__fp_splitA>:
    3fdc:	88 0f       	add	r24, r24
    3fde:	97 fb       	bst	r25, 7
    3fe0:	99 1f       	adc	r25, r25
    3fe2:	61 f0       	breq	.+24     	; 0x3ffc <.L6^B1>
    3fe4:	9f 3f       	cpi	r25, 0xFF	; 255
    3fe6:	79 f0       	breq	.+30     	; 0x4006 <.L7^B1>

00003fe8 <.L3^B1>:
    3fe8:	87 95       	ror	r24
    3fea:	08 95       	ret

00003fec <.L4^B1>:
    3fec:	12 16       	cp	r1, r18
    3fee:	13 06       	cpc	r1, r19
    3ff0:	14 06       	cpc	r1, r20
    3ff2:	55 1f       	adc	r21, r21
    3ff4:	f2 cf       	rjmp	.-28     	; 0x3fda <.L1^B1>

00003ff6 <.L5^B1>:
    3ff6:	46 95       	lsr	r20
    3ff8:	f1 df       	rcall	.-30     	; 0x3fdc <__fp_splitA>
    3ffa:	08 c0       	rjmp	.+16     	; 0x400c <.L8^B1>

00003ffc <.L6^B1>:
    3ffc:	16 16       	cp	r1, r22
    3ffe:	17 06       	cpc	r1, r23
    4000:	18 06       	cpc	r1, r24
    4002:	99 1f       	adc	r25, r25
    4004:	f1 cf       	rjmp	.-30     	; 0x3fe8 <.L3^B1>

00004006 <.L7^B1>:
    4006:	86 95       	lsr	r24
    4008:	71 05       	cpc	r23, r1
    400a:	61 05       	cpc	r22, r1

0000400c <.L8^B1>:
    400c:	08 94       	sec
    400e:	08 95       	ret

00004010 <__fp_zero>:
    4010:	e8 94       	clt

00004012 <__fp_szero>:
    4012:	bb 27       	eor	r27, r27
    4014:	66 27       	eor	r22, r22
    4016:	77 27       	eor	r23, r23
    4018:	cb 01       	movw	r24, r22
    401a:	97 f9       	bld	r25, 7
    401c:	08 95       	ret

0000401e <__gesf2>:
    401e:	0e 94 c2 1f 	call	0x3f84	; 0x3f84 <__fp_cmp>
    4022:	08 f4       	brcc	.+2      	; 0x4026 <.L1^B1>
    4024:	8f ef       	ldi	r24, 0xFF	; 255

00004026 <.L1^B1>:
    4026:	08 95       	ret

00004028 <__mulsf3>:
    4028:	0e 94 27 20 	call	0x404e	; 0x404e <__mulsf3x>
    402c:	0c 94 98 20 	jmp	0x4130	; 0x4130 <__fp_round>

00004030 <.L^B1>:
    4030:	0e 94 8a 20 	call	0x4114	; 0x4114 <__fp_pscA>
    4034:	38 f0       	brcs	.+14     	; 0x4044 <.L1^B1>
    4036:	0e 94 91 20 	call	0x4122	; 0x4122 <__fp_pscB>
    403a:	20 f0       	brcs	.+8      	; 0x4044 <.L1^B1>
    403c:	95 23       	and	r25, r21
    403e:	11 f0       	breq	.+4      	; 0x4044 <.L1^B1>
    4040:	0c 94 81 20 	jmp	0x4102	; 0x4102 <__fp_inf>

00004044 <.L1^B1>:
    4044:	0c 94 87 20 	jmp	0x410e	; 0x410e <__fp_nan>

00004048 <.L2^B1>:
    4048:	11 24       	eor	r1, r1
    404a:	0c 94 09 20 	jmp	0x4012	; 0x4012 <__fp_szero>

0000404e <__mulsf3x>:
    404e:	0e 94 e6 1f 	call	0x3fcc	; 0x3fcc <__fp_split3>
    4052:	70 f3       	brcs	.-36     	; 0x4030 <.L^B1>

00004054 <__mulsf3_pse>:
    4054:	95 9f       	mul	r25, r21
    4056:	c1 f3       	breq	.-16     	; 0x4048 <.L2^B1>
    4058:	95 0f       	add	r25, r21
    405a:	50 e0       	ldi	r21, 0x00	; 0
    405c:	55 1f       	adc	r21, r21
    405e:	62 9f       	mul	r22, r18
    4060:	f0 01       	movw	r30, r0
    4062:	72 9f       	mul	r23, r18
    4064:	bb 27       	eor	r27, r27
    4066:	f0 0d       	add	r31, r0
    4068:	b1 1d       	adc	r27, r1
    406a:	63 9f       	mul	r22, r19
    406c:	aa 27       	eor	r26, r26
    406e:	f0 0d       	add	r31, r0
    4070:	b1 1d       	adc	r27, r1
    4072:	aa 1f       	adc	r26, r26
    4074:	64 9f       	mul	r22, r20
    4076:	66 27       	eor	r22, r22
    4078:	b0 0d       	add	r27, r0
    407a:	a1 1d       	adc	r26, r1
    407c:	66 1f       	adc	r22, r22
    407e:	82 9f       	mul	r24, r18
    4080:	22 27       	eor	r18, r18
    4082:	b0 0d       	add	r27, r0
    4084:	a1 1d       	adc	r26, r1
    4086:	62 1f       	adc	r22, r18
    4088:	73 9f       	mul	r23, r19
    408a:	b0 0d       	add	r27, r0
    408c:	a1 1d       	adc	r26, r1
    408e:	62 1f       	adc	r22, r18
    4090:	83 9f       	mul	r24, r19
    4092:	a0 0d       	add	r26, r0
    4094:	61 1d       	adc	r22, r1
    4096:	22 1f       	adc	r18, r18
    4098:	74 9f       	mul	r23, r20
    409a:	33 27       	eor	r19, r19
    409c:	a0 0d       	add	r26, r0
    409e:	61 1d       	adc	r22, r1
    40a0:	23 1f       	adc	r18, r19
    40a2:	84 9f       	mul	r24, r20
    40a4:	60 0d       	add	r22, r0
    40a6:	21 1d       	adc	r18, r1
    40a8:	82 2f       	mov	r24, r18
    40aa:	76 2f       	mov	r23, r22
    40ac:	6a 2f       	mov	r22, r26
    40ae:	11 24       	eor	r1, r1
    40b0:	9f 57       	subi	r25, 0x7F	; 127
    40b2:	50 40       	sbci	r21, 0x00	; 0
    40b4:	9a f0       	brmi	.+38     	; 0x40dc <.L13^B1>
    40b6:	f1 f0       	breq	.+60     	; 0x40f4 <.L15^B1>

000040b8 <.L10^B1>:
    40b8:	88 23       	and	r24, r24
    40ba:	4a f0       	brmi	.+18     	; 0x40ce <.L11^B1>
    40bc:	ee 0f       	add	r30, r30
    40be:	ff 1f       	adc	r31, r31
    40c0:	bb 1f       	adc	r27, r27
    40c2:	66 1f       	adc	r22, r22
    40c4:	77 1f       	adc	r23, r23
    40c6:	88 1f       	adc	r24, r24
    40c8:	91 50       	subi	r25, 0x01	; 1
    40ca:	50 40       	sbci	r21, 0x00	; 0
    40cc:	a9 f7       	brne	.-22     	; 0x40b8 <.L10^B1>

000040ce <.L11^B1>:
    40ce:	9e 3f       	cpi	r25, 0xFE	; 254
    40d0:	51 05       	cpc	r21, r1
    40d2:	80 f0       	brcs	.+32     	; 0x40f4 <.L15^B1>
    40d4:	0c 94 81 20 	jmp	0x4102	; 0x4102 <__fp_inf>

000040d8 <.L12^B1>:
    40d8:	0c 94 09 20 	jmp	0x4012	; 0x4012 <__fp_szero>

000040dc <.L13^B1>:
    40dc:	5f 3f       	cpi	r21, 0xFF	; 255
    40de:	e4 f3       	brlt	.-8      	; 0x40d8 <.L12^B1>
    40e0:	98 3e       	cpi	r25, 0xE8	; 232
    40e2:	d4 f3       	brlt	.-12     	; 0x40d8 <.L12^B1>

000040e4 <.L14^B1>:
    40e4:	86 95       	lsr	r24
    40e6:	77 95       	ror	r23
    40e8:	67 95       	ror	r22
    40ea:	b7 95       	ror	r27
    40ec:	f7 95       	ror	r31
    40ee:	e7 95       	ror	r30
    40f0:	9f 5f       	subi	r25, 0xFF	; 255
    40f2:	c1 f7       	brne	.-16     	; 0x40e4 <.L14^B1>

000040f4 <.L15^B1>:
    40f4:	fe 2b       	or	r31, r30
    40f6:	88 0f       	add	r24, r24
    40f8:	91 1d       	adc	r25, r1
    40fa:	96 95       	lsr	r25
    40fc:	87 95       	ror	r24
    40fe:	97 f9       	bld	r25, 7
    4100:	08 95       	ret

00004102 <__fp_inf>:
    4102:	97 f9       	bld	r25, 7
    4104:	9f 67       	ori	r25, 0x7F	; 127
    4106:	80 e8       	ldi	r24, 0x80	; 128
    4108:	70 e0       	ldi	r23, 0x00	; 0
    410a:	60 e0       	ldi	r22, 0x00	; 0
    410c:	08 95       	ret

0000410e <__fp_nan>:
    410e:	9f ef       	ldi	r25, 0xFF	; 255
    4110:	80 ec       	ldi	r24, 0xC0	; 192
    4112:	08 95       	ret

00004114 <__fp_pscA>:
    4114:	00 24       	eor	r0, r0
    4116:	0a 94       	dec	r0
    4118:	16 16       	cp	r1, r22
    411a:	17 06       	cpc	r1, r23
    411c:	18 06       	cpc	r1, r24
    411e:	09 06       	cpc	r0, r25
    4120:	08 95       	ret

00004122 <__fp_pscB>:
    4122:	00 24       	eor	r0, r0
    4124:	0a 94       	dec	r0
    4126:	12 16       	cp	r1, r18
    4128:	13 06       	cpc	r1, r19
    412a:	14 06       	cpc	r1, r20
    412c:	05 06       	cpc	r0, r21
    412e:	08 95       	ret

00004130 <__fp_round>:
    4130:	09 2e       	mov	r0, r25
    4132:	03 94       	inc	r0
    4134:	00 0c       	add	r0, r0
    4136:	11 f4       	brne	.+4      	; 0x413c <.L1^B1>
    4138:	88 23       	and	r24, r24
    413a:	52 f0       	brmi	.+20     	; 0x4150 <.L3^B1>

0000413c <.L1^B1>:
    413c:	bb 0f       	add	r27, r27
    413e:	40 f4       	brcc	.+16     	; 0x4150 <.L3^B1>
    4140:	bf 2b       	or	r27, r31
    4142:	11 f4       	brne	.+4      	; 0x4148 <.L2^B1>
    4144:	60 ff       	sbrs	r22, 0
    4146:	04 c0       	rjmp	.+8      	; 0x4150 <.L3^B1>

00004148 <.L2^B1>:
    4148:	6f 5f       	subi	r22, 0xFF	; 255
    414a:	7f 4f       	sbci	r23, 0xFF	; 255
    414c:	8f 4f       	sbci	r24, 0xFF	; 255
    414e:	9f 4f       	sbci	r25, 0xFF	; 255

00004150 <.L3^B1>:
    4150:	08 95       	ret

00004152 <_exit>:
    4152:	f8 94       	cli

00004154 <__stop_program>:
    4154:	ff cf       	rjmp	.-2      	; 0x4154 <__stop_program>

00004156 <L0^A>:
    4156:	a8 04       	cpc	r10, r8
    4158:	f7 04       	cpc	r15, r7
    415a:	37 05       	cpc	r19, r7
    415c:	bb 03       	fmulsu	r19, r19
    415e:	bb 03       	fmulsu	r19, r19
    4160:	bb 03       	fmulsu	r19, r19
    4162:	bb 03       	fmulsu	r19, r19
    4164:	bb 03       	fmulsu	r19, r19
    4166:	bb 03       	fmulsu	r19, r19
    4168:	bb 03       	fmulsu	r19, r19
    416a:	77 05       	cpc	r23, r7
    416c:	bb 03       	fmulsu	r19, r19
    416e:	bb 03       	fmulsu	r19, r19
    4170:	bb 03       	fmulsu	r19, r19
    4172:	bb 03       	fmulsu	r19, r19
    4174:	be 0d       	add	r27, r14
    4176:	bb 03       	fmulsu	r19, r19
    4178:	bb 03       	fmulsu	r19, r19
    417a:	bb 03       	fmulsu	r19, r19
    417c:	bb 03       	fmulsu	r19, r19
    417e:	16 17       	cp	r17, r22
    4180:	bb 03       	fmulsu	r19, r19
    4182:	bb 03       	fmulsu	r19, r19
    4184:	bb 03       	fmulsu	r19, r19
    4186:	bb 03       	fmulsu	r19, r19
    4188:	4e 18       	sub	r4, r14
    418a:	bb 03       	fmulsu	r19, r19
    418c:	bb 03       	fmulsu	r19, r19
    418e:	bb 03       	fmulsu	r19, r19
    4190:	bb 03       	fmulsu	r19, r19
    4192:	75 18       	sub	r7, r5
    4194:	bb 03       	fmulsu	r19, r19
    4196:	bb 03       	fmulsu	r19, r19
    4198:	bb 03       	fmulsu	r19, r19
    419a:	bb 03       	fmulsu	r19, r19
    419c:	bb 03       	fmulsu	r19, r19
    419e:	bb 03       	fmulsu	r19, r19
    41a0:	bb 03       	fmulsu	r19, r19
    41a2:	bb 03       	fmulsu	r19, r19
    41a4:	bb 03       	fmulsu	r19, r19
    41a6:	0b 1b       	sub	r16, r27
    41a8:	bb 03       	fmulsu	r19, r19
    41aa:	bb 03       	fmulsu	r19, r19
    41ac:	bb 03       	fmulsu	r19, r19
    41ae:	bb 03       	fmulsu	r19, r19
    41b0:	bb 03       	fmulsu	r19, r19
    41b2:	bb 03       	fmulsu	r19, r19
    41b4:	bb 03       	fmulsu	r19, r19
    41b6:	bb 03       	fmulsu	r19, r19
    41b8:	bb 03       	fmulsu	r19, r19
    41ba:	9e 1d       	adc	r25, r14
    41bc:	bb 03       	fmulsu	r19, r19
    41be:	bb 03       	fmulsu	r19, r19
    41c0:	bb 03       	fmulsu	r19, r19
    41c2:	bb 03       	fmulsu	r19, r19
    41c4:	d6 1e       	adc	r13, r22
    41c6:	bb 03       	fmulsu	r19, r19
    41c8:	bb 03       	fmulsu	r19, r19
    41ca:	bb 03       	fmulsu	r19, r19
    41cc:	bb 03       	fmulsu	r19, r19
    41ce:	0b 1f       	adc	r16, r27
